Microsoft (R) Macro Assembler Version 6.11		    01/05/17 14:14:14
tempfile.asm						     Page 1 - 1


				EXTRN SUBPROG1:FAR
				EXTRN BEEP:FAR
				;=============================================
				;画竖直线
				;=============================================
				DRAW_VLINE MACRO startx,starty,lengt,color
					local inner1
					push ax
					push bx
					push cx
					push dx
					
					mov cx,startx
					mov dx,starty
					mov ax,dx
					add ax,lengt
					inner1:
						push ax
						mov bh,0
						mov ah,0ch
						mov al,color
						int 10h
						pop ax
						inc dx
						cmp dx,ax
						jnz inner1
						
					pop dx
					pop cx
					pop bx
					pop ax
				ENDM


				;============================================
				;画水平线
				;============================================
				DRAW_HLINE MACRO startx,starty,lengt,color
					local inner1
					
					push ax
					push bx
					push cx
					push dx
					
					mov cx,startx
					mov dx,starty
					mov ax,cx
					add ax,lengt
					inner1:
						push ax
						mov bh,0
						mov ah,0ch
						mov al,color
						int 10h
						pop ax
						inc cx
						cmp cx,ax
						jnz inner1
					
					pop dx
					pop cx
					pop bx
					pop ax
				ENDM


				;========================================
				;得到距离鼠标最近的点x
				;========================================
				GET_POSNEARX MACRO posx
					local loop1,loop2
					
					push ax
					push bx
					push cx
					push dx
					
					mov ax,posx
					cmp ax,30
					jb loop1
					cmp ax,460
					ja loop1
					
					sub ax,30
					sub dx,dx
					
					mov bx,50
					div bx
					
					cmp dx,30
					ja loop1
					
					sub dx,dx
					mov dx,50
					mul dx
					add ax,45
					mov pos_cenx,ax
					jmp loop2
				loop1:
					mov pos_cenx,0
				loop2:
					
					pop dx
					pop cx
					pop bx
					pop ax
				ENDM


				;======================================
				;得到距离鼠标最近的点y
				;======================================
				GET_POSNEARY MACRO posy
					local loop1,loop2
					
					push ax
					push bx
					push cx
					push dx
					
					mov ax,posy
					cmp ax,30
					jb loop1
					cmp ax,460
					ja loop1
					
					sub ax,30
					sub dx,dx
					
					mov bx,50
					div bx
					
					cmp dx,30
					ja loop1
					
					sub dx,dx
					mov dx,50
					mul dx
					add ax,45
					mov pos_ceny,ax
					jmp loop2
				loop1:
					mov pos_ceny,0
				loop2:

					pop dx
					pop cx
					pop bx
					pop ax
					
				ENDM

				;=======================================================
				;画圆
				;=======================================================
				CIRCLE MACRO xc,yc,radius,color
				       local next1,next2,next3,next4,next5,next6,exit1
				    
				       push ax
				       push bx
				       push cx
				       push dx
				       push si
				       push di
				       push bp
				       
				     ;  mov cx,RADIUS
				      
				;outter:
				;	push cx
				       mov ah,0ch
				       mov al,color
				       mov bh,0
				       mov cx,xc
				       mov dx,yc
				       mov si,0         ;X
				       mov di,radius    ;Y
				       mov bp,1-radius
				next1: 
					   cmp si,di
				       jl next2
				       lea bx,exit1
				       jmp bx
				next2:
					   inc si
					   
				next3: 
				       cmp bp,0
				       jge next4
				       add bp,si
				       add bp,si
				       add bp,1
				       jmp next5
				next4: 
					   dec di
				       add bp,si
				       add bp,si
				       sub bp,di
				       sub bp,di
				       add bp,1
				next5: 
					   mov bh,0
				       mov cx,xc
				       mov dx,yc
				       add cx,si
				       add dx,di
				       int 10h
				       mov cx,xc
				       mov dx,yc
				       sub cx,si
				       add dx,di
				       int 10h
				       mov cx,xc
				       mov dx,yc
				       add cx,si
				       sub dx,di
				       int 10h
				       mov cx,xc
				       mov dx,yc
				       sub cx,si
				       sub dx,di
				       int 10h
				       mov cx,xc
				       mov dx,yc
				       add cx,di
				       add dx,si
				       int 10h
				       mov cx,xc
				       mov dx,yc
				       sub cx,di
				       add dx,si
				       int 10h
				       mov cx,xc
				       mov dx,yc
				       add cx,di
				       sub dx,si
				       int 10h
				       mov cx,xc
				       mov dx,yc
				       sub cx,di
				       sub dx,si
				       int 10h
				next6: 
					   lea bx,next1
				       jmp bx
				exit1:
				       mov ah,0ch
				       mov al,color
				       mov bh,0
				       mov cx,xc-radius
				       mov dx,yc
				       int 10h
				       mov cx,xc+radius
				       mov dx,yc
				       int 10h
				       mov cx,xc
				       mov dx,yc-radius
				       int 10h
				       mov cx,xc
				       mov dx,yc+radius
				       int 10h
				       
				   		
				;    jnz outter
				       
				       pop bp
				       pop di
				       pop si
				       pop dx
				       pop cx
				       pop bx
				       pop ax
				ENDM

				DRAWCIR MACRO x,y,color
					CIRCLE x,y,20,color
					CIRCLE x,y,19,color
					CIRCLE x,y,18,color
					CIRCLE x,y,17,color
					CIRCLE x,y,16,color
					CIRCLE x,y,15,color
					CIRCLE x,y,14,color
					CIRCLE x,y,13,color
					CIRCLE x,y,12,color
					CIRCLE x,y,11,color
					CIRCLE x,y,10,color
					CIRCLE x,y,09,color
					CIRCLE x,y,08,color
					CIRCLE x,y,07,color
					CIRCLE x,y,06,color
					CIRCLE x,y,05,color
					CIRCLE x,y,04,color
					CIRCLE x,y,03,color
					CIRCLE x,y,02,color
					CIRCLE x,y,01,color
					
				ENDM


				;=====================================
				;判断当前位置有没有棋子
				;=====================================

				JUDGE1 MACRO x1,y1
					local loop1,loop2
					
					push ax
					push bx
					push cx
					push dx
					
					mov ax,x1
					sub ax,45
					sub dx,dx
					mov bx,50
					div bx
					add ax,4
					mov colx,ax;第几列
					
					mov ax,y1
					sub ax,45
					sub dx,dx
					mov bx,50
					div bx
					add ax,4
					mov rowy,ax;第几行
					
					;rowy*17+colx
					
					mov ax,rowy
					mov bx,17
					mul bx
					add ax,colx
					mov pianyi,ax
					
					
					
					sub cx,cx
					mov bx,offset map0
					add bx,pianyi
					;mov dx,pianyi
					mov cl,[bx]

					
					cmp cl,0
					jz loop1
					mov jud1,0
					jmp loop2
				loop1:
					mov jud1,1
				loop2:
					
					pop dx
					pop cx
					pop bx
					pop ax
					
				ENDM


				;=====================================
				;棋盘落子
				;=====================================
				DROP MACRO x1,y1,num
					
					push ax
					push bx
					push cx
					push dx
					
					mov ax,x1
					sub ax,45
					sub dx,dx
					mov bx,50
					div bx
					add ax,4
					mov colx,ax;第几列
					
					mov ax,y1
					sub ax,45
					sub dx,dx
					mov bx,50
					div bx
					add ax,4
					mov rowy,ax;第几行
					
					mov ax,rowy
					mov bx,17
					mul bx
					add ax,colx
					mov pianyi,ax
					mov bx,offset map0
					add bx,pianyi
					;mov si,offset num
					mov al,num
					mov [bx],al
					
					pop dx
					pop cx
					pop bx
					pop ax
					
				ENDM


				;=====================================
				;画鼠标状态
				;=====================================
				DRAW_CURSOR MACRO cenx,ceny,color
					
					push ax
					push bx
					push cx
					push dx
					
					mov ax,cenx
					mov bx,ceny
					
					push ax
					push bx
					
					sub ax,20
					sub bx,5
					DRAW_HLINE ax,bx,15,color
					
					pop bx
					pop ax
					
					push ax
					push bx
					
					sub ax,5
					sub bx,20
					DRAW_VLINE ax,bx,15,color
					
					pop bx
					pop ax
					
					push ax
					push bx
					
					sub ax,20
					add bx,5
					DRAW_HLINE ax,bx,15,color
					
					pop bx
					pop ax
					
					push ax
					push bx
					
					sub ax,5
					add bx,5
					DRAW_VLINE ax,bx,15,color
					
					pop bx
					pop ax
					
					push ax
					push bx
					
					add ax,5
					sub bx,20
					DRAW_VLINE ax,bx,15,color
					
					pop bx
					pop ax
					
					push ax
					push bx
					
					add ax,5
					sub bx,5
					DRAW_HLINE ax,bx,15,color
					
					pop bx
					pop ax
					
					push ax
					push bx
					
					add ax,5
					add bx,5
					DRAW_VLINE ax,bx,15,color
					
					pop bx
					pop ax
					
					push ax
					push bx
					
					add ax,5
					add bx,5
					DRAW_HLINE ax,bx,15,color
					
					pop bx
					pop ax

					pop dx
					pop cx
					pop bx
					pop ax
					
				ENDM

				;==================================================
				;判断横向是否有5个棋子
				;==================================================
				JUDGEROW MACRO x1,y1,who
					local loop1,loop2,next,next1,success,fail,endd
					push ax
					push bx
					push cx
					push dx
					;mov qizinum,1
					;mov ax,x;行坐标
					;mov bx,y;纵坐标
					
					;计算偏移
					;mov di,offsite x1
					mov ax,x1
					sub ax,45
					sub dx,dx
					mov bx,50
					div bx
					add ax,4
					mov jcolx,ax;第几列
					
					;mov di,offset y1
					mov ax,y1
					sub ax,45
					sub dx,dx
					mov bx,50
					div bx
					add ax,4
					mov jrowy,ax;第几行
					
					;rowy*17+colx
					
					mov ax,jrowy
					mov bx,17
					mul bx
					add ax,jcolx
					mov pianyi,ax
					
					mov bx,offset map0
					mov ax,pianyi
					add bx,ax
					
					mov qizinum,1
					mov dl,qizinum
					
					;mov ax,pianyi
					;mov ah,who
					mov dh,who
					push bx
					
					mov cl,1
				loop1:
					add bx,1
					mov ch,[bx]
					cmp ch,dh
					jnz next
					add dl,1
					add cl,1
					cmp cl,5
					jnz loop1
					
				next:
					pop bx
					mov cl,1
				loop2:
					sub bx,1
					mov ch,[bx]
					cmp ch,dh
					jnz next1
					add dl,1
					add cl,1
					cmp cl,5
					jnz loop2

				next1:
					mov lianzigeshu,dl
					cmp dl,5
					jae success
					jmp fail
				success:
					mov judg,1
					jmp endd
				fail:
					mov judg,0

				endd:

					pop dx
					pop cx
					pop bx
					pop ax
				ENDM

				;=================================================
				;判断纵向是否有5个棋子
				;=================================================
				JUDGECOL MACRO x1,y1,who
					local loop1,loop2,next,next1,success,fail,endd
					push ax
					push bx
					push cx
	push dx
					;mov qizinum,1
					;mov ax,x;行坐标
					;mov bx,y;纵坐标
					
					;计算偏移
					;mov di,offsite x1
					mov ax,x1
					sub ax,45
					sub dx,dx
					mov bx,50
					div bx
					add ax,4
					mov jcolx,ax;第几列
					
					;mov di,offset y1
					mov ax,y1
					sub ax,45
					sub dx,dx
					mov bx,50
					div bx
					add ax,4
					mov jrowy,ax;第几行
					
					;rowy*17+colx
					
					mov ax,jrowy
					mov bx,17
					mul bx
					add ax,jcolx
					mov pianyi,ax
					
					mov bx,offset map0
					mov ax,pianyi
					add bx,ax
					
					mov qizinum,1
					mov dl,qizinum
					
					;mov ax,pianyi
					;mov ah,who
					mov dh,who
					push bx
					
					mov cl,1
				loop1:
					add bx,17
					mov ch,[bx]
					cmp ch,dh
					jnz next
					add dl,1
					add cl,1
					cmp cl,5
					jnz loop1
					
				next:
					pop bx
					mov cl,1
				loop2:
					sub bx,17
					mov ch,[bx]
					cmp ch,dh
					jnz next1
					add dl,1
					add cl,1
					cmp cl,5
					jnz loop2

				next1:
					mov lianzigeshu,dl
					cmp dl,5
					jae success
					jmp fail
				success:
					mov judg,1
					jmp endd
				fail:
					mov judg,0

				endd:
					pop dx
					pop cx
					pop bx
					pop ax
				ENDM

				;=================================================
				;判断左上右下是否有5个棋子
				;=================================================
				JUDGELUTORD MACRO x1,y1,who
					local loop1,loop2,next,next1,success,fail,endd
					push ax
					push bx
					push cx
					push dx
					;mov qizinum,1
					;mov ax,x;行坐标
					;mov bx,y;纵坐标
					
					;计算偏移
					;mov di,offsite x1
					mov ax,x1
					sub ax,45
					sub dx,dx
					mov bx,50
					div bx
					add ax,4
					mov jcolx,ax;第几列
					
					;mov di,offset y1
					mov ax,y1
					sub ax,45
					sub dx,dx
					mov bx,50
					div bx
					add ax,4
					mov jrowy,ax;第几行
					
					;rowy*17+colx
					
					mov ax,jrowy
					mov bx,17
					mul bx
					add ax,jcolx
					mov pianyi,ax
					
					mov bx,offset map0
					mov ax,pianyi
					add bx,ax
					
					mov qizinum,1
					mov dl,qizinum
					
					;mov ax,pianyi
					;mov ah,who
					mov dh,who
					push bx
					
					mov cl,1
				loop1:
					add bx,18
					mov ch,[bx]
					cmp ch,dh
					jnz next
					add dl,1
					add cl,1
					cmp cl,5
					jnz loop1
					
				next:
					pop bx
					mov cl,1
				loop2:
					sub bx,18
					mov ch,[bx]
					cmp ch,dh
					jnz next1
					add dl,1
					add cl,1
					cmp cl,5
					jnz loop2

				next1:
					mov lianzigeshu,dl
					cmp dl,5
					jae success
					jmp fail
				success:
					mov judg,1
					jmp endd
				fail:
					mov judg,0

				endd:
					pop dx
					pop cx
					pop bx
					pop ax

				ENDM


				;=================================================
				;判断右上左下是否有5个棋子
				;=================================================

				JUDGERUTOLD MACRO x1,y1,who

					local loop1,loop2,next,next1,success,fail,endd
					push ax
					push bx
					push cx
					push dx
					;mov qizinum,1
					;mov ax,x;行坐标
					;mov bx,y;纵坐标
					
					;计算偏移
					;mov di,offsite x1
					mov ax,x1
					sub ax,45
					sub dx,dx
					mov bx,50
					div bx
					add ax,4
					mov jcolx,ax;第几列
					
					;mov di,offset y1
					mov ax,y1
					sub ax,45
					sub dx,dx
					mov bx,50
					div bx
					add ax,4
					mov jrowy,ax;第几行
					
					;rowy*17+colx
					
					mov ax,jrowy
					mov bx,17
					mul bx
					add ax,jcolx
					mov pianyi,ax
					
					mov bx,offset map0
					mov ax,pianyi
					add bx,ax
					
					mov qizinum,1
					mov dl,qizinum
					
					;mov ax,pianyi
					;mov ah,who
					mov dh,who
					push bx
					
					mov cl,1
				loop1:
					add bx,16
					mov ch,[bx]
					cmp ch,dh
					jnz next
					add dl,1
					add cl,1
					cmp cl,5
					jnz loop1
					
				next:
					pop bx
					mov cl,1
				loop2:
					sub bx,16
					mov ch,[bx]
					cmp ch,dh
					jnz next1
					add dl,1
					add cl,1
					cmp cl,5
					jnz loop2

				next1:
					mov lianzigeshu,dl
					cmp dl,5
					jae success
					jmp fail
				success:
					mov judg,1
					jmp endd
				fail:
					mov judg,0

				endd:
					pop dx
					pop cx
					pop bx
					pop ax

				ENDM

				;===========================================
				;计算黑棋得分（黑棋为电脑）	黑棋state为2
				;===========================================
				GETSCOREBLACK MACRO	x,y
					local next1,next2,next3,next4,four1,four2,four3,four4,three1,three2
					local three3,three4,two1,two2,two3,two4,one1,one2,one3,one4,five1,five2
					local five3,five4,next5,next6,next7
					push ax
					push bx
					push cx
					push dx
					sub ax,ax
					JUDGEROW x,y,2
					mov bl,lianzigeshu
					JUDGECOL x,y,2
					cmp lianzigeshu,bl
					ja next1
					jmp next2
				next1:
					mov bl,lianzigeshu
				next2:
					JUDGELUTORD x,y,2
					cmp lianzigeshu,bl
					ja next3
					jmp next4
				next3:
					mov bl,lianzigeshu
				next4:
					JUDGERUTOLD x,y,2
					cmp lianzigeshu,bl
					jb next5
					jmp next6
				next5:
					mov lianzigeshu,bl
next6:	
					cmp lianzigeshu,5
					jae five1
					cmp lianzigeshu,4
					jz four1
					cmp lianzigeshu,3
					jz three1
					cmp lianzigeshu,2
					jz two1
					cmp lianzigeshu,1
					jz one1
				five1:
					add ax,500
					jmp next7
				four1:
					add ax,100
					jmp next7
				three1:
					add ax,16
					jmp next7
				two1:
					add ax,4
					jmp next7
				one1:
					add ax,1
					
				next7:
					add ax,1
					mov tempscore,ax
					
					pop dx
					pop cx
					pop bx
					pop ax
				ENDM
					
					
				;==========================================	
				;计算白棋得分（白棋为人） 白棋state为1
				;==========================================
				GETSCOREWHITE MACRO	x,y
					local next1,next2,next3,next4,four1,four2,four3,four4,three1,three2
					local three3,three4,two1,two2,two3,two4,one1,one2,one3,one4,next5,next6
					local five1,five2,five3,five4,next5,next6,next7,next8,next9
					push ax
					push bx
					push cx
					push dx
					sub ax,ax
					JUDGEROW x,y,1
					mov bl,lianzigeshu
					JUDGECOL x,y,1
					cmp lianzigeshu,bl
					ja next1
					jmp next2
				next1:
					mov bl,lianzigeshu
				next2:
					JUDGELUTORD x,y,1
					cmp lianzigeshu,bl
					ja next3
					jmp next4
				next3:
					mov bl,lianzigeshu
				next4:
					JUDGERUTOLD x,y,1
					cmp lianzigeshu,bl
					jb next5
					jmp next6
				next5:
					mov lianzigeshu,bl
				next6:	
					cmp lianzigeshu,5
					jae five1
					cmp lianzigeshu,4
					jz four1
					cmp lianzigeshu,3
					jz three1
					cmp lianzigeshu,2
					jz two1
					cmp lianzigeshu,1
					jz one1
				five1:
					add ax,500
					jmp next7
				four1:
					add ax,100
					jmp next7
				three1:
					add ax,16
					jmp next7
				two1:
					add ax,4
					jmp next7
				one1:
					add ax,1
					
				next7:
					mov bx,tempscore
					cmp ax,bx
					jae next8
					jmp next9
				next8:
					mov tempscore,ax
				next9:

					pop dx
					pop cx
					pop bx
					pop ax
				ENDM


				;=============================================
				;得到Score表并返回要下棋子的位置
				;=============================================
				GETNEXTPOINT MACRO
					local outter,inner,next1,next2,next3
					push ax
					push bx
					push cx
					push dx
					mov maxscore,0
					mov tmpaicenx,45
					mov tmpaiceny,45

				outter:
					mov tmpaicenx,45
				inner:
					JUDGE1 tmpaicenx,tmpaiceny
					cmp jud1,1
					jnz next2
					GETSCOREBLACK tmpaicenx,tmpaiceny
					GETSCOREWHITE tmpaicenx,tmpaiceny
					mov ax,tempscore
					cmp ax,maxscore
					ja next1
					jmp next2	
				next1:
					mov maxscore,ax
					mov ax,tmpaicenx
					mov aicenx,ax
					mov ax,tmpaiceny
					mov aiceny,ax
				next2:
					add tmpaicenx,50
					cmp tmpaicenx,495
					jz next3
					jmp inner
				next3:
					add tmpaiceny,50
					cmp tmpaiceny,495
					jnz outter	

					pop dx
					pop cx
					pop bx
					pop ax
				ENDM	
				.MODEL SMALL
				.STACK 64
 0000				.DATA
 0000 002D 005F 0091 00C3	 line dw 45,95,145,195,245,295,345,395,445
       00F5 0127 0159
       018B 01BD
				    ;pointcen dw 30,60,80,110,130,160,180,210,230,260,280,310,330,360,380,410,430,460
				    org 20h
 0020 0000			    pos_x dw 0
 0022 0000			    pos_y dw 0
 0024 0000			    pos_cenx dw 0
 0026 0000			    pos_ceny dw 0
 0028 005F			    pos_lastx dw 95
 002A 005F			    pos_lasty dw 95
				    
				    org 30h
 0030  0121 [			    map0 db 289 dup(0) 
        00
       ]
				    
 0151 0000			    rowy dw ?
 0153 0000			    colx dw ?
				    
 0155 0000			    jrowy dw ?
 0157 0000			    jcolx dw ?
				    
				    org 120h
				    ;表示能不能落子
 0120 01			    jud1 db 1;0表示不能，1表示能
				    ;表示相对于首地址的偏移
 0121 0000			    pianyi dw ?
				    ;判断游戏是否结束
 0123 00			    judg db 0
				    
				    org 130h
				    ;记录当前棋手和颜色
 0130 01			    state db 1
 0131 0F			    colo db 15
				    
 0132 00			    qizinum db 0
				    
				    
				    org 140h
				    
				    ;score dw 289 dup(0)
				    
 0140 00			    lianzigeshu db 0
 0141 0000				maxscore dw 0
 0143 0000			    tempscore dw 0
 0145 0000			    aicenx dw 0
 0147 0000			    aiceny dw 0
 0149 0000			    tmpaicenx dw 0
 014B 0000			    tmpaiceny dw 0

				    
				    ;08黑
				    ;15白
 0000				.CODE
 0000				MAIN PROC FAR
 0000  B8 ---- R			MOV AX,@DATA
 0003  8E D8				MOV DS,AX
				    ;此处输入代码段代码
				   
 0005				restart:	
 0005  9A ---- 0000 E			CALL SUBPROG1
 000A  3C 71				CMP AL,'q'
 000C  74 54				JE EXIT1
 000E  3C 51				CMP AL,'Q'
 0010  74 50				JE EXIT1
 0012  80 FC 3B				CMP AH,3BH
 0015  74 05				JE ptp
 0017  80 FC 3C				CMP AH,3CH
 001A  74 23				JE ptc
 001C				ptp:
 001C  E8 433E				call initdata
 001F  E8 0044				call init
 0022  E8 0116				call mouse
					
 0025				AGAIN11:	
 0025  B4 01				MOV AH,01
 0027  CD 16				INT 16H
 0029  B4 00				MOV AH,0
 002B  CD 16				INT 16H
 002D  3C 71				CMP AL,'q'
 002F  74 31				JE EXIT1	
 0031  3C 51				CMP AL,'Q'
 0033  74 2D				JE EXIT1
 0035  3C 72				CMP AL,'r'
 0037  74 CC				JE restart
 0039  3C 52				CMP AL,'R'
 003B  74 C8				JE restart
 003D  EB E6				JMP AGAIN11
					
					;jmp EXIT1
					
 003F				ptc:
 003F  E8 431B				call initdata
 0042  E8 0021				call init
 0045  E8 43A8				call computer
					
 0048				AGAIN12:	
 0048  B4 01				MOV AH,01
 004A  CD 16				INT 16H
 004C  B4 00				MOV AH,0
 004E  CD 16				INT 16H
 0050  3C 71				CMP AL,'q'
 0052  74 0E				JE EXIT1	
 0054  3C 51				CMP AL,'Q'
 0056  74 0A				JE EXIT1
 0058  3C 72				CMP AL,'r'
 005A  74 A9				JE restart
 005C  3C 52				CMP AL,'R'
 005E  74 A5				JE restart
					
 0060  EB E6				JMP AGAIN12
					;jmp EXIT1
						
 0062				EXIT1:
 0062  B4 4C			    MOV AH,4CH
 0064  CD 21			    INT 21H
				    
				    
				;==================================================
				;初始化
				;==================================================
 0066				init proc
 0066  B4 00				mov ah,00
 0068  B0 12				mov al,12h
 006A  CD 10				int 10h
 006C  B4 0B				mov ah,0bh
 006E  B7 00				mov bh,00
 0070  B3 07				mov bl,7
 0072  CD 10				int 10h
					;cx_col,dx_row
 0074  B9 0014				mov cx,20
 0077  BA 0014				mov dx,20
 007A				outter:
 007A					inner:
 007A  B7 00					mov bh,0
 007C  B4 0C					mov ah,0ch
 007E  B0 0E					mov al,14
 0080  CD 10					int 10h
 0082  41					inc cx
 0083  81 F9 01D6				cmp cx,470
 0087  75 F1					jnz inner
 0089  B9 0014				mov cx,20
 008C  42				inc dx
 008D  81 FA 01D6			cmp dx,470
 0091  75 E7				jnz outter
					
 0093  B9 0008				mov cx,8
 0096  BF 0000 R			mov di,offset line
 0099				outter1:
 0099  51				push cx
 009A  BA 002D				mov dx,45
 009D					inner1:
 009D  8B 0D					mov cx,[di]
 009F  B7 00					mov bh,0
 00A1  B4 0C					mov ah,0ch
 00A3  B0 08					mov al,08
 00A5  CD 10					int 10h
 00A7  42					inc dx
 00A8  81 FA 01BD				cmp dx,445
 00AC  75 EF					jnz inner1
 00AE  47				inc di
 00AF  59				pop cx
 00B0  E2 E7				loop outter1
					
 00B2  BA 002D				mov dx,45
 00B5					inner3:
 00B5  B9 00F5					mov cx,245
 00B8  B7 00					mov bh,0
 00BA  B4 0C					mov ah,0ch
 00BC  B0 08					mov al,08
 00BE  CD 10					int 10h
 00C0  42					inc dx
 00C1  81 FA 01BD				cmp dx,445
 00C5  75 EE					jnz inner3	
						
 00C7  BA 002D				mov dx,45
 00CA					inner4:
 00CA  B9 0127					mov cx,295
 00CD  B7 00					mov bh,0
 00CF  B4 0C					mov ah,0ch
 00D1  B0 08					mov al,08
 00D3  CD 10					int 10h
 00D5  42					inc dx
 00D6  81 FA 01BD				cmp dx,445
 00DA  75 EE					jnz inner4	
						
 00DC  BA 002D				mov dx,45
 00DF					inner5:
 00DF  B9 0159					mov cx,345
 00E2  B7 00					mov bh,0
 00E4  B4 0C					mov ah,0ch
 00E6  B0 08					mov al,08
 00E8  CD 10					int 10h
 00EA  42					inc dx
 00EB  81 FA 01BD				cmp dx,445
 00EF  75 EE					jnz inner5
						
 00F1  BA 002D				mov dx,45
 00F4					inner6:
 00F4  B9 018B					mov cx,395
 00F7  B7 00					mov bh,0
 00F9  B4 0C					mov ah,0ch
 00FB  B0 08					mov al,08
 00FD  CD 10					int 10h
 00FF  42					inc dx
 0100  81 FA 01BD				cmp dx,445
 0104  75 EE					jnz inner6
 0106  BA 002D				mov dx,45	
 0109					inner7:
 0109  B9 01BD					mov cx,445
 010C  B7 00					mov bh,0
 010E  B4 0C					mov ah,0ch
 0110  B0 08					mov al,08
 0112  CD 10					int 10h
 0114  42					inc dx
 0115  81 FA 01BD				cmp dx,445
 0119  75 EE					jnz inner7
					
 011B  B9 0011				mov cx,17
 011E  BF 0000 R			mov di,offset line
 0121				outter2:
 0121  51				push cx
 0122  B9 002D				mov cx,45
 0125					inner2:
 0125  8B 15					mov dx,[di]
 0127  B7 00					mov bh,0
 0129  B4 0C					mov ah,0ch
 012B  B0 08					mov al,08
 012D  CD 10					int 10h
 012F  41					inc cx
 0130  81 F9 01BD				cmp cx,445
 0134  75 EF					jnz inner2
 0136  47				inc di
 0137  59				pop cx
 0138  E2 E7				loop outter2
 013A  C3				ret
 013B				init endp


				;==================================
				;鼠标操作
				;==================================
 013B				mouse proc
					;初始化并显示鼠标
 013B  B8 0000				mov ax,0
 013E  CD 33				int 33h
 0140  B8 0001				mov ax,01
 0143  CD 33				int 33h
					
					
					
 0145				again:

					DRAWCIR 540,120,colo
 0145  50		     2	       push ax
 0146  53		     2	       push bx
 0147  51		     2	       push cx
 0148  52		     2	       push dx
 0149  56		     2	       push si
 014A  57		     2	       push di
 014B  55		     2	       push bp
 014C  B4 0C		     2	       mov ah,0ch
 014E  A0 0131 R	     2	       mov al,colo
 0151  B7 00		     2	       mov bh,0
 0153  B9 021C		     2	       mov cx,540
 0156  BA 0078		     2	       mov dx,120
 0159  BE 0000		     2	       mov si,0         ;X
 015C  BF 0014		     2	       mov di,20    ;Y
 015F  BD FFED		     2	       mov bp,1-20
 0162			     2	??0000: 
 0162  3B F7		     2		   cmp si,di
 0164  7C 06		     2	       jl ??0001
 0166  8D 1E 01EF R	     2	       lea bx,??0006
 016A  FF E3		     2	       jmp bx
 016C			     2	??0001:
 016C  46		     2		   inc si
 016D			     2	??0002: 
 016D  83 FD 00		     2	       cmp bp,0
 0170  7D 09		     2	       jge ??0003
 0172  03 EE		     2	       add bp,si
 0174  03 EE		     2	       add bp,si
 0176  83 C5 01		     2	       add bp,1
 0179  EB 0C		     2	       jmp ??0004
 017B			     2	??0003: 
 017B  4F		     2		   dec di
 017C  03 EE		     2	       add bp,si
 017E  03 EE		     2	       add bp,si
 0180  2B EF		     2	       sub bp,di
 0182  2B EF		     2	       sub bp,di
 0184  83 C5 01		     2	       add bp,1
 0187			     2	??0004: 
 0187  B7 00		     2		   mov bh,0
 0189  B9 021C		     2	       mov cx,540
 018C  BA 0078		     2	       mov dx,120
 018F  03 CE		     2	       add cx,si
 0191  03 D7		     2	       add dx,di
 0193  CD 10		     2	       int 10h
 0195  B9 021C		     2	       mov cx,540
 0198  BA 0078		     2	       mov dx,120
 019B  2B CE		     2	       sub cx,si
 019D  03 D7		     2	       add dx,di
 019F  CD 10		     2	       int 10h
 01A1  B9 021C		     2	       mov cx,540
 01A4  BA 0078		     2	       mov dx,120
 01A7  03 CE		     2	       add cx,si
 01A9  2B D7		     2	       sub dx,di
 01AB  CD 10		     2	       int 10h
 01AD  B9 021C		     2	       mov cx,540
 01B0  BA 0078		     2	       mov dx,120
 01B3  2B CE		     2	       sub cx,si
 01B5  2B D7		     2	       sub dx,di
 01B7  CD 10		     2	       int 10h
 01B9  B9 021C		     2	       mov cx,540
 01BC  BA 0078		     2	       mov dx,120
 01BF  03 CF		     2	       add cx,di
 01C1  03 D6		     2	       add dx,si
 01C3  CD 10		     2	       int 10h
 01C5  B9 021C		     2	       mov cx,540
 01C8  BA 0078		     2	       mov dx,120
 01CB  2B CF		     2	       sub cx,di
 01CD  03 D6		     2	       add dx,si
 01CF  CD 10		     2	       int 10h
 01D1  B9 021C		     2	       mov cx,540
 01D4  BA 0078		     2	       mov dx,120
 01D7  03 CF		     2	       add cx,di
 01D9  2B D6		     2	       sub dx,si
 01DB  CD 10		     2	       int 10h
 01DD  B9 021C		     2	       mov cx,540
 01E0  BA 0078		     2	       mov dx,120
 01E3  2B CF		     2	       sub cx,di
 01E5  2B D6		     2	       sub dx,si
 01E7  CD 10		     2	       int 10h
 01E9			     2	??0005: 
 01E9  8D 1E 0162 R	     2		   lea bx,??0000
 01ED  FF E3		     2	       jmp bx
 01EF			     2	??0006:
 01EF  B4 0C		     2	       mov ah,0ch
 01F1  A0 0131 R	     2	       mov al,colo
 01F4  B7 00		     2	       mov bh,0
 01F6  B9 0208		     2	       mov cx,540-20
 01F9  BA 0078		     2	       mov dx,120
 01FC  CD 10		     2	       int 10h
 01FE  B9 0230		     2	       mov cx,540+20
 0201  BA 0078		     2	       mov dx,120
 0204  CD 10		     2	       int 10h
 0206  B9 021C		     2	       mov cx,540
 0209  BA 0064		     2	       mov dx,120-20
 020C  CD 10		     2	       int 10h
 020E  B9 021C		     2	       mov cx,540
 0211  BA 008C		     2	       mov dx,120+20
 0214  CD 10		     2	       int 10h
 0216  5D		     2	       pop bp
 0217  5F		     2	       pop di
 0218  5E		     2	       pop si
 0219  5A		     2	       pop dx
 021A  59		     2	       pop cx
 021B  5B		     2	       pop bx
 021C  58		     2	       pop ax
 021D  50		     2	       push ax
 021E  53		     2	       push bx
 021F  51		     2	       push cx
 0220  52		     2	       push dx
 0221  56		     2	       push si
 0222  57		     2	       push di
 0223  55		     2	       push bp
 0224  B4 0C		     2	       mov ah,0ch
 0226  A0 0131 R	     2	       mov al,colo
 0229  B7 00		     2	       mov bh,0
 022B  B9 021C		     2	       mov cx,540
 022E  BA 0078		     2	       mov dx,120
 0231  BE 0000		     2	       mov si,0         ;X
 0234  BF 0013		     2	       mov di,19    ;Y
 0237  BD FFEE		     2	       mov bp,1-19
 023A			     2	??0007: 
 023A  3B F7		     2		   cmp si,di
 023C  7C 06		     2	       jl ??0008
 023E  8D 1E 02C7 R	     2	       lea bx,??000D
 0242  FF E3		     2	       jmp bx
 0244			     2	??0008:
 0244  46		     2		   inc si
 0245			     2	??0009: 
 0245  83 FD 00		     2	       cmp bp,0
 0248  7D 09		     2	       jge ??000A
 024A  03 EE		     2	       add bp,si
 024C  03 EE		     2	       add bp,si
 024E  83 C5 01		     2	       add bp,1
 0251  EB 0C		     2	       jmp ??000B
 0253			     2	??000A: 
 0253  4F		     2		   dec di
 0254  03 EE		     2	       add bp,si
 0256  03 EE		     2	       add bp,si
 0258  2B EF		     2	       sub bp,di
 025A  2B EF		     2	       sub bp,di
 025C  83 C5 01		     2	       add bp,1
 025F			     2	??000B: 
 025F  B7 00		     2		   mov bh,0
 0261  B9 021C		     2	       mov cx,540
 0264  BA 0078		     2	       mov dx,120
 0267  03 CE		     2	       add cx,si
 0269  03 D7		     2	       add dx,di
 026B  CD 10		     2	       int 10h
 026D  B9 021C		     2	       mov cx,540
 0270  BA 0078		     2	       mov dx,120
 0273  2B CE		     2	       sub cx,si
 0275  03 D7		     2	       add dx,di
 0277  CD 10		     2	       int 10h
 0279  B9 021C		     2	       mov cx,540
 027C  BA 0078		     2	       mov dx,120
 027F  03 CE		     2	       add cx,si
 0281  2B D7		     2	       sub dx,di
 0283  CD 10		     2	       int 10h
 0285  B9 021C		     2	       mov cx,540
 0288  BA 0078		     2	       mov dx,120
 028B  2B CE		     2	       sub cx,si
 028D  2B D7		     2	       sub dx,di
 028F  CD 10		     2	       int 10h
 0291  B9 021C		     2	       mov cx,540
 0294  BA 0078		     2	       mov dx,120
 0297  03 CF		     2	       add cx,di
 0299  03 D6		     2	       add dx,si
 029B  CD 10		     2	       int 10h
 029D  B9 021C		     2	       mov cx,540
 02A0  BA 0078		     2	       mov dx,120
 02A3  2B CF		     2	       sub cx,di
 02A5  03 D6		     2	       add dx,si
 02A7  CD 10		     2	       int 10h
 02A9  B9 021C		     2	       mov cx,540
 02AC  BA 0078		     2	       mov dx,120
 02AF  03 CF		     2	       add cx,di
 02B1  2B D6		     2	       sub dx,si
 02B3  CD 10		     2	       int 10h
 02B5  B9 021C		     2	       mov cx,540
 02B8  BA 0078		     2	       mov dx,120
 02BB  2B CF		     2	       sub cx,di
 02BD  2B D6		     2	       sub dx,si
 02BF  CD 10		     2	       int 10h
 02C1			     2	??000C: 
 02C1  8D 1E 023A R	     2		   lea bx,??0007
 02C5  FF E3		     2	       jmp bx
 02C7			     2	??000D:
 02C7  B4 0C		     2	       mov ah,0ch
 02C9  A0 0131 R	     2	       mov al,colo
 02CC  B7 00		     2	       mov bh,0
 02CE  B9 0209		     2	       mov cx,540-19
 02D1  BA 0078		     2	       mov dx,120
 02D4  CD 10		     2	       int 10h
 02D6  B9 022F		     2	       mov cx,540+19
 02D9  BA 0078		     2	       mov dx,120
 02DC  CD 10		     2	       int 10h
 02DE  B9 021C		     2	       mov cx,540
 02E1  BA 0065		     2	       mov dx,120-19
 02E4  CD 10		     2	       int 10h
 02E6  B9 021C		     2	       mov cx,540
 02E9  BA 008B		     2	       mov dx,120+19
 02EC  CD 10		     2	       int 10h
 02EE  5D		     2	       pop bp
 02EF  5F		     2	       pop di
 02F0  5E		     2	       pop si
 02F1  5A		     2	       pop dx
 02F2  59		     2	       pop cx
 02F3  5B		     2	       pop bx
 02F4  58		     2	       pop ax
 02F5  50		     2	       push ax
 02F6  53		     2	       push bx
 02F7  51		     2	       push cx
 02F8  52		     2	       push dx
 02F9  56		     2	       push si
 02FA  57		     2	       push di
 02FB  55		     2	       push bp
 02FC  B4 0C		     2	       mov ah,0ch
 02FE  A0 0131 R	     2	       mov al,colo
 0301  B7 00		     2	       mov bh,0
 0303  B9 021C		     2	       mov cx,540
 0306  BA 0078		     2	       mov dx,120
 0309  BE 0000		     2	       mov si,0         ;X
 030C  BF 0012		     2	       mov di,18    ;Y
 030F  BD FFEF		     2	       mov bp,1-18
 0312			     2	??000E: 
 0312  3B F7		     2		   cmp si,di
 0314  7C 06		     2	       jl ??000F
 0316  8D 1E 039F R	     2	       lea bx,??0014
 031A  FF E3		     2	       jmp bx
 031C			     2	??000F:
 031C  46		     2		   inc si
 031D			     2	??0010: 
 031D  83 FD 00		     2	       cmp bp,0
 0320  7D 09		     2	       jge ??0011
 0322  03 EE		     2	       add bp,si
 0324  03 EE		     2	       add bp,si
 0326  83 C5 01		     2	       add bp,1
 0329  EB 0C		     2	       jmp ??0012
 032B			     2	??0011: 
 032B  4F		     2		   dec di
 032C  03 EE		     2	       add bp,si
 032E  03 EE		     2	       add bp,si
 0330  2B EF		     2	       sub bp,di
 0332  2B EF		     2	       sub bp,di
 0334  83 C5 01		     2	       add bp,1
 0337			     2	??0012: 
 0337  B7 00		     2		   mov bh,0
 0339  B9 021C		     2	       mov cx,540
 033C  BA 0078		     2	       mov dx,120
 033F  03 CE		     2	       add cx,si
 0341  03 D7		     2	       add dx,di
 0343  CD 10		     2	       int 10h
 0345  B9 021C		     2	       mov cx,540
 0348  BA 0078		     2	       mov dx,120
 034B  2B CE		     2	       sub cx,si
 034D  03 D7		     2	       add dx,di
 034F  CD 10		     2	       int 10h
 0351  B9 021C		     2	       mov cx,540
 0354  BA 0078		     2	       mov dx,120
 0357  03 CE		     2	       add cx,si
 0359  2B D7		     2	       sub dx,di
 035B  CD 10		     2	       int 10h
 035D  B9 021C		     2	       mov cx,540
 0360  BA 0078		     2	       mov dx,120
 0363  2B CE		     2	       sub cx,si
 0365  2B D7		     2	       sub dx,di
 0367  CD 10		     2	       int 10h
 0369  B9 021C		     2	       mov cx,540
 036C  BA 0078		     2	       mov dx,120
 036F  03 CF		     2	       add cx,di
 0371  03 D6		     2	       add dx,si
 0373  CD 10		     2	       int 10h
 0375  B9 021C		     2	       mov cx,540
 0378  BA 0078		     2	       mov dx,120
 037B  2B CF		     2	       sub cx,di
 037D  03 D6		     2	       add dx,si
 037F  CD 10		     2	       int 10h
 0381  B9 021C		     2	       mov cx,540
 0384  BA 0078		     2	       mov dx,120
 0387  03 CF		     2	       add cx,di
 0389  2B D6		     2	       sub dx,si
 038B  CD 10		     2	       int 10h
 038D  B9 021C		     2	       mov cx,540
 0390  BA 0078		     2	       mov dx,120
 0393  2B CF		     2	       sub cx,di
 0395  2B D6		     2	       sub dx,si
 0397  CD 10		     2	       int 10h
 0399			     2	??0013: 
 0399  8D 1E 0312 R	     2		   lea bx,??000E
 039D  FF E3		     2	       jmp bx
 039F			     2	??0014:
 039F  B4 0C		     2	       mov ah,0ch
 03A1  A0 0131 R	     2	       mov al,colo
 03A4  B7 00		     2	       mov bh,0
 03A6  B9 020A		     2	       mov cx,540-18
 03A9  BA 0078		     2	       mov dx,120
 03AC  CD 10		     2	       int 10h
 03AE  B9 022E		     2	       mov cx,540+18
 03B1  BA 0078		     2	       mov dx,120
 03B4  CD 10		     2	       int 10h
 03B6  B9 021C		     2	       mov cx,540
 03B9  BA 0066		     2	       mov dx,120-18
 03BC  CD 10		     2	       int 10h
 03BE  B9 021C		     2	       mov cx,540
 03C1  BA 008A		     2	       mov dx,120+18
 03C4  CD 10		     2	       int 10h
 03C6  5D		     2	       pop bp
 03C7  5F		     2	       pop di
 03C8  5E		     2	       pop si
 03C9  5A		     2	       pop dx
 03CA  59		     2	       pop cx
 03CB  5B		     2	       pop bx
 03CC  58		     2	       pop ax
 03CD  50		     2	       push ax
 03CE  53		     2	       push bx
 03CF  51		     2	       push cx
 03D0  52		     2	       push dx
 03D1  56		     2	       push si
 03D2  57		     2	       push di
 03D3  55		     2	       push bp
 03D4  B4 0C		     2	       mov ah,0ch
 03D6  A0 0131 R	     2	       mov al,colo
 03D9  B7 00		     2	       mov bh,0
 03DB  B9 021C		     2	       mov cx,540
 03DE  BA 0078		     2	       mov dx,120
 03E1  BE 0000		     2	       mov si,0         ;X
 03E4  BF 0011		     2	       mov di,17    ;Y
 03E7  BD FFF0		     2	       mov bp,1-17
 03EA			     2	??0015: 
 03EA  3B F7		     2		   cmp si,di
 03EC  7C 06		     2	       jl ??0016
 03EE  8D 1E 0477 R	     2	       lea bx,??001B
 03F2  FF E3		     2	       jmp bx
 03F4			     2	??0016:
 03F4  46		     2		   inc si
 03F5			     2	??0017: 
 03F5  83 FD 00		     2	       cmp bp,0
 03F8  7D 09		     2	       jge ??0018
 03FA  03 EE		     2	       add bp,si
 03FC  03 EE		     2	       add bp,si
 03FE  83 C5 01		     2	       add bp,1
 0401  EB 0C		     2	       jmp ??0019
 0403			     2	??0018: 
 0403  4F		     2		   dec di
 0404  03 EE		     2	       add bp,si
 0406  03 EE		     2	       add bp,si
 0408  2B EF		     2	       sub bp,di
 040A  2B EF		     2	       sub bp,di
 040C  83 C5 01		     2	       add bp,1
 040F			     2	??0019: 
 040F  B7 00		     2		   mov bh,0
 0411  B9 021C		     2	       mov cx,540
 0414  BA 0078		     2	       mov dx,120
 0417  03 CE		     2	       add cx,si
 0419  03 D7		     2	       add dx,di
 041B  CD 10		     2	       int 10h
 041D  B9 021C		     2	       mov cx,540
 0420  BA 0078		     2	       mov dx,120
 0423  2B CE		     2	       sub cx,si
 0425  03 D7		     2	       add dx,di
 0427  CD 10		     2	       int 10h
 0429  B9 021C		     2	       mov cx,540
 042C  BA 0078		     2	       mov dx,120
 042F  03 CE		     2	       add cx,si
 0431  2B D7		     2	       sub dx,di
 0433  CD 10		     2	       int 10h
 0435  B9 021C		     2	       mov cx,540
 0438  BA 0078		     2	       mov dx,120
 043B  2B CE		     2	       sub cx,si
 043D  2B D7		     2	       sub dx,di
 043F  CD 10		     2	       int 10h
 0441  B9 021C		     2	       mov cx,540
 0444  BA 0078		     2	       mov dx,120
 0447  03 CF		     2	       add cx,di
 0449  03 D6		     2	       add dx,si
 044B  CD 10		     2	       int 10h
 044D  B9 021C		     2	       mov cx,540
 0450  BA 0078		     2	       mov dx,120
 0453  2B CF		     2	       sub cx,di
 0455  03 D6		     2	       add dx,si
 0457  CD 10		     2	       int 10h
 0459  B9 021C		     2	       mov cx,540
 045C  BA 0078		     2	       mov dx,120
 045F  03 CF		     2	       add cx,di
 0461  2B D6		     2	       sub dx,si
 0463  CD 10		     2	       int 10h
 0465  B9 021C		     2	       mov cx,540
 0468  BA 0078		     2	       mov dx,120
 046B  2B CF		     2	       sub cx,di
 046D  2B D6		     2	       sub dx,si
 046F  CD 10		     2	       int 10h
 0471			     2	??001A: 
 0471  8D 1E 03EA R	     2		   lea bx,??0015
 0475  FF E3		     2	       jmp bx
 0477			     2	??001B:
 0477  B4 0C		     2	       mov ah,0ch
 0479  A0 0131 R	     2	       mov al,colo
 047C  B7 00		     2	       mov bh,0
 047E  B9 020B		     2	       mov cx,540-17
 0481  BA 0078		     2	       mov dx,120
 0484  CD 10		     2	       int 10h
 0486  B9 022D		     2	       mov cx,540+17
 0489  BA 0078		     2	       mov dx,120
 048C  CD 10		     2	       int 10h
 048E  B9 021C		     2	       mov cx,540
 0491  BA 0067		     2	       mov dx,120-17
 0494  CD 10		     2	       int 10h
 0496  B9 021C		     2	       mov cx,540
 0499  BA 0089		     2	       mov dx,120+17
 049C  CD 10		     2	       int 10h
 049E  5D		     2	       pop bp
 049F  5F		     2	       pop di
 04A0  5E		     2	       pop si
 04A1  5A		     2	       pop dx
 04A2  59		     2	       pop cx
 04A3  5B		     2	       pop bx
 04A4  58		     2	       pop ax
 04A5  50		     2	       push ax
 04A6  53		     2	       push bx
 04A7  51		     2	       push cx
 04A8  52		     2	       push dx
 04A9  56		     2	       push si
 04AA  57		     2	       push di
 04AB  55		     2	       push bp
 04AC  B4 0C		     2	       mov ah,0ch
 04AE  A0 0131 R	     2	       mov al,colo
 04B1  B7 00		     2	       mov bh,0
 04B3  B9 021C		     2	       mov cx,540
 04B6  BA 0078		     2	       mov dx,120
 04B9  BE 0000		     2	       mov si,0         ;X
 04BC  BF 0010		     2	       mov di,16    ;Y
 04BF  BD FFF1		     2	       mov bp,1-16
 04C2			     2	??001C: 
 04C2  3B F7		     2		   cmp si,di
 04C4  7C 06		     2	       jl ??001D
 04C6  8D 1E 054F R	     2	       lea bx,??0022
 04CA  FF E3		     2	       jmp bx
 04CC			     2	??001D:
 04CC  46		     2		   inc si
 04CD			     2	??001E: 
 04CD  83 FD 00		     2	       cmp bp,0
 04D0  7D 09		     2	       jge ??001F
 04D2  03 EE		     2	       add bp,si
 04D4  03 EE		     2	       add bp,si
 04D6  83 C5 01		     2	       add bp,1
 04D9  EB 0C		     2	       jmp ??0020
 04DB			     2	??001F: 
 04DB  4F		     2		   dec di
 04DC  03 EE		     2	       add bp,si
 04DE  03 EE		     2	       add bp,si
 04E0  2B EF		     2	       sub bp,di
 04E2  2B EF		     2	       sub bp,di
 04E4  83 C5 01		     2	       add bp,1
 04E7			     2	??0020: 
 04E7  B7 00		     2		   mov bh,0
 04E9  B9 021C		     2	       mov cx,540
 04EC  BA 0078		     2	       mov dx,120
 04EF  03 CE		     2	       add cx,si
 04F1  03 D7		     2	       add dx,di
 04F3  CD 10		     2	       int 10h
 04F5  B9 021C		     2	       mov cx,540
 04F8  BA 0078		     2	       mov dx,120
 04FB  2B CE		     2	       sub cx,si
 04FD  03 D7		     2	       add dx,di
 04FF  CD 10		     2	       int 10h
 0501  B9 021C		     2	       mov cx,540
 0504  BA 0078		     2	       mov dx,120
 0507  03 CE		     2	       add cx,si
 0509  2B D7		     2	       sub dx,di
 050B  CD 10		     2	       int 10h
 050D  B9 021C		     2	       mov cx,540
 0510  BA 0078		     2	       mov dx,120
 0513  2B CE		     2	       sub cx,si
 0515  2B D7		     2	       sub dx,di
 0517  CD 10		     2	       int 10h
 0519  B9 021C		     2	       mov cx,540
 051C  BA 0078		     2	       mov dx,120
 051F  03 CF		     2	       add cx,di
 0521  03 D6		     2	       add dx,si
 0523  CD 10		     2	       int 10h
 0525  B9 021C		     2	       mov cx,540
 0528  BA 0078		     2	       mov dx,120
 052B  2B CF		     2	       sub cx,di
 052D  03 D6		     2	       add dx,si
 052F  CD 10		     2	       int 10h
 0531  B9 021C		     2	       mov cx,540
 0534  BA 0078		     2	       mov dx,120
 0537  03 CF		     2	       add cx,di
 0539  2B D6		     2	       sub dx,si
 053B  CD 10		     2	       int 10h
 053D  B9 021C		     2	       mov cx,540
 0540  BA 0078		     2	       mov dx,120
 0543  2B CF		     2	       sub cx,di
 0545  2B D6		     2	       sub dx,si
 0547  CD 10		     2	       int 10h
 0549			     2	??0021: 
 0549  8D 1E 04C2 R	     2		   lea bx,??001C
 054D  FF E3		     2	       jmp bx
 054F			     2	??0022:
 054F  B4 0C		     2	       mov ah,0ch
 0551  A0 0131 R	     2	       mov al,colo
 0554  B7 00		     2	       mov bh,0
 0556  B9 020C		     2	       mov cx,540-16
 0559  BA 0078		     2	       mov dx,120
 055C  CD 10		     2	       int 10h
 055E  B9 022C		     2	       mov cx,540+16
 0561  BA 0078		     2	       mov dx,120
 0564  CD 10		     2	       int 10h
 0566  B9 021C		     2	       mov cx,540
 0569  BA 0068		     2	       mov dx,120-16
 056C  CD 10		     2	       int 10h
 056E  B9 021C		     2	       mov cx,540
 0571  BA 0088		     2	       mov dx,120+16
 0574  CD 10		     2	       int 10h
 0576  5D		     2	       pop bp
 0577  5F		     2	       pop di
 0578  5E		     2	       pop si
 0579  5A		     2	       pop dx
 057A  59		     2	       pop cx
 057B  5B		     2	       pop bx
 057C  58		     2	       pop ax
 057D  50		     2	       push ax
 057E  53		     2	       push bx
 057F  51		     2	       push cx
 0580  52		     2	       push dx
 0581  56		     2	       push si
 0582  57		     2	       push di
 0583  55		     2	       push bp
 0584  B4 0C		     2	       mov ah,0ch
 0586  A0 0131 R	     2	       mov al,colo
 0589  B7 00		     2	       mov bh,0
 058B  B9 021C		     2	       mov cx,540
 058E  BA 0078		     2	       mov dx,120
 0591  BE 0000		     2	       mov si,0         ;X
 0594  BF 000F		     2	       mov di,15    ;Y
 0597  BD FFF2		     2	       mov bp,1-15
 059A			     2	??0023: 
 059A  3B F7		     2		   cmp si,di
 059C  7C 06		     2	       jl ??0024
 059E  8D 1E 0627 R	     2	       lea bx,??0029
 05A2  FF E3		     2	       jmp bx
 05A4			     2	??0024:
 05A4  46		     2		   inc si
 05A5			     2	??0025: 
 05A5  83 FD 00		     2	       cmp bp,0
 05A8  7D 09		     2	       jge ??0026
 05AA  03 EE		     2	       add bp,si
 05AC  03 EE		     2	       add bp,si
 05AE  83 C5 01		     2	       add bp,1
 05B1  EB 0C		     2	       jmp ??0027
 05B3			     2	??0026: 
 05B3  4F		     2		   dec di
 05B4  03 EE		     2	       add bp,si
 05B6  03 EE		     2	       add bp,si
 05B8  2B EF		     2	       sub bp,di
 05BA  2B EF		     2	       sub bp,di
 05BC  83 C5 01		     2	       add bp,1
 05BF			     2	??0027: 
 05BF  B7 00		     2		   mov bh,0
 05C1  B9 021C		     2	       mov cx,540
 05C4  BA 0078		     2	       mov dx,120
 05C7  03 CE		     2	       add cx,si
 05C9  03 D7		     2	       add dx,di
 05CB  CD 10		     2	       int 10h
 05CD  B9 021C		     2	       mov cx,540
 05D0  BA 0078		     2	       mov dx,120
 05D3  2B CE		     2	       sub cx,si
 05D5  03 D7		     2	       add dx,di
 05D7  CD 10		     2	       int 10h
 05D9  B9 021C		     2	       mov cx,540
 05DC  BA 0078		     2	       mov dx,120
 05DF  03 CE		     2	       add cx,si
 05E1  2B D7		     2	       sub dx,di
 05E3  CD 10		     2	       int 10h
 05E5  B9 021C		     2	       mov cx,540
 05E8  BA 0078		     2	       mov dx,120
 05EB  2B CE		     2	       sub cx,si
 05ED  2B D7		     2	       sub dx,di
 05EF  CD 10		     2	       int 10h
 05F1  B9 021C		     2	       mov cx,540
 05F4  BA 0078		     2	       mov dx,120
 05F7  03 CF		     2	       add cx,di
 05F9  03 D6		     2	       add dx,si
 05FB  CD 10		     2	       int 10h
 05FD  B9 021C		     2	       mov cx,540
 0600  BA 0078		     2	       mov dx,120
 0603  2B CF		     2	       sub cx,di
 0605  03 D6		     2	       add dx,si
 0607  CD 10		     2	       int 10h
 0609  B9 021C		     2	       mov cx,540
 060C  BA 0078		     2	       mov dx,120
 060F  03 CF		     2	       add cx,di
 0611  2B D6		     2	       sub dx,si
 0613  CD 10		     2	       int 10h
 0615  B9 021C		     2	       mov cx,540
 0618  BA 0078		     2	       mov dx,120
 061B  2B CF		     2	       sub cx,di
 061D  2B D6		     2	       sub dx,si
 061F  CD 10		     2	       int 10h
 0621			     2	??0028: 
 0621  8D 1E 059A R	     2		   lea bx,??0023
 0625  FF E3		     2	       jmp bx
 0627			     2	??0029:
 0627  B4 0C		     2	       mov ah,0ch
 0629  A0 0131 R	     2	       mov al,colo
 062C  B7 00		     2	       mov bh,0
 062E  B9 020D		     2	       mov cx,540-15
 0631  BA 0078		     2	       mov dx,120
 0634  CD 10		     2	       int 10h
 0636  B9 022B		     2	       mov cx,540+15
 0639  BA 0078		     2	       mov dx,120
 063C  CD 10		     2	       int 10h
 063E  B9 021C		     2	       mov cx,540
 0641  BA 0069		     2	       mov dx,120-15
 0644  CD 10		     2	       int 10h
 0646  B9 021C		     2	       mov cx,540
 0649  BA 0087		     2	       mov dx,120+15
 064C  CD 10		     2	       int 10h
 064E  5D		     2	       pop bp
 064F  5F		     2	       pop di
 0650  5E		     2	       pop si
 0651  5A		     2	       pop dx
 0652  59		     2	       pop cx
 0653  5B		     2	       pop bx
 0654  58		     2	       pop ax
 0655  50		     2	       push ax
 0656  53		     2	       push bx
 0657  51		     2	       push cx
 0658  52		     2	       push dx
 0659  56		     2	       push si
 065A  57		     2	       push di
 065B  55		     2	       push bp
 065C  B4 0C		     2	       mov ah,0ch
 065E  A0 0131 R	     2	       mov al,colo
 0661  B7 00		     2	       mov bh,0
 0663  B9 021C		     2	       mov cx,540
 0666  BA 0078		     2	       mov dx,120
 0669  BE 0000		     2	       mov si,0         ;X
 066C  BF 000E		     2	       mov di,14    ;Y
 066F  BD FFF3		     2	       mov bp,1-14
 0672			     2	??002A: 
 0672  3B F7		     2		   cmp si,di
 0674  7C 06		     2	       jl ??002B
 0676  8D 1E 06FF R	     2	       lea bx,??0030
 067A  FF E3		     2	       jmp bx
 067C			     2	??002B:
 067C  46		     2		   inc si
 067D			     2	??002C: 
 067D  83 FD 00		     2	       cmp bp,0
 0680  7D 09		     2	       jge ??002D
 0682  03 EE		     2	       add bp,si
 0684  03 EE		     2	       add bp,si
 0686  83 C5 01		     2	       add bp,1
 0689  EB 0C		     2	       jmp ??002E
 068B			     2	??002D: 
 068B  4F		     2		   dec di
 068C  03 EE		     2	       add bp,si
 068E  03 EE		     2	       add bp,si
 0690  2B EF		     2	       sub bp,di
 0692  2B EF		     2	       sub bp,di
 0694  83 C5 01		     2	       add bp,1
 0697			     2	??002E: 
 0697  B7 00		     2		   mov bh,0
 0699  B9 021C		     2	       mov cx,540
 069C  BA 0078		     2	       mov dx,120
 069F  03 CE		     2	       add cx,si
 06A1  03 D7		     2	       add dx,di
 06A3  CD 10		     2	       int 10h
 06A5  B9 021C		     2	       mov cx,540
 06A8  BA 0078		     2	       mov dx,120
 06AB  2B CE		     2	       sub cx,si
 06AD  03 D7		     2	       add dx,di
 06AF  CD 10		     2	       int 10h
 06B1  B9 021C		     2	       mov cx,540
 06B4  BA 0078		     2	       mov dx,120
 06B7  03 CE		     2	       add cx,si
 06B9  2B D7		     2	       sub dx,di
 06BB  CD 10		     2	       int 10h
 06BD  B9 021C		     2	       mov cx,540
 06C0  BA 0078		     2	       mov dx,120
 06C3  2B CE		     2	       sub cx,si
 06C5  2B D7		     2	       sub dx,di
 06C7  CD 10		     2	       int 10h
 06C9  B9 021C		     2	       mov cx,540
 06CC  BA 0078		     2	       mov dx,120
 06CF  03 CF		     2	       add cx,di
 06D1  03 D6		     2	       add dx,si
 06D3  CD 10		     2	       int 10h
 06D5  B9 021C		     2	       mov cx,540
 06D8  BA 0078		     2	       mov dx,120
 06DB  2B CF		     2	       sub cx,di
 06DD  03 D6		     2	       add dx,si
 06DF  CD 10		     2	       int 10h
 06E1  B9 021C		     2	       mov cx,540
 06E4  BA 0078		     2	       mov dx,120
 06E7  03 CF		     2	       add cx,di
 06E9  2B D6		     2	       sub dx,si
 06EB  CD 10		     2	       int 10h
 06ED  B9 021C		     2	       mov cx,540
 06F0  BA 0078		     2	       mov dx,120
 06F3  2B CF		     2	       sub cx,di
 06F5  2B D6		     2	       sub dx,si
 06F7  CD 10		     2	       int 10h
 06F9			     2	??002F: 
 06F9  8D 1E 0672 R	     2		   lea bx,??002A
 06FD  FF E3		     2	       jmp bx
 06FF			     2	??0030:
 06FF  B4 0C		     2	       mov ah,0ch
 0701  A0 0131 R	     2	       mov al,colo
 0704  B7 00		     2	       mov bh,0
 0706  B9 020E		     2	       mov cx,540-14
 0709  BA 0078		     2	       mov dx,120
 070C  CD 10		     2	       int 10h
 070E  B9 022A		     2	       mov cx,540+14
 0711  BA 0078		     2	       mov dx,120
 0714  CD 10		     2	       int 10h
 0716  B9 021C		     2	       mov cx,540
 0719  BA 006A		     2	       mov dx,120-14
 071C  CD 10		     2	       int 10h
 071E  B9 021C		     2	       mov cx,540
 0721  BA 0086		     2	       mov dx,120+14
 0724  CD 10		     2	       int 10h
 0726  5D		     2	       pop bp
 0727  5F		     2	       pop di
 0728  5E		     2	       pop si
 0729  5A		     2	       pop dx
 072A  59		     2	       pop cx
 072B  5B		     2	       pop bx
 072C  58		     2	       pop ax
 072D  50		     2	       push ax
 072E  53		     2	       push bx
 072F  51		     2	       push cx
 0730  52		     2	       push dx
 0731  56		     2	       push si
 0732  57		     2	       push di
 0733  55		     2	       push bp
 0734  B4 0C		     2	       mov ah,0ch
 0736  A0 0131 R	     2	       mov al,colo
 0739  B7 00		     2	       mov bh,0
 073B  B9 021C		     2	       mov cx,540
 073E  BA 0078		     2	       mov dx,120
 0741  BE 0000		     2	       mov si,0         ;X
 0744  BF 000D		     2	       mov di,13    ;Y
 0747  BD FFF4		     2	       mov bp,1-13
 074A			     2	??0031: 
 074A  3B F7		     2		   cmp si,di
 074C  7C 06		     2	       jl ??0032
 074E  8D 1E 07D7 R	     2	       lea bx,??0037
 0752  FF E3		     2	       jmp bx
 0754			     2	??0032:
 0754  46		     2		   inc si
 0755			     2	??0033: 
 0755  83 FD 00		     2	       cmp bp,0
 0758  7D 09		     2	       jge ??0034
 075A  03 EE		     2	       add bp,si
 075C  03 EE		     2	       add bp,si
 075E  83 C5 01		     2	       add bp,1
 0761  EB 0C		     2	       jmp ??0035
 0763			     2	??0034: 
 0763  4F		     2		   dec di
 0764  03 EE		     2	       add bp,si
 0766  03 EE		     2	       add bp,si
 0768  2B EF		     2	       sub bp,di
 076A  2B EF		     2	       sub bp,di
 076C  83 C5 01		     2	       add bp,1
 076F			     2	??0035: 
 076F  B7 00		     2		   mov bh,0
 0771  B9 021C		     2	       mov cx,540
 0774  BA 0078		     2	       mov dx,120
 0777  03 CE		     2	       add cx,si
 0779  03 D7		     2	       add dx,di
 077B  CD 10		     2	       int 10h
 077D  B9 021C		     2	       mov cx,540
 0780  BA 0078		     2	       mov dx,120
 0783  2B CE		     2	       sub cx,si
 0785  03 D7		     2	       add dx,di
 0787  CD 10		     2	       int 10h
 0789  B9 021C		     2	       mov cx,540
 078C  BA 0078		     2	       mov dx,120
 078F  03 CE		     2	       add cx,si
 0791  2B D7		     2	       sub dx,di
 0793  CD 10		     2	       int 10h
 0795  B9 021C		     2	       mov cx,540
 0798  BA 0078		     2	       mov dx,120
 079B  2B CE		     2	       sub cx,si
 079D  2B D7		     2	       sub dx,di
 079F  CD 10		     2	       int 10h
 07A1  B9 021C		     2	       mov cx,540
 07A4  BA 0078		     2	       mov dx,120
 07A7  03 CF		     2	       add cx,di
 07A9  03 D6		     2	       add dx,si
 07AB  CD 10		     2	       int 10h
 07AD  B9 021C		     2	       mov cx,540
 07B0  BA 0078		     2	       mov dx,120
 07B3  2B CF		     2	       sub cx,di
 07B5  03 D6		     2	       add dx,si
 07B7  CD 10		     2	       int 10h
 07B9  B9 021C		     2	       mov cx,540
 07BC  BA 0078		     2	       mov dx,120
 07BF  03 CF		     2	       add cx,di
 07C1  2B D6		     2	       sub dx,si
 07C3  CD 10		     2	       int 10h
 07C5  B9 021C		     2	       mov cx,540
 07C8  BA 0078		     2	       mov dx,120
 07CB  2B CF		     2	       sub cx,di
 07CD  2B D6		     2	       sub dx,si
 07CF  CD 10		     2	       int 10h
 07D1			     2	??0036: 
 07D1  8D 1E 074A R	     2		   lea bx,??0031
 07D5  FF E3		     2	       jmp bx
 07D7			     2	??0037:
 07D7  B4 0C		     2	       mov ah,0ch
 07D9  A0 0131 R	     2	       mov al,colo
 07DC  B7 00		     2	       mov bh,0
 07DE  B9 020F		     2	       mov cx,540-13
 07E1  BA 0078		     2	       mov dx,120
 07E4  CD 10		     2	       int 10h
 07E6  B9 0229		     2	       mov cx,540+13
 07E9  BA 0078		     2	       mov dx,120
 07EC  CD 10		     2	       int 10h
 07EE  B9 021C		     2	       mov cx,540
 07F1  BA 006B		     2	       mov dx,120-13
 07F4  CD 10		     2	       int 10h
 07F6  B9 021C		     2	       mov cx,540
 07F9  BA 0085		     2	       mov dx,120+13
 07FC  CD 10		     2	       int 10h
 07FE  5D		     2	       pop bp
 07FF  5F		     2	       pop di
 0800  5E		     2	       pop si
 0801  5A		     2	       pop dx
 0802  59		     2	       pop cx
 0803  5B		     2	       pop bx
 0804  58		     2	       pop ax
 0805  50		     2	       push ax
 0806  53		     2	       push bx
 0807  51		     2	       push cx
 0808  52		     2	       push dx
 0809  56		     2	       push si
 080A  57		     2	       push di
 080B  55		     2	       push bp
 080C  B4 0C		     2	       mov ah,0ch
 080E  A0 0131 R	     2	       mov al,colo
 0811  B7 00		     2	       mov bh,0
 0813  B9 021C		     2	       mov cx,540
 0816  BA 0078		     2	       mov dx,120
 0819  BE 0000		     2	       mov si,0         ;X
 081C  BF 000C		     2	       mov di,12    ;Y
 081F  BD FFF5		     2	       mov bp,1-12
 0822			     2	??0038: 
 0822  3B F7		     2		   cmp si,di
 0824  7C 06		     2	       jl ??0039
 0826  8D 1E 08AF R	     2	       lea bx,??003E
 082A  FF E3		     2	       jmp bx
 082C			     2	??0039:
 082C  46		     2		   inc si
 082D			     2	??003A: 
 082D  83 FD 00		     2	       cmp bp,0
 0830  7D 09		     2	       jge ??003B
 0832  03 EE		     2	       add bp,si
 0834  03 EE		     2	       add bp,si
 0836  83 C5 01		     2	       add bp,1
 0839  EB 0C		     2	       jmp ??003C
 083B			     2	??003B: 
 083B  4F		     2		   dec di
 083C  03 EE		     2	       add bp,si
 083E  03 EE		     2	       add bp,si
 0840  2B EF		     2	       sub bp,di
 0842  2B EF		     2	       sub bp,di
 0844  83 C5 01		     2	       add bp,1
 0847			     2	??003C: 
 0847  B7 00		     2		   mov bh,0
 0849  B9 021C		     2	       mov cx,540
 084C  BA 0078		     2	       mov dx,120
 084F  03 CE		     2	       add cx,si
 0851  03 D7		     2	       add dx,di
 0853  CD 10		     2	       int 10h
 0855  B9 021C		     2	       mov cx,540
 0858  BA 0078		     2	       mov dx,120
 085B  2B CE		     2	       sub cx,si
 085D  03 D7		     2	       add dx,di
 085F  CD 10		     2	       int 10h
 0861  B9 021C		     2	       mov cx,540
 0864  BA 0078		     2	       mov dx,120
 0867  03 CE		     2	       add cx,si
 0869  2B D7		     2	       sub dx,di
 086B  CD 10		     2	       int 10h
 086D  B9 021C		     2	       mov cx,540
 0870  BA 0078		     2	       mov dx,120
 0873  2B CE		     2	       sub cx,si
 0875  2B D7		     2	       sub dx,di
 0877  CD 10		     2	       int 10h
 0879  B9 021C		     2	       mov cx,540
 087C  BA 0078		     2	       mov dx,120
 087F  03 CF		     2	       add cx,di
 0881  03 D6		     2	       add dx,si
 0883  CD 10		     2	       int 10h
 0885  B9 021C		     2	       mov cx,540
 0888  BA 0078		     2	       mov dx,120
 088B  2B CF		     2	       sub cx,di
 088D  03 D6		     2	       add dx,si
 088F  CD 10		     2	       int 10h
 0891  B9 021C		     2	       mov cx,540
 0894  BA 0078		     2	       mov dx,120
 0897  03 CF		     2	       add cx,di
 0899  2B D6		     2	       sub dx,si
 089B  CD 10		     2	       int 10h
 089D  B9 021C		     2	       mov cx,540
 08A0  BA 0078		     2	       mov dx,120
 08A3  2B CF		     2	       sub cx,di
 08A5  2B D6		     2	       sub dx,si
 08A7  CD 10		     2	       int 10h
 08A9			     2	??003D: 
 08A9  8D 1E 0822 R	     2		   lea bx,??0038
 08AD  FF E3		     2	       jmp bx
 08AF			     2	??003E:
 08AF  B4 0C		     2	       mov ah,0ch
 08B1  A0 0131 R	     2	       mov al,colo
 08B4  B7 00		     2	       mov bh,0
 08B6  B9 0210		     2	       mov cx,540-12
 08B9  BA 0078		     2	       mov dx,120
 08BC  CD 10		     2	       int 10h
 08BE  B9 0228		     2	       mov cx,540+12
 08C1  BA 0078		     2	       mov dx,120
 08C4  CD 10		     2	       int 10h
 08C6  B9 021C		     2	       mov cx,540
 08C9  BA 006C		     2	       mov dx,120-12
 08CC  CD 10		     2	       int 10h
 08CE  B9 021C		     2	       mov cx,540
 08D1  BA 0084		     2	       mov dx,120+12
 08D4  CD 10		     2	       int 10h
 08D6  5D		     2	       pop bp
 08D7  5F		     2	       pop di
 08D8  5E		     2	       pop si
 08D9  5A		     2	       pop dx
 08DA  59		     2	       pop cx
 08DB  5B		     2	       pop bx
 08DC  58		     2	       pop ax
 08DD  50		     2	       push ax
 08DE  53		     2	       push bx
 08DF  51		     2	       push cx
 08E0  52		     2	       push dx
 08E1  56		     2	       push si
 08E2  57		     2	       push di
 08E3  55		     2	       push bp
 08E4  B4 0C		     2	       mov ah,0ch
 08E6  A0 0131 R	     2	       mov al,colo
 08E9  B7 00		     2	       mov bh,0
 08EB  B9 021C		     2	       mov cx,540
 08EE  BA 0078		     2	       mov dx,120
 08F1  BE 0000		     2	       mov si,0         ;X
 08F4  BF 000B		     2	       mov di,11    ;Y
 08F7  BD FFF6		     2	       mov bp,1-11
 08FA			     2	??003F: 
 08FA  3B F7		     2		   cmp si,di
 08FC  7C 06		     2	       jl ??0040
 08FE  8D 1E 0987 R	     2	       lea bx,??0045
 0902  FF E3		     2	       jmp bx
 0904			     2	??0040:
 0904  46		     2		   inc si
 0905			     2	??0041: 
 0905  83 FD 00		     2	       cmp bp,0
 0908  7D 09		     2	       jge ??0042
 090A  03 EE		     2	       add bp,si
 090C  03 EE		     2	       add bp,si
 090E  83 C5 01		     2	       add bp,1
 0911  EB 0C		     2	       jmp ??0043
 0913			     2	??0042: 
 0913  4F		     2		   dec di
 0914  03 EE		     2	       add bp,si
 0916  03 EE		     2	       add bp,si
 0918  2B EF		     2	       sub bp,di
 091A  2B EF		     2	       sub bp,di
 091C  83 C5 01		     2	       add bp,1
 091F			     2	??0043: 
 091F  B7 00		     2		   mov bh,0
 0921  B9 021C		     2	       mov cx,540
 0924  BA 0078		     2	       mov dx,120
 0927  03 CE		     2	       add cx,si
 0929  03 D7		     2	       add dx,di
 092B  CD 10		     2	       int 10h
 092D  B9 021C		     2	       mov cx,540
 0930  BA 0078		     2	       mov dx,120
 0933  2B CE		     2	       sub cx,si
 0935  03 D7		     2	       add dx,di
 0937  CD 10		     2	       int 10h
 0939  B9 021C		     2	       mov cx,540
 093C  BA 0078		     2	       mov dx,120
 093F  03 CE		     2	       add cx,si
 0941  2B D7		     2	       sub dx,di
 0943  CD 10		     2	       int 10h
 0945  B9 021C		     2	       mov cx,540
 0948  BA 0078		     2	       mov dx,120
 094B  2B CE		     2	       sub cx,si
 094D  2B D7		     2	       sub dx,di
 094F  CD 10		     2	       int 10h
 0951  B9 021C		     2	       mov cx,540
 0954  BA 0078		     2	       mov dx,120
 0957  03 CF		     2	       add cx,di
 0959  03 D6		     2	       add dx,si
 095B  CD 10		     2	       int 10h
 095D  B9 021C		     2	       mov cx,540
 0960  BA 0078		     2	       mov dx,120
 0963  2B CF		     2	       sub cx,di
 0965  03 D6		     2	       add dx,si
 0967  CD 10		     2	       int 10h
 0969  B9 021C		     2	       mov cx,540
 096C  BA 0078		     2	       mov dx,120
 096F  03 CF		     2	       add cx,di
 0971  2B D6		     2	       sub dx,si
 0973  CD 10		     2	       int 10h
 0975  B9 021C		     2	       mov cx,540
 0978  BA 0078		     2	       mov dx,120
 097B  2B CF		     2	       sub cx,di
 097D  2B D6		     2	       sub dx,si
 097F  CD 10		     2	       int 10h
 0981			     2	??0044: 
 0981  8D 1E 08FA R	     2		   lea bx,??003F
 0985  FF E3		     2	       jmp bx
 0987			     2	??0045:
 0987  B4 0C		     2	       mov ah,0ch
 0989  A0 0131 R	     2	       mov al,colo
 098C  B7 00		     2	       mov bh,0
 098E  B9 0211		     2	       mov cx,540-11
 0991  BA 0078		     2	       mov dx,120
 0994  CD 10		     2	       int 10h
 0996  B9 0227		     2	       mov cx,540+11
 0999  BA 0078		     2	       mov dx,120
 099C  CD 10		     2	       int 10h
 099E  B9 021C		     2	       mov cx,540
 09A1  BA 006D		     2	       mov dx,120-11
 09A4  CD 10		     2	       int 10h
 09A6  B9 021C		     2	       mov cx,540
 09A9  BA 0083		     2	       mov dx,120+11
 09AC  CD 10		     2	       int 10h
 09AE  5D		     2	       pop bp
 09AF  5F		     2	       pop di
 09B0  5E		     2	       pop si
 09B1  5A		     2	       pop dx
 09B2  59		     2	       pop cx
 09B3  5B		     2	       pop bx
 09B4  58		     2	       pop ax
 09B5  50		     2	       push ax
 09B6  53		     2	       push bx
 09B7  51		     2	       push cx
 09B8  52		     2	       push dx
 09B9  56		     2	       push si
 09BA  57		     2	       push di
 09BB  55		     2	       push bp
 09BC  B4 0C		     2	       mov ah,0ch
 09BE  A0 0131 R	     2	       mov al,colo
 09C1  B7 00		     2	       mov bh,0
 09C3  B9 021C		     2	       mov cx,540
 09C6  BA 0078		     2	       mov dx,120
 09C9  BE 0000		     2	       mov si,0         ;X
 09CC  BF 000A		     2	       mov di,10    ;Y
 09CF  BD FFF7		     2	       mov bp,1-10
 09D2			     2	??0046: 
 09D2  3B F7		     2		   cmp si,di
 09D4  7C 06		     2	       jl ??0047
 09D6  8D 1E 0A5F R	     2	       lea bx,??004C
 09DA  FF E3		     2	       jmp bx
 09DC			     2	??0047:
 09DC  46		     2		   inc si
 09DD			     2	??0048: 
 09DD  83 FD 00		     2	       cmp bp,0
 09E0  7D 09		     2	       jge ??0049
 09E2  03 EE		     2	       add bp,si
 09E4  03 EE		     2	       add bp,si
 09E6  83 C5 01		     2	       add bp,1
 09E9  EB 0C		     2	       jmp ??004A
 09EB			     2	??0049: 
 09EB  4F		     2		   dec di
 09EC  03 EE		     2	       add bp,si
 09EE  03 EE		     2	       add bp,si
 09F0  2B EF		     2	       sub bp,di
 09F2  2B EF		     2	       sub bp,di
 09F4  83 C5 01		     2	       add bp,1
 09F7			     2	??004A: 
 09F7  B7 00		     2		   mov bh,0
 09F9  B9 021C		     2	       mov cx,540
 09FC  BA 0078		     2	       mov dx,120
 09FF  03 CE		     2	       add cx,si
 0A01  03 D7		     2	       add dx,di
 0A03  CD 10		     2	       int 10h
 0A05  B9 021C		     2	       mov cx,540
 0A08  BA 0078		     2	       mov dx,120
 0A0B  2B CE		     2	       sub cx,si
 0A0D  03 D7		     2	       add dx,di
 0A0F  CD 10		     2	       int 10h
 0A11  B9 021C		     2	       mov cx,540
 0A14  BA 0078		     2	       mov dx,120
 0A17  03 CE		     2	       add cx,si
 0A19  2B D7		     2	       sub dx,di
 0A1B  CD 10		     2	       int 10h
 0A1D  B9 021C		     2	       mov cx,540
 0A20  BA 0078		     2	       mov dx,120
 0A23  2B CE		     2	       sub cx,si
 0A25  2B D7		     2	       sub dx,di
 0A27  CD 10		     2	       int 10h
 0A29  B9 021C		     2	       mov cx,540
 0A2C  BA 0078		     2	       mov dx,120
 0A2F  03 CF		     2	       add cx,di
 0A31  03 D6		     2	       add dx,si
 0A33  CD 10		     2	       int 10h
 0A35  B9 021C		     2	       mov cx,540
 0A38  BA 0078		     2	       mov dx,120
 0A3B  2B CF		     2	       sub cx,di
 0A3D  03 D6		     2	       add dx,si
 0A3F  CD 10		     2	       int 10h
 0A41  B9 021C		     2	       mov cx,540
 0A44  BA 0078		     2	       mov dx,120
 0A47  03 CF		     2	       add cx,di
 0A49  2B D6		     2	       sub dx,si
 0A4B  CD 10		     2	       int 10h
 0A4D  B9 021C		     2	       mov cx,540
 0A50  BA 0078		     2	       mov dx,120
 0A53  2B CF		     2	       sub cx,di
 0A55  2B D6		     2	       sub dx,si
 0A57  CD 10		     2	       int 10h
 0A59			     2	??004B: 
 0A59  8D 1E 09D2 R	     2		   lea bx,??0046
 0A5D  FF E3		     2	       jmp bx
 0A5F			     2	??004C:
 0A5F  B4 0C		     2	       mov ah,0ch
 0A61  A0 0131 R	     2	       mov al,colo
 0A64  B7 00		     2	       mov bh,0
 0A66  B9 0212		     2	       mov cx,540-10
 0A69  BA 0078		     2	       mov dx,120
 0A6C  CD 10		     2	       int 10h
 0A6E  B9 0226		     2	       mov cx,540+10
 0A71  BA 0078		     2	       mov dx,120
 0A74  CD 10		     2	       int 10h
 0A76  B9 021C		     2	       mov cx,540
 0A79  BA 006E		     2	       mov dx,120-10
 0A7C  CD 10		     2	       int 10h
 0A7E  B9 021C		     2	       mov cx,540
 0A81  BA 0082		     2	       mov dx,120+10
 0A84  CD 10		     2	       int 10h
 0A86  5D		     2	       pop bp
 0A87  5F		     2	       pop di
 0A88  5E		     2	       pop si
 0A89  5A		     2	       pop dx
 0A8A  59		     2	       pop cx
 0A8B  5B		     2	       pop bx
 0A8C  58		     2	       pop ax
 0A8D  50		     2	       push ax
 0A8E  53		     2	       push bx
 0A8F  51		     2	       push cx
 0A90  52		     2	       push dx
 0A91  56		     2	       push si
 0A92  57		     2	       push di
 0A93  55		     2	       push bp
 0A94  B4 0C		     2	       mov ah,0ch
 0A96  A0 0131 R	     2	       mov al,colo
 0A99  B7 00		     2	       mov bh,0
 0A9B  B9 021C		     2	       mov cx,540
 0A9E  BA 0078		     2	       mov dx,120
 0AA1  BE 0000		     2	       mov si,0         ;X
 0AA4  BF 0009		     2	       mov di,09    ;Y
 0AA7  BD FFF8		     2	       mov bp,1-09
 0AAA			     2	??004D: 
 0AAA  3B F7		     2		   cmp si,di
 0AAC  7C 06		     2	       jl ??004E
 0AAE  8D 1E 0B37 R	     2	       lea bx,??0053
 0AB2  FF E3		     2	       jmp bx
 0AB4			     2	??004E:
 0AB4  46		     2		   inc si
 0AB5			     2	??004F: 
 0AB5  83 FD 00		     2	       cmp bp,0
 0AB8  7D 09		     2	       jge ??0050
 0ABA  03 EE		     2	       add bp,si
 0ABC  03 EE		     2	       add bp,si
 0ABE  83 C5 01		     2	       add bp,1
 0AC1  EB 0C		     2	       jmp ??0051
 0AC3			     2	??0050: 
 0AC3  4F		     2		   dec di
 0AC4  03 EE		     2	       add bp,si
 0AC6  03 EE		     2	       add bp,si
 0AC8  2B EF		     2	       sub bp,di
 0ACA  2B EF		     2	       sub bp,di
 0ACC  83 C5 01		     2	       add bp,1
 0ACF			     2	??0051: 
 0ACF  B7 00		     2		   mov bh,0
 0AD1  B9 021C		     2	       mov cx,540
 0AD4  BA 0078		     2	       mov dx,120
 0AD7  03 CE		     2	       add cx,si
 0AD9  03 D7		     2	       add dx,di
 0ADB  CD 10		     2	       int 10h
 0ADD  B9 021C		     2	       mov cx,540
 0AE0  BA 0078		     2	       mov dx,120
 0AE3  2B CE		     2	       sub cx,si
 0AE5  03 D7		     2	       add dx,di
 0AE7  CD 10		     2	       int 10h
 0AE9  B9 021C		     2	       mov cx,540
 0AEC  BA 0078		     2	       mov dx,120
 0AEF  03 CE		     2	       add cx,si
 0AF1  2B D7		     2	       sub dx,di
 0AF3  CD 10		     2	       int 10h
 0AF5  B9 021C		     2	       mov cx,540
 0AF8  BA 0078		     2	       mov dx,120
 0AFB  2B CE		     2	       sub cx,si
 0AFD  2B D7		     2	       sub dx,di
 0AFF  CD 10		     2	       int 10h
 0B01  B9 021C		     2	       mov cx,540
 0B04  BA 0078		     2	       mov dx,120
 0B07  03 CF		     2	       add cx,di
 0B09  03 D6		     2	       add dx,si
 0B0B  CD 10		     2	       int 10h
 0B0D  B9 021C		     2	       mov cx,540
 0B10  BA 0078		     2	       mov dx,120
 0B13  2B CF		     2	       sub cx,di
 0B15  03 D6		     2	       add dx,si
 0B17  CD 10		     2	       int 10h
 0B19  B9 021C		     2	       mov cx,540
 0B1C  BA 0078		     2	       mov dx,120
 0B1F  03 CF		     2	       add cx,di
 0B21  2B D6		     2	       sub dx,si
 0B23  CD 10		     2	       int 10h
 0B25  B9 021C		     2	       mov cx,540
 0B28  BA 0078		     2	       mov dx,120
 0B2B  2B CF		     2	       sub cx,di
 0B2D  2B D6		     2	       sub dx,si
 0B2F  CD 10		     2	       int 10h
 0B31			     2	??0052: 
 0B31  8D 1E 0AAA R	     2		   lea bx,??004D
 0B35  FF E3		     2	       jmp bx
 0B37			     2	??0053:
 0B37  B4 0C		     2	       mov ah,0ch
 0B39  A0 0131 R	     2	       mov al,colo
 0B3C  B7 00		     2	       mov bh,0
 0B3E  B9 0213		     2	       mov cx,540-09
 0B41  BA 0078		     2	       mov dx,120
 0B44  CD 10		     2	       int 10h
 0B46  B9 0225		     2	       mov cx,540+09
 0B49  BA 0078		     2	       mov dx,120
 0B4C  CD 10		     2	       int 10h
 0B4E  B9 021C		     2	       mov cx,540
 0B51  BA 006F		     2	       mov dx,120-09
 0B54  CD 10		     2	       int 10h
 0B56  B9 021C		     2	       mov cx,540
 0B59  BA 0081		     2	       mov dx,120+09
 0B5C  CD 10		     2	       int 10h
 0B5E  5D		     2	       pop bp
 0B5F  5F		     2	       pop di
 0B60  5E		     2	       pop si
 0B61  5A		     2	       pop dx
 0B62  59		     2	       pop cx
 0B63  5B		     2	       pop bx
 0B64  58		     2	       pop ax
 0B65  50		     2	       push ax
 0B66  53		     2	       push bx
 0B67  51		     2	       push cx
 0B68  52		     2	       push dx
 0B69  56		     2	       push si
 0B6A  57		     2	       push di
 0B6B  55		     2	       push bp
 0B6C  B4 0C		     2	       mov ah,0ch
 0B6E  A0 0131 R	     2	       mov al,colo
 0B71  B7 00		     2	       mov bh,0
 0B73  B9 021C		     2	       mov cx,540
 0B76  BA 0078		     2	       mov dx,120
 0B79  BE 0000		     2	       mov si,0         ;X
 0B7C  BF 0008		     2	       mov di,08    ;Y
 0B7F  BD FFF9		     2	       mov bp,1-08
 0B82			     2	??0054: 
 0B82  3B F7		     2		   cmp si,di
 0B84  7C 06		     2	       jl ??0055
 0B86  8D 1E 0C0F R	     2	       lea bx,??005A
 0B8A  FF E3		     2	       jmp bx
 0B8C			     2	??0055:
 0B8C  46		     2		   inc si
 0B8D			     2	??0056: 
 0B8D  83 FD 00		     2	       cmp bp,0
 0B90  7D 09		     2	       jge ??0057
 0B92  03 EE		     2	       add bp,si
 0B94  03 EE		     2	       add bp,si
 0B96  83 C5 01		     2	       add bp,1
 0B99  EB 0C		     2	       jmp ??0058
 0B9B			     2	??0057: 
 0B9B  4F		     2		   dec di
 0B9C  03 EE		     2	       add bp,si
 0B9E  03 EE		     2	       add bp,si
 0BA0  2B EF		     2	       sub bp,di
 0BA2  2B EF		     2	       sub bp,di
 0BA4  83 C5 01		     2	       add bp,1
 0BA7			     2	??0058: 
 0BA7  B7 00		     2		   mov bh,0
 0BA9  B9 021C		     2	       mov cx,540
 0BAC  BA 0078		     2	       mov dx,120
 0BAF  03 CE		     2	       add cx,si
 0BB1  03 D7		     2	       add dx,di
 0BB3  CD 10		     2	       int 10h
 0BB5  B9 021C		     2	       mov cx,540
 0BB8  BA 0078		     2	       mov dx,120
 0BBB  2B CE		     2	       sub cx,si
 0BBD  03 D7		     2	       add dx,di
 0BBF  CD 10		     2	       int 10h
 0BC1  B9 021C		     2	       mov cx,540
 0BC4  BA 0078		     2	       mov dx,120
 0BC7  03 CE		     2	       add cx,si
 0BC9  2B D7		     2	       sub dx,di
 0BCB  CD 10		     2	       int 10h
 0BCD  B9 021C		     2	       mov cx,540
 0BD0  BA 0078		     2	       mov dx,120
 0BD3  2B CE		     2	       sub cx,si
 0BD5  2B D7		     2	       sub dx,di
 0BD7  CD 10		     2	       int 10h
 0BD9  B9 021C		     2	       mov cx,540
 0BDC  BA 0078		     2	       mov dx,120
 0BDF  03 CF		     2	       add cx,di
 0BE1  03 D6		     2	       add dx,si
 0BE3  CD 10		     2	       int 10h
 0BE5  B9 021C		     2	       mov cx,540
 0BE8  BA 0078		     2	       mov dx,120
 0BEB  2B CF		     2	       sub cx,di
 0BED  03 D6		     2	       add dx,si
 0BEF  CD 10		     2	       int 10h
 0BF1  B9 021C		     2	       mov cx,540
 0BF4  BA 0078		     2	       mov dx,120
 0BF7  03 CF		     2	       add cx,di
 0BF9  2B D6		     2	       sub dx,si
 0BFB  CD 10		     2	       int 10h
 0BFD  B9 021C		     2	       mov cx,540
 0C00  BA 0078		     2	       mov dx,120
 0C03  2B CF		     2	       sub cx,di
 0C05  2B D6		     2	       sub dx,si
 0C07  CD 10		     2	       int 10h
 0C09			     2	??0059: 
 0C09  8D 1E 0B82 R	     2		   lea bx,??0054
 0C0D  FF E3		     2	       jmp bx
 0C0F			     2	??005A:
 0C0F  B4 0C		     2	       mov ah,0ch
 0C11  A0 0131 R	     2	       mov al,colo
 0C14  B7 00		     2	       mov bh,0
 0C16  B9 0214		     2	       mov cx,540-08
 0C19  BA 0078		     2	       mov dx,120
 0C1C  CD 10		     2	       int 10h
 0C1E  B9 0224		     2	       mov cx,540+08
 0C21  BA 0078		     2	       mov dx,120
 0C24  CD 10		     2	       int 10h
 0C26  B9 021C		     2	       mov cx,540
 0C29  BA 0070		     2	       mov dx,120-08
 0C2C  CD 10		     2	       int 10h
 0C2E  B9 021C		     2	       mov cx,540
 0C31  BA 0080		     2	       mov dx,120+08
 0C34  CD 10		     2	       int 10h
 0C36  5D		     2	       pop bp
 0C37  5F		     2	       pop di
 0C38  5E		     2	       pop si
 0C39  5A		     2	       pop dx
 0C3A  59		     2	       pop cx
 0C3B  5B		     2	       pop bx
 0C3C  58		     2	       pop ax
 0C3D  50		     2	       push ax
 0C3E  53		     2	       push bx
 0C3F  51		     2	       push cx
 0C40  52		     2	       push dx
 0C41  56		     2	       push si
 0C42  57		     2	       push di
 0C43  55		     2	       push bp
 0C44  B4 0C		     2	       mov ah,0ch
 0C46  A0 0131 R	     2	       mov al,colo
 0C49  B7 00		     2	       mov bh,0
 0C4B  B9 021C		     2	       mov cx,540
 0C4E  BA 0078		     2	       mov dx,120
 0C51  BE 0000		     2	       mov si,0         ;X
 0C54  BF 0007		     2	       mov di,07    ;Y
 0C57  BD FFFA		     2	       mov bp,1-07
 0C5A			     2	??005B: 
 0C5A  3B F7		     2		   cmp si,di
 0C5C  7C 06		     2	       jl ??005C
 0C5E  8D 1E 0CE7 R	     2	       lea bx,??0061
 0C62  FF E3		     2	       jmp bx
 0C64			     2	??005C:
 0C64  46		     2		   inc si
 0C65			     2	??005D: 
 0C65  83 FD 00		     2	       cmp bp,0
 0C68  7D 09		     2	       jge ??005E
 0C6A  03 EE		     2	       add bp,si
 0C6C  03 EE		     2	       add bp,si
 0C6E  83 C5 01		     2	       add bp,1
 0C71  EB 0C		     2	       jmp ??005F
 0C73			     2	??005E: 
 0C73  4F		     2		   dec di
 0C74  03 EE		     2	       add bp,si
 0C76  03 EE		     2	       add bp,si
 0C78  2B EF		     2	       sub bp,di
 0C7A  2B EF		     2	       sub bp,di
 0C7C  83 C5 01		     2	       add bp,1
 0C7F			     2	??005F: 
 0C7F  B7 00		     2		   mov bh,0
 0C81  B9 021C		     2	       mov cx,540
 0C84  BA 0078		     2	       mov dx,120
 0C87  03 CE		     2	       add cx,si
 0C89  03 D7		     2	       add dx,di
 0C8B  CD 10		     2	       int 10h
 0C8D  B9 021C		     2	       mov cx,540
 0C90  BA 0078		     2	       mov dx,120
 0C93  2B CE		     2	       sub cx,si
 0C95  03 D7		     2	       add dx,di
 0C97  CD 10		     2	       int 10h
 0C99  B9 021C		     2	       mov cx,540
 0C9C  BA 0078		     2	       mov dx,120
 0C9F  03 CE		     2	       add cx,si
 0CA1  2B D7		     2	       sub dx,di
 0CA3  CD 10		     2	       int 10h
 0CA5  B9 021C		     2	       mov cx,540
 0CA8  BA 0078		     2	       mov dx,120
 0CAB  2B CE		     2	       sub cx,si
 0CAD  2B D7		     2	       sub dx,di
 0CAF  CD 10		     2	       int 10h
 0CB1  B9 021C		     2	       mov cx,540
 0CB4  BA 0078		     2	       mov dx,120
 0CB7  03 CF		     2	       add cx,di
 0CB9  03 D6		     2	       add dx,si
 0CBB  CD 10		     2	       int 10h
 0CBD  B9 021C		     2	       mov cx,540
 0CC0  BA 0078		     2	       mov dx,120
 0CC3  2B CF		     2	       sub cx,di
 0CC5  03 D6		     2	       add dx,si
 0CC7  CD 10		     2	       int 10h
 0CC9  B9 021C		     2	       mov cx,540
 0CCC  BA 0078		     2	       mov dx,120
 0CCF  03 CF		     2	       add cx,di
 0CD1  2B D6		     2	       sub dx,si
 0CD3  CD 10		     2	       int 10h
 0CD5  B9 021C		     2	       mov cx,540
 0CD8  BA 0078		     2	       mov dx,120
 0CDB  2B CF		     2	       sub cx,di
 0CDD  2B D6		     2	       sub dx,si
 0CDF  CD 10		     2	       int 10h
 0CE1			     2	??0060: 
 0CE1  8D 1E 0C5A R	     2		   lea bx,??005B
 0CE5  FF E3		     2	       jmp bx
 0CE7			     2	??0061:
 0CE7  B4 0C		     2	       mov ah,0ch
 0CE9  A0 0131 R	     2	       mov al,colo
 0CEC  B7 00		     2	       mov bh,0
 0CEE  B9 0215		     2	       mov cx,540-07
 0CF1  BA 0078		     2	       mov dx,120
 0CF4  CD 10		     2	       int 10h
 0CF6  B9 0223		     2	       mov cx,540+07
 0CF9  BA 0078		     2	       mov dx,120
 0CFC  CD 10		     2	       int 10h
 0CFE  B9 021C		     2	       mov cx,540
 0D01  BA 0071		     2	       mov dx,120-07
 0D04  CD 10		     2	       int 10h
 0D06  B9 021C		     2	       mov cx,540
 0D09  BA 007F		     2	       mov dx,120+07
 0D0C  CD 10		     2	       int 10h
 0D0E  5D		     2	       pop bp
 0D0F  5F		     2	       pop di
 0D10  5E		     2	       pop si
 0D11  5A		     2	       pop dx
 0D12  59		     2	       pop cx
 0D13  5B		     2	       pop bx
 0D14  58		     2	       pop ax
 0D15  50		     2	       push ax
 0D16  53		     2	       push bx
 0D17  51		     2	       push cx
 0D18  52		     2	       push dx
 0D19  56		     2	       push si
 0D1A  57		     2	       push di
 0D1B  55		     2	       push bp
 0D1C  B4 0C		     2	       mov ah,0ch
 0D1E  A0 0131 R	     2	       mov al,colo
 0D21  B7 00		     2	       mov bh,0
 0D23  B9 021C		     2	       mov cx,540
 0D26  BA 0078		     2	       mov dx,120
 0D29  BE 0000		     2	       mov si,0         ;X
 0D2C  BF 0006		     2	       mov di,06    ;Y
 0D2F  BD FFFB		     2	       mov bp,1-06
 0D32			     2	??0062: 
 0D32  3B F7		     2		   cmp si,di
 0D34  7C 06		     2	       jl ??0063
 0D36  8D 1E 0DBF R	     2	       lea bx,??0068
 0D3A  FF E3		     2	       jmp bx
 0D3C			     2	??0063:
 0D3C  46		     2		   inc si
 0D3D			     2	??0064: 
 0D3D  83 FD 00		     2	       cmp bp,0
 0D40  7D 09		     2	       jge ??0065
 0D42  03 EE		     2	       add bp,si
 0D44  03 EE		     2	       add bp,si
 0D46  83 C5 01		     2	       add bp,1
 0D49  EB 0C		     2	       jmp ??0066
 0D4B			     2	??0065: 
 0D4B  4F		     2		   dec di
 0D4C  03 EE		     2	       add bp,si
 0D4E  03 EE		     2	       add bp,si
 0D50  2B EF		     2	       sub bp,di
 0D52  2B EF		     2	       sub bp,di
 0D54  83 C5 01		     2	       add bp,1
 0D57			     2	??0066: 
 0D57  B7 00		     2		   mov bh,0
 0D59  B9 021C		     2	       mov cx,540
 0D5C  BA 0078		     2	       mov dx,120
 0D5F  03 CE		     2	       add cx,si
 0D61  03 D7		     2	       add dx,di
 0D63  CD 10		     2	       int 10h
 0D65  B9 021C		     2	       mov cx,540
 0D68  BA 0078		     2	       mov dx,120
 0D6B  2B CE		     2	       sub cx,si
 0D6D  03 D7		     2	       add dx,di
 0D6F  CD 10		     2	       int 10h
 0D71  B9 021C		     2	       mov cx,540
 0D74  BA 0078		     2	       mov dx,120
 0D77  03 CE		     2	       add cx,si
 0D79  2B D7		     2	       sub dx,di
 0D7B  CD 10		     2	       int 10h
 0D7D  B9 021C		     2	       mov cx,540
 0D80  BA 0078		     2	       mov dx,120
 0D83  2B CE		     2	       sub cx,si
 0D85  2B D7		     2	       sub dx,di
 0D87  CD 10		     2	       int 10h
 0D89  B9 021C		     2	       mov cx,540
 0D8C  BA 0078		     2	       mov dx,120
 0D8F  03 CF		     2	       add cx,di
 0D91  03 D6		     2	       add dx,si
 0D93  CD 10		     2	       int 10h
 0D95  B9 021C		     2	       mov cx,540
 0D98  BA 0078		     2	       mov dx,120
 0D9B  2B CF		     2	       sub cx,di
 0D9D  03 D6		     2	       add dx,si
 0D9F  CD 10		     2	       int 10h
 0DA1  B9 021C		     2	       mov cx,540
 0DA4  BA 0078		     2	       mov dx,120
 0DA7  03 CF		     2	       add cx,di
 0DA9  2B D6		     2	       sub dx,si
 0DAB  CD 10		     2	       int 10h
 0DAD  B9 021C		     2	       mov cx,540
 0DB0  BA 0078		     2	       mov dx,120
 0DB3  2B CF		     2	       sub cx,di
 0DB5  2B D6		     2	       sub dx,si
 0DB7  CD 10		     2	       int 10h
 0DB9			     2	??0067: 
 0DB9  8D 1E 0D32 R	     2		   lea bx,??0062
 0DBD  FF E3		     2	       jmp bx
 0DBF			     2	??0068:
 0DBF  B4 0C		     2	       mov ah,0ch
 0DC1  A0 0131 R	     2	       mov al,colo
 0DC4  B7 00		     2	       mov bh,0
 0DC6  B9 0216		     2	       mov cx,540-06
 0DC9  BA 0078		     2	       mov dx,120
 0DCC  CD 10		     2	       int 10h
 0DCE  B9 0222		     2	       mov cx,540+06
 0DD1  BA 0078		     2	       mov dx,120
 0DD4  CD 10		     2	       int 10h
 0DD6  B9 021C		     2	       mov cx,540
 0DD9  BA 0072		     2	       mov dx,120-06
 0DDC  CD 10		     2	       int 10h
 0DDE  B9 021C		     2	       mov cx,540
 0DE1  BA 007E		     2	       mov dx,120+06
 0DE4  CD 10		     2	       int 10h
 0DE6  5D		     2	       pop bp
 0DE7  5F		     2	       pop di
 0DE8  5E		     2	       pop si
 0DE9  5A		     2	       pop dx
 0DEA  59		     2	       pop cx
 0DEB  5B		     2	       pop bx
 0DEC  58		     2	       pop ax
 0DED  50		     2	       push ax
 0DEE  53		     2	       push bx
 0DEF  51		     2	       push cx
 0DF0  52		     2	       push dx
 0DF1  56		     2	       push si
 0DF2  57		     2	       push di
 0DF3  55		     2	       push bp
 0DF4  B4 0C		     2	       mov ah,0ch
 0DF6  A0 0131 R	     2	       mov al,colo
 0DF9  B7 00		     2	       mov bh,0
 0DFB  B9 021C		     2	       mov cx,540
 0DFE  BA 0078		     2	       mov dx,120
 0E01  BE 0000		     2	       mov si,0         ;X
 0E04  BF 0005		     2	       mov di,05    ;Y
 0E07  BD FFFC		     2	       mov bp,1-05
 0E0A			     2	??0069: 
 0E0A  3B F7		     2		   cmp si,di
 0E0C  7C 06		     2	       jl ??006A
 0E0E  8D 1E 0E97 R	     2	       lea bx,??006F
 0E12  FF E3		     2	       jmp bx
 0E14			     2	??006A:
 0E14  46		     2		   inc si
 0E15			     2	??006B: 
 0E15  83 FD 00		     2	       cmp bp,0
 0E18  7D 09		     2	       jge ??006C
 0E1A  03 EE		     2	       add bp,si
 0E1C  03 EE		     2	       add bp,si
 0E1E  83 C5 01		     2	       add bp,1
 0E21  EB 0C		     2	       jmp ??006D
 0E23			     2	??006C: 
 0E23  4F		     2		   dec di
 0E24  03 EE		     2	       add bp,si
 0E26  03 EE		     2	       add bp,si
 0E28  2B EF		     2	       sub bp,di
 0E2A  2B EF		     2	       sub bp,di
 0E2C  83 C5 01		     2	       add bp,1
 0E2F			     2	??006D: 
 0E2F  B7 00		     2		   mov bh,0
 0E31  B9 021C		     2	       mov cx,540
 0E34  BA 0078		     2	       mov dx,120
 0E37  03 CE		     2	       add cx,si
 0E39  03 D7		     2	       add dx,di
 0E3B  CD 10		     2	       int 10h
 0E3D  B9 021C		     2	       mov cx,540
 0E40  BA 0078		     2	       mov dx,120
 0E43  2B CE		     2	       sub cx,si
 0E45  03 D7		     2	       add dx,di
 0E47  CD 10		     2	       int 10h
 0E49  B9 021C		     2	       mov cx,540
 0E4C  BA 0078		     2	       mov dx,120
 0E4F  03 CE		     2	       add cx,si
 0E51  2B D7		     2	       sub dx,di
 0E53  CD 10		     2	       int 10h
 0E55  B9 021C		     2	       mov cx,540
 0E58  BA 0078		     2	       mov dx,120
 0E5B  2B CE		     2	       sub cx,si
 0E5D  2B D7		     2	       sub dx,di
 0E5F  CD 10		     2	       int 10h
 0E61  B9 021C		     2	       mov cx,540
 0E64  BA 0078		     2	       mov dx,120
 0E67  03 CF		     2	       add cx,di
 0E69  03 D6		     2	       add dx,si
 0E6B  CD 10		     2	       int 10h
 0E6D  B9 021C		     2	       mov cx,540
 0E70  BA 0078		     2	       mov dx,120
 0E73  2B CF		     2	       sub cx,di
 0E75  03 D6		     2	       add dx,si
 0E77  CD 10		     2	       int 10h
 0E79  B9 021C		     2	       mov cx,540
 0E7C  BA 0078		     2	       mov dx,120
 0E7F  03 CF		     2	       add cx,di
 0E81  2B D6		     2	       sub dx,si
 0E83  CD 10		     2	       int 10h
 0E85  B9 021C		     2	       mov cx,540
 0E88  BA 0078		     2	       mov dx,120
 0E8B  2B CF		     2	       sub cx,di
 0E8D  2B D6		     2	       sub dx,si
 0E8F  CD 10		     2	       int 10h
 0E91			     2	??006E: 
 0E91  8D 1E 0E0A R	     2		   lea bx,??0069
 0E95  FF E3		     2	       jmp bx
 0E97			     2	??006F:
 0E97  B4 0C		     2	       mov ah,0ch
 0E99  A0 0131 R	     2	       mov al,colo
 0E9C  B7 00		     2	       mov bh,0
 0E9E  B9 0217		     2	       mov cx,540-05
 0EA1  BA 0078		     2	       mov dx,120
 0EA4  CD 10		     2	       int 10h
 0EA6  B9 0221		     2	       mov cx,540+05
 0EA9  BA 0078		     2	       mov dx,120
 0EAC  CD 10		     2	       int 10h
 0EAE  B9 021C		     2	       mov cx,540
 0EB1  BA 0073		     2	       mov dx,120-05
 0EB4  CD 10		     2	       int 10h
 0EB6  B9 021C		     2	       mov cx,540
 0EB9  BA 007D		     2	       mov dx,120+05
 0EBC  CD 10		     2	       int 10h
 0EBE  5D		     2	       pop bp
 0EBF  5F		     2	       pop di
 0EC0  5E		     2	       pop si
 0EC1  5A		     2	       pop dx
 0EC2  59		     2	       pop cx
 0EC3  5B		     2	       pop bx
 0EC4  58		     2	       pop ax
 0EC5  50		     2	       push ax
 0EC6  53		     2	       push bx
 0EC7  51		     2	       push cx
 0EC8  52		     2	       push dx
 0EC9  56		     2	       push si
 0ECA  57		     2	       push di
 0ECB  55		     2	       push bp
 0ECC  B4 0C		     2	       mov ah,0ch
 0ECE  A0 0131 R	     2	       mov al,colo
 0ED1  B7 00		     2	       mov bh,0
 0ED3  B9 021C		     2	       mov cx,540
 0ED6  BA 0078		     2	       mov dx,120
 0ED9  BE 0000		     2	       mov si,0         ;X
 0EDC  BF 0004		     2	       mov di,04    ;Y
 0EDF  BD FFFD		     2	       mov bp,1-04
 0EE2			     2	??0070: 
 0EE2  3B F7		     2		   cmp si,di
 0EE4  7C 06		     2	       jl ??0071
 0EE6  8D 1E 0F6F R	     2	       lea bx,??0076
 0EEA  FF E3		     2	       jmp bx
 0EEC			     2	??0071:
 0EEC  46		     2		   inc si
 0EED			     2	??0072: 
 0EED  83 FD 00		     2	       cmp bp,0
 0EF0  7D 09		     2	       jge ??0073
 0EF2  03 EE		     2	       add bp,si
 0EF4  03 EE		     2	       add bp,si
 0EF6  83 C5 01		     2	       add bp,1
 0EF9  EB 0C		     2	       jmp ??0074
 0EFB			     2	??0073: 
 0EFB  4F		     2		   dec di
 0EFC  03 EE		     2	       add bp,si
 0EFE  03 EE		     2	       add bp,si
 0F00  2B EF		     2	       sub bp,di
 0F02  2B EF		     2	       sub bp,di
 0F04  83 C5 01		     2	       add bp,1
 0F07			     2	??0074: 
 0F07  B7 00		     2		   mov bh,0
 0F09  B9 021C		     2	       mov cx,540
 0F0C  BA 0078		     2	       mov dx,120
 0F0F  03 CE		     2	       add cx,si
 0F11  03 D7		     2	       add dx,di
 0F13  CD 10		     2	       int 10h
 0F15  B9 021C		     2	       mov cx,540
 0F18  BA 0078		     2	       mov dx,120
 0F1B  2B CE		     2	       sub cx,si
 0F1D  03 D7		     2	       add dx,di
 0F1F  CD 10		     2	       int 10h
 0F21  B9 021C		     2	       mov cx,540
 0F24  BA 0078		     2	       mov dx,120
 0F27  03 CE		     2	       add cx,si
 0F29  2B D7		     2	       sub dx,di
 0F2B  CD 10		     2	       int 10h
 0F2D  B9 021C		     2	       mov cx,540
 0F30  BA 0078		     2	       mov dx,120
 0F33  2B CE		     2	       sub cx,si
 0F35  2B D7		     2	       sub dx,di
 0F37  CD 10		     2	       int 10h
 0F39  B9 021C		     2	       mov cx,540
 0F3C  BA 0078		     2	       mov dx,120
 0F3F  03 CF		     2	       add cx,di
 0F41  03 D6		     2	       add dx,si
 0F43  CD 10		     2	       int 10h
 0F45  B9 021C		     2	       mov cx,540
 0F48  BA 0078		     2	       mov dx,120
 0F4B  2B CF		     2	       sub cx,di
 0F4D  03 D6		     2	       add dx,si
 0F4F  CD 10		     2	       int 10h
 0F51  B9 021C		     2	       mov cx,540
 0F54  BA 0078		     2	       mov dx,120
 0F57  03 CF		     2	       add cx,di
 0F59  2B D6		     2	       sub dx,si
 0F5B  CD 10		     2	       int 10h
 0F5D  B9 021C		     2	       mov cx,540
 0F60  BA 0078		     2	       mov dx,120
 0F63  2B CF		     2	       sub cx,di
 0F65  2B D6		     2	       sub dx,si
 0F67  CD 10		     2	       int 10h
 0F69			     2	??0075: 
 0F69  8D 1E 0EE2 R	     2		   lea bx,??0070
 0F6D  FF E3		     2	       jmp bx
 0F6F			     2	??0076:
 0F6F  B4 0C		     2	       mov ah,0ch
 0F71  A0 0131 R	     2	       mov al,colo
 0F74  B7 00		     2	       mov bh,0
 0F76  B9 0218		     2	       mov cx,540-04
 0F79  BA 0078		     2	       mov dx,120
 0F7C  CD 10		     2	       int 10h
 0F7E  B9 0220		     2	       mov cx,540+04
 0F81  BA 0078		     2	       mov dx,120
 0F84  CD 10		     2	       int 10h
 0F86  B9 021C		     2	       mov cx,540
 0F89  BA 0074		     2	       mov dx,120-04
 0F8C  CD 10		     2	       int 10h
 0F8E  B9 021C		     2	       mov cx,540
 0F91  BA 007C		     2	       mov dx,120+04
 0F94  CD 10		     2	       int 10h
 0F96  5D		     2	       pop bp
 0F97  5F		     2	       pop di
 0F98  5E		     2	       pop si
 0F99  5A		     2	       pop dx
 0F9A  59		     2	       pop cx
 0F9B  5B		     2	       pop bx
 0F9C  58		     2	       pop ax
 0F9D  50		     2	       push ax
 0F9E  53		     2	       push bx
 0F9F  51		     2	       push cx
 0FA0  52		     2	       push dx
 0FA1  56		     2	       push si
 0FA2  57		     2	       push di
 0FA3  55		     2	       push bp
 0FA4  B4 0C		     2	       mov ah,0ch
 0FA6  A0 0131 R	     2	       mov al,colo
 0FA9  B7 00		     2	       mov bh,0
 0FAB  B9 021C		     2	       mov cx,540
 0FAE  BA 0078		     2	       mov dx,120
 0FB1  BE 0000		     2	       mov si,0         ;X
 0FB4  BF 0003		     2	       mov di,03    ;Y
 0FB7  BD FFFE		     2	       mov bp,1-03
 0FBA			     2	??0077: 
 0FBA  3B F7		     2		   cmp si,di
 0FBC  7C 06		     2	       jl ??0078
 0FBE  8D 1E 1047 R	     2	       lea bx,??007D
 0FC2  FF E3		     2	       jmp bx
 0FC4			     2	??0078:
 0FC4  46		     2		   inc si
 0FC5			     2	??0079: 
 0FC5  83 FD 00		     2	       cmp bp,0
 0FC8  7D 09		     2	       jge ??007A
 0FCA  03 EE		     2	       add bp,si
 0FCC  03 EE		     2	       add bp,si
 0FCE  83 C5 01		     2	       add bp,1
 0FD1  EB 0C		     2	       jmp ??007B
 0FD3			     2	??007A: 
 0FD3  4F		     2		   dec di
 0FD4  03 EE		     2	       add bp,si
 0FD6  03 EE		     2	       add bp,si
 0FD8  2B EF		     2	       sub bp,di
 0FDA  2B EF		     2	       sub bp,di
 0FDC  83 C5 01		     2	       add bp,1
 0FDF			     2	??007B: 
 0FDF  B7 00		     2		   mov bh,0
 0FE1  B9 021C		     2	       mov cx,540
 0FE4  BA 0078		     2	       mov dx,120
 0FE7  03 CE		     2	       add cx,si
 0FE9  03 D7		     2	       add dx,di
 0FEB  CD 10		     2	       int 10h
 0FED  B9 021C		     2	       mov cx,540
 0FF0  BA 0078		     2	       mov dx,120
 0FF3  2B CE		     2	       sub cx,si
 0FF5  03 D7		     2	       add dx,di
 0FF7  CD 10		     2	       int 10h
 0FF9  B9 021C		     2	       mov cx,540
 0FFC  BA 0078		     2	       mov dx,120
 0FFF  03 CE		     2	       add cx,si
 1001  2B D7		     2	       sub dx,di
 1003  CD 10		     2	       int 10h
 1005  B9 021C		     2	       mov cx,540
 1008  BA 0078		     2	       mov dx,120
 100B  2B CE		     2	       sub cx,si
 100D  2B D7		     2	       sub dx,di
 100F  CD 10		     2	       int 10h
 1011  B9 021C		     2	       mov cx,540
 1014  BA 0078		     2	       mov dx,120
 1017  03 CF		     2	       add cx,di
 1019  03 D6		     2	       add dx,si
 101B  CD 10		     2	       int 10h
 101D  B9 021C		     2	       mov cx,540
 1020  BA 0078		     2	       mov dx,120
 1023  2B CF		     2	       sub cx,di
 1025  03 D6		     2	       add dx,si
 1027  CD 10		     2	       int 10h
 1029  B9 021C		     2	       mov cx,540
 102C  BA 0078		     2	       mov dx,120
 102F  03 CF		     2	       add cx,di
 1031  2B D6		     2	       sub dx,si
 1033  CD 10		     2	       int 10h
 1035  B9 021C		     2	       mov cx,540
 1038  BA 0078		     2	       mov dx,120
 103B  2B CF		     2	       sub cx,di
 103D  2B D6		     2	       sub dx,si
 103F  CD 10		     2	       int 10h
 1041			     2	??007C: 
 1041  8D 1E 0FBA R	     2		   lea bx,??0077
 1045  FF E3		     2	       jmp bx
 1047			     2	??007D:
 1047  B4 0C		     2	       mov ah,0ch
 1049  A0 0131 R	     2	       mov al,colo
 104C  B7 00		     2	       mov bh,0
 104E  B9 0219		     2	       mov cx,540-03
 1051  BA 0078		     2	       mov dx,120
 1054  CD 10		     2	       int 10h
 1056  B9 021F		     2	       mov cx,540+03
 1059  BA 0078		     2	       mov dx,120
 105C  CD 10		     2	       int 10h
 105E  B9 021C		     2	       mov cx,540
 1061  BA 0075		     2	       mov dx,120-03
 1064  CD 10		     2	       int 10h
 1066  B9 021C		     2	       mov cx,540
 1069  BA 007B		     2	       mov dx,120+03
 106C  CD 10		     2	       int 10h
 106E  5D		     2	       pop bp
 106F  5F		     2	       pop di
 1070  5E		     2	       pop si
 1071  5A		     2	       pop dx
 1072  59		     2	       pop cx
 1073  5B		     2	       pop bx
 1074  58		     2	       pop ax
 1075  50		     2	       push ax
 1076  53		     2	       push bx
 1077  51		     2	       push cx
 1078  52		     2	       push dx
 1079  56		     2	       push si
 107A  57		     2	       push di
 107B  55		     2	       push bp
 107C  B4 0C		     2	       mov ah,0ch
 107E  A0 0131 R	     2	       mov al,colo
 1081  B7 00		     2	       mov bh,0
 1083  B9 021C		     2	       mov cx,540
 1086  BA 0078		     2	       mov dx,120
 1089  BE 0000		     2	       mov si,0         ;X
 108C  BF 0002		     2	       mov di,02    ;Y
 108F  BD FFFF		     2	       mov bp,1-02
 1092			     2	??007E: 
 1092  3B F7		     2		   cmp si,di
 1094  7C 06		     2	       jl ??007F
 1096  8D 1E 111F R	     2	       lea bx,??0084
 109A  FF E3		     2	       jmp bx
 109C			     2	??007F:
 109C  46		     2		   inc si
 109D			     2	??0080: 
 109D  83 FD 00		     2	       cmp bp,0
 10A0  7D 09		     2	       jge ??0081
 10A2  03 EE		     2	       add bp,si
 10A4  03 EE		     2	       add bp,si
 10A6  83 C5 01		     2	       add bp,1
 10A9  EB 0C		     2	       jmp ??0082
 10AB			     2	??0081: 
 10AB  4F		     2		   dec di
 10AC  03 EE		     2	       add bp,si
 10AE  03 EE		     2	       add bp,si
 10B0  2B EF		     2	       sub bp,di
 10B2  2B EF		     2	       sub bp,di
 10B4  83 C5 01		     2	       add bp,1
 10B7			     2	??0082: 
 10B7  B7 00		     2		   mov bh,0
 10B9  B9 021C		     2	       mov cx,540
 10BC  BA 0078		     2	       mov dx,120
 10BF  03 CE		     2	       add cx,si
 10C1  03 D7		     2	       add dx,di
 10C3  CD 10		     2	       int 10h
 10C5  B9 021C		     2	       mov cx,540
 10C8  BA 0078		     2	       mov dx,120
 10CB  2B CE		     2	       sub cx,si
 10CD  03 D7		     2	       add dx,di
 10CF  CD 10		     2	       int 10h
 10D1  B9 021C		     2	       mov cx,540
 10D4  BA 0078		     2	       mov dx,120
 10D7  03 CE		     2	       add cx,si
 10D9  2B D7		     2	       sub dx,di
 10DB  CD 10		     2	       int 10h
 10DD  B9 021C		     2	       mov cx,540
 10E0  BA 0078		     2	       mov dx,120
 10E3  2B CE		     2	       sub cx,si
 10E5  2B D7		     2	       sub dx,di
 10E7  CD 10		     2	       int 10h
 10E9  B9 021C		     2	       mov cx,540
 10EC  BA 0078		     2	       mov dx,120
 10EF  03 CF		     2	       add cx,di
 10F1  03 D6		     2	       add dx,si
 10F3  CD 10		     2	       int 10h
 10F5  B9 021C		     2	       mov cx,540
 10F8  BA 0078		     2	       mov dx,120
 10FB  2B CF		     2	       sub cx,di
 10FD  03 D6		     2	       add dx,si
 10FF  CD 10		     2	       int 10h
 1101  B9 021C		     2	       mov cx,540
 1104  BA 0078		     2	       mov dx,120
 1107  03 CF		     2	       add cx,di
 1109  2B D6		     2	       sub dx,si
 110B  CD 10		     2	       int 10h
 110D  B9 021C		     2	       mov cx,540
 1110  BA 0078		     2	       mov dx,120
 1113  2B CF		     2	       sub cx,di
 1115  2B D6		     2	       sub dx,si
 1117  CD 10		     2	       int 10h
 1119			     2	??0083: 
 1119  8D 1E 1092 R	     2		   lea bx,??007E
 111D  FF E3		     2	       jmp bx
 111F			     2	??0084:
 111F  B4 0C		     2	       mov ah,0ch
 1121  A0 0131 R	     2	       mov al,colo
 1124  B7 00		     2	       mov bh,0
 1126  B9 021A		     2	       mov cx,540-02
 1129  BA 0078		     2	       mov dx,120
 112C  CD 10		     2	       int 10h
 112E  B9 021E		     2	       mov cx,540+02
 1131  BA 0078		     2	       mov dx,120
 1134  CD 10		     2	       int 10h
 1136  B9 021C		     2	       mov cx,540
 1139  BA 0076		     2	       mov dx,120-02
 113C  CD 10		     2	       int 10h
 113E  B9 021C		     2	       mov cx,540
 1141  BA 007A		     2	       mov dx,120+02
 1144  CD 10		     2	       int 10h
 1146  5D		     2	       pop bp
 1147  5F		     2	       pop di
 1148  5E		     2	       pop si
 1149  5A		     2	       pop dx
 114A  59		     2	       pop cx
 114B  5B		     2	       pop bx
 114C  58		     2	       pop ax
 114D  50		     2	       push ax
 114E  53		     2	       push bx
 114F  51		     2	       push cx
 1150  52		     2	       push dx
 1151  56		     2	       push si
 1152  57		     2	       push di
 1153  55		     2	       push bp
 1154  B4 0C		     2	       mov ah,0ch
 1156  A0 0131 R	     2	       mov al,colo
 1159  B7 00		     2	       mov bh,0
 115B  B9 021C		     2	       mov cx,540
 115E  BA 0078		     2	       mov dx,120
 1161  BE 0000		     2	       mov si,0         ;X
 1164  BF 0001		     2	       mov di,01    ;Y
 1167  BD 0000		     2	       mov bp,1-01
 116A			     2	??0085: 
 116A  3B F7		     2		   cmp si,di
 116C  7C 06		     2	       jl ??0086
 116E  8D 1E 11F7 R	     2	       lea bx,??008B
 1172  FF E3		     2	       jmp bx
 1174			     2	??0086:
 1174  46		     2		   inc si
 1175			     2	??0087: 
 1175  83 FD 00		     2	       cmp bp,0
 1178  7D 09		     2	       jge ??0088
 117A  03 EE		     2	       add bp,si
 117C  03 EE		     2	       add bp,si
 117E  83 C5 01		     2	       add bp,1
 1181  EB 0C		     2	       jmp ??0089
 1183			     2	??0088: 
 1183  4F		     2		   dec di
 1184  03 EE		     2	       add bp,si
 1186  03 EE		     2	       add bp,si
 1188  2B EF		     2	       sub bp,di
 118A  2B EF		     2	       sub bp,di
 118C  83 C5 01		     2	       add bp,1
 118F			     2	??0089: 
 118F  B7 00		     2		   mov bh,0
 1191  B9 021C		     2	       mov cx,540
 1194  BA 0078		     2	       mov dx,120
 1197  03 CE		     2	       add cx,si
 1199  03 D7		     2	       add dx,di
 119B  CD 10		     2	       int 10h
 119D  B9 021C		     2	       mov cx,540
 11A0  BA 0078		     2	       mov dx,120
 11A3  2B CE		     2	       sub cx,si
 11A5  03 D7		     2	       add dx,di
 11A7  CD 10		     2	       int 10h
 11A9  B9 021C		     2	       mov cx,540
 11AC  BA 0078		     2	       mov dx,120
 11AF  03 CE		     2	       add cx,si
 11B1  2B D7		     2	       sub dx,di
 11B3  CD 10		     2	       int 10h
 11B5  B9 021C		     2	       mov cx,540
 11B8  BA 0078		     2	       mov dx,120
 11BB  2B CE		     2	       sub cx,si
 11BD  2B D7		     2	       sub dx,di
 11BF  CD 10		     2	       int 10h
 11C1  B9 021C		     2	       mov cx,540
 11C4  BA 0078		     2	       mov dx,120
 11C7  03 CF		     2	       add cx,di
 11C9  03 D6		     2	       add dx,si
 11CB  CD 10		     2	       int 10h
 11CD  B9 021C		     2	       mov cx,540
 11D0  BA 0078		     2	       mov dx,120
 11D3  2B CF		     2	       sub cx,di
 11D5  03 D6		     2	       add dx,si
 11D7  CD 10		     2	       int 10h
 11D9  B9 021C		     2	       mov cx,540
 11DC  BA 0078		     2	       mov dx,120
 11DF  03 CF		     2	       add cx,di
 11E1  2B D6		     2	       sub dx,si
 11E3  CD 10		     2	       int 10h
 11E5  B9 021C		     2	       mov cx,540
 11E8  BA 0078		     2	       mov dx,120
 11EB  2B CF		     2	       sub cx,di
 11ED  2B D6		     2	       sub dx,si
 11EF  CD 10		     2	       int 10h
 11F1			     2	??008A: 
 11F1  8D 1E 116A R	     2		   lea bx,??0085
 11F5  FF E3		     2	       jmp bx
 11F7			     2	??008B:
 11F7  B4 0C		     2	       mov ah,0ch
 11F9  A0 0131 R	     2	       mov al,colo
 11FC  B7 00		     2	       mov bh,0
 11FE  B9 021B		     2	       mov cx,540-01
 1201  BA 0078		     2	       mov dx,120
 1204  CD 10		     2	       int 10h
 1206  B9 021D		     2	       mov cx,540+01
 1209  BA 0078		     2	       mov dx,120
 120C  CD 10		     2	       int 10h
 120E  B9 021C		     2	       mov cx,540
 1211  BA 0077		     2	       mov dx,120-01
 1214  CD 10		     2	       int 10h
 1216  B9 021C		     2	       mov cx,540
 1219  BA 0079		     2	       mov dx,120+01
 121C  CD 10		     2	       int 10h
 121E  5D		     2	       pop bp
 121F  5F		     2	       pop di
 1220  5E		     2	       pop si
 1221  5A		     2	       pop dx
 1222  59		     2	       pop cx
 1223  5B		     2	       pop bx
 1224  58		     2	       pop ax
					;获得鼠标坐标
 1225  B8 0003				mov ax,03h
 1228  CD 33				int 33h
 122A  8B C1				mov ax,cx
 122C  A3 0020 R			mov pos_x,ax
 122F  8B C2				mov ax,dx
 1231  A3 0022 R			mov pos_y,ax	
					
					;得到离此鼠标最近的棋盘点
					GET_POSNEARX pos_x
 1234  50		     1		push ax
 1235  53		     1		push bx
 1236  51		     1		push cx
 1237  52		     1		push dx
 1238  A1 0020 R	     1		mov ax,pos_x
 123B  83 F8 1E		     1		cmp ax,30
 123E  72 23		     1		jb ??008C
 1240  3D 01CC		     1		cmp ax,460
 1243  77 1E		     1		ja ??008C
 1245  83 E8 1E		     1		sub ax,30
 1248  2B D2		     1		sub dx,dx
 124A  BB 0032		     1		mov bx,50
 124D  F7 F3		     1		div bx
 124F  83 FA 1E		     1		cmp dx,30
 1252  77 0F		     1		ja ??008C
 1254  2B D2		     1		sub dx,dx
 1256  BA 0032		     1		mov dx,50
 1259  F7 E2		     1		mul dx
 125B  83 C0 2D		     1		add ax,45
 125E  A3 0024 R	     1		mov pos_cenx,ax
 1261  EB 06		     1		jmp ??008D
 1263			     1	??008C:
 1263  C7 06 0024 R 0000     1		mov pos_cenx,0
 1269			     1	??008D:
 1269  5A		     1		pop dx
 126A  59		     1		pop cx
 126B  5B		     1		pop bx
 126C  58		     1		pop ax
					GET_POSNEARY pos_y
 126D  50		     1		push ax
 126E  53		     1		push bx
 126F  51		     1		push cx
 1270  52		     1		push dx
 1271  A1 0022 R	     1		mov ax,pos_y
 1274  83 F8 1E		     1		cmp ax,30
 1277  72 23		     1		jb ??008E
 1279  3D 01CC		     1		cmp ax,460
 127C  77 1E		     1		ja ??008E
 127E  83 E8 1E		     1		sub ax,30
 1281  2B D2		     1		sub dx,dx
 1283  BB 0032		     1		mov bx,50
 1286  F7 F3		     1		div bx
 1288  83 FA 1E		     1		cmp dx,30
 128B  77 0F		     1		ja ??008E
 128D  2B D2		     1		sub dx,dx
 128F  BA 0032		     1		mov dx,50
 1292  F7 E2		     1		mul dx
 1294  83 C0 2D		     1		add ax,45
 1297  A3 0026 R	     1		mov pos_ceny,ax
 129A  EB 06		     1		jmp ??008F
 129C			     1	??008E:
 129C  C7 06 0026 R 0000     1		mov pos_ceny,0
 12A2			     1	??008F:
 12A2  5A		     1		pop dx
 12A3  59		     1		pop cx
 12A4  5B		     1		pop bx
 12A5  58		     1		pop ax
					
					;如果此鼠标位置不合法，则至少有一个为0
 12A6  83 3E 0024 R 00			cmp pos_cenx,0
 12AB  75 03 E9 2F38			jz loop3
 12B0  83 3E 0026 R 00			cmp pos_ceny,0
 12B5  75 03 E9 2F2E			jz loop3
					
					;如果鼠标位置合法，并且当前鼠标坐标值发生改变
 12BA  A1 0024 R			mov ax,pos_cenx
 12BD  8B 1E 0028 R			mov bx,pos_lastx
 12C1  3B C3				cmp ax,bx
 12C3  75 0E				jnz loop2
 12C5  A1 0026 R			mov ax,pos_ceny
 12C8  8B 1E 002A R			mov bx,pos_lasty
 12CC  3B C3				cmp ax,bx
 12CE  75 03				jnz loop2
					
					;如果鼠标位置没有改变
 12D0  E9 0335				jmp loop1

 12D3				loop2:
					
					;检查上次坐标位置有没有棋子
				;	JUDGE1 pos_lastx,pos_lasty
				;	cmp jud1,0
				;	jz redrawcir

					;将上次鼠标位置隐藏
					DRAW_CURSOR pos_lastx,pos_lasty,14
 12D3  50		     1		push ax
 12D4  53		     1		push bx
 12D5  51		     1		push cx
 12D6  52		     1		push dx
 12D7  A1 0028 R	     1		mov ax,pos_lastx
 12DA  8B 1E 002A R	     1		mov bx,pos_lasty
 12DE  50		     1		push ax
 12DF  53		     1		push bx
 12E0  83 E8 14		     1		sub ax,20
 12E3  83 EB 05		     1		sub bx,5
 12E6  50		     2		push ax
 12E7  53		     2		push bx
 12E8  51		     2		push cx
 12E9  52		     2		push dx
 12EA  8B C8		     2		mov cx,ax
 12EC  8B D3		     2		mov dx,bx
 12EE  8B C1		     2		mov ax,cx
 12F0  83 C0 0F		     2		add ax,15
 12F3			     2		??0090:
 12F3  50		     2			push ax
 12F4  B7 00		     2			mov bh,0
 12F6  B4 0C		     2			mov ah,0ch
 12F8  B0 0E		     2			mov al,14
 12FA  CD 10		     2			int 10h
 12FC  58		     2			pop ax
 12FD  41		     2			inc cx
 12FE  3B C8		     2			cmp cx,ax
 1300  75 F1		     2			jnz ??0090
 1302  5A		     2		pop dx
 1303  59		     2		pop cx
 1304  5B		     2		pop bx
 1305  58		     2		pop ax
 1306  5B		     1		pop bx
 1307  58		     1		pop ax
 1308  50		     1		push ax
 1309  53		     1		push bx
 130A  83 E8 05		     1		sub ax,5
 130D  83 EB 14		     1		sub bx,20
 1310  50		     2		push ax
 1311  53		     2		push bx
 1312  51		     2		push cx
 1313  52		     2		push dx
 1314  8B C8		     2		mov cx,ax
 1316  8B D3		     2		mov dx,bx
 1318  8B C2		     2		mov ax,dx
 131A  83 C0 0F		     2		add ax,15
 131D			     2		??0091:
 131D  50		     2			push ax
 131E  B7 00		     2			mov bh,0
 1320  B4 0C		     2			mov ah,0ch
 1322  B0 0E		     2			mov al,14
 1324  CD 10		     2			int 10h
 1326  58		     2			pop ax
 1327  42		     2			inc dx
 1328  3B D0		     2			cmp dx,ax
 132A  75 F1		     2			jnz ??0091
 132C  5A		     2		pop dx
 132D  59		     2		pop cx
 132E  5B		     2		pop bx
 132F  58		     2		pop ax
 1330  5B		     1		pop bx
 1331  58		     1		pop ax
 1332  50		     1		push ax
 1333  53		     1		push bx
 1334  83 E8 14		     1		sub ax,20
 1337  83 C3 05		     1		add bx,5
 133A  50		     2		push ax
 133B  53		     2		push bx
 133C  51		     2		push cx
 133D  52		     2		push dx
 133E  8B C8		     2		mov cx,ax
 1340  8B D3		     2		mov dx,bx
 1342  8B C1		     2		mov ax,cx
 1344  83 C0 0F		     2		add ax,15
 1347			     2		??0092:
 1347  50		     2			push ax
 1348  B7 00		     2			mov bh,0
 134A  B4 0C		     2			mov ah,0ch
 134C  B0 0E		     2			mov al,14
 134E  CD 10		     2			int 10h
 1350  58		     2			pop ax
 1351  41		     2			inc cx
 1352  3B C8		     2			cmp cx,ax
 1354  75 F1		     2			jnz ??0092
 1356  5A		     2		pop dx
 1357  59		     2		pop cx
 1358  5B		     2		pop bx
 1359  58		     2		pop ax
 135A  5B		     1		pop bx
 135B  58		     1		pop ax
 135C  50		     1		push ax
 135D  53		     1		push bx
 135E  83 E8 05		     1		sub ax,5
 1361  83 C3 05		     1		add bx,5
 1364  50		     2		push ax
 1365  53		     2		push bx
 1366  51		     2		push cx
 1367  52		     2		push dx
 1368  8B C8		     2		mov cx,ax
 136A  8B D3		     2		mov dx,bx
 136C  8B C2		     2		mov ax,dx
 136E  83 C0 0F		     2		add ax,15
 1371			     2		??0093:
 1371  50		     2			push ax
 1372  B7 00		     2			mov bh,0
 1374  B4 0C		     2			mov ah,0ch
 1376  B0 0E		     2			mov al,14
 1378  CD 10		     2			int 10h
 137A  58		     2			pop ax
 137B  42		     2			inc dx
 137C  3B D0		     2			cmp dx,ax
 137E  75 F1		     2			jnz ??0093
 1380  5A		     2		pop dx
 1381  59		     2		pop cx
 1382  5B		     2		pop bx
 1383  58		     2		pop ax
 1384  5B		     1		pop bx
 1385  58		     1		pop ax
 1386  50		     1		push ax
 1387  53		     1		push bx
 1388  83 C0 05		     1		add ax,5
 138B  83 EB 14		     1		sub bx,20
 138E  50		     2		push ax
 138F  53		     2		push bx
 1390  51		     2		push cx
 1391  52		     2		push dx
 1392  8B C8		     2		mov cx,ax
 1394  8B D3		     2		mov dx,bx
 1396  8B C2		     2		mov ax,dx
 1398  83 C0 0F		     2		add ax,15
 139B			     2		??0094:
 139B  50		     2			push ax
 139C  B7 00		     2			mov bh,0
 139E  B4 0C		     2			mov ah,0ch
 13A0  B0 0E		     2			mov al,14
 13A2  CD 10		     2			int 10h
 13A4  58		     2			pop ax
 13A5  42		     2			inc dx
 13A6  3B D0		     2			cmp dx,ax
 13A8  75 F1		     2			jnz ??0094
 13AA  5A		     2		pop dx
 13AB  59		     2		pop cx
 13AC  5B		     2		pop bx
 13AD  58		     2		pop ax
 13AE  5B		     1		pop bx
 13AF  58		     1		pop ax
 13B0  50		     1		push ax
 13B1  53		     1		push bx
 13B2  83 C0 05		     1		add ax,5
 13B5  83 EB 05		     1		sub bx,5
 13B8  50		     2		push ax
 13B9  53		     2		push bx
 13BA  51		     2		push cx
 13BB  52		     2		push dx
 13BC  8B C8		     2		mov cx,ax
 13BE  8B D3		     2		mov dx,bx
 13C0  8B C1		     2		mov ax,cx
 13C2  83 C0 0F		     2		add ax,15
 13C5			     2		??0095:
 13C5  50		     2			push ax
 13C6  B7 00		     2			mov bh,0
 13C8  B4 0C		     2			mov ah,0ch
 13CA  B0 0E		     2			mov al,14
 13CC  CD 10		     2			int 10h
 13CE  58		     2			pop ax
 13CF  41		     2			inc cx
 13D0  3B C8		     2			cmp cx,ax
 13D2  75 F1		     2			jnz ??0095
 13D4  5A		     2		pop dx
 13D5  59		     2		pop cx
 13D6  5B		     2		pop bx
 13D7  58		     2		pop ax
 13D8  5B		     1		pop bx
 13D9  58		     1		pop ax
 13DA  50		     1		push ax
 13DB  53		     1		push bx
 13DC  83 C0 05		     1		add ax,5
 13DF  83 C3 05		     1		add bx,5
 13E2  50		     2		push ax
 13E3  53		     2		push bx
 13E4  51		     2		push cx
 13E5  52		     2		push dx
 13E6  8B C8		     2		mov cx,ax
 13E8  8B D3		     2		mov dx,bx
 13EA  8B C2		     2		mov ax,dx
 13EC  83 C0 0F		     2		add ax,15
 13EF			     2		??0096:
 13EF  50		     2			push ax
 13F0  B7 00		     2			mov bh,0
 13F2  B4 0C		     2			mov ah,0ch
 13F4  B0 0E		     2			mov al,14
 13F6  CD 10		     2			int 10h
 13F8  58		     2			pop ax
 13F9  42		     2			inc dx
 13FA  3B D0		     2			cmp dx,ax
 13FC  75 F1		     2			jnz ??0096
 13FE  5A		     2		pop dx
 13FF  59		     2		pop cx
 1400  5B		     2		pop bx
 1401  58		     2		pop ax
 1402  5B		     1		pop bx
 1403  58		     1		pop ax
 1404  50		     1		push ax
 1405  53		     1		push bx
 1406  83 C0 05		     1		add ax,5
 1409  83 C3 05		     1		add bx,5
 140C  50		     2		push ax
 140D  53		     2		push bx
 140E  51		     2		push cx
 140F  52		     2		push dx
 1410  8B C8		     2		mov cx,ax
 1412  8B D3		     2		mov dx,bx
 1414  8B C1		     2		mov ax,cx
 1416  83 C0 0F		     2		add ax,15
 1419			     2		??0097:
 1419  50		     2			push ax
 141A  B7 00		     2			mov bh,0
 141C  B4 0C		     2			mov ah,0ch
 141E  B0 0E		     2			mov al,14
 1420  CD 10		     2			int 10h
 1422  58		     2			pop ax
 1423  41		     2			inc cx
 1424  3B C8		     2			cmp cx,ax
 1426  75 F1		     2			jnz ??0097
 1428  5A		     2		pop dx
 1429  59		     2		pop cx
 142A  5B		     2		pop bx
 142B  58		     2		pop ax
 142C  5B		     1		pop bx
 142D  58		     1		pop ax
 142E  5A		     1		pop dx
 142F  59		     1		pop cx
 1430  5B		     1		pop bx
 1431  58		     1		pop ax

				;redrawcir:
				;	DRAWCIR pos_lastx,pos_lasty,colo	
					
					JUDGE1 pos_cenx,pos_ceny
 1432  50		     1		push ax
 1433  53		     1		push bx
 1434  51		     1		push cx
 1435  52		     1		push dx
 1436  A1 0024 R	     1		mov ax,pos_cenx
 1439  83 E8 2D		     1		sub ax,45
 143C  2B D2		     1		sub dx,dx
 143E  BB 0032		     1		mov bx,50
 1441  F7 F3		     1		div bx
 1443  83 C0 04		     1		add ax,4
 1446  A3 0153 R	     1		mov colx,ax;第几列
 1449  A1 0026 R	     1		mov ax,pos_ceny
 144C  83 E8 2D		     1		sub ax,45
 144F  2B D2		     1		sub dx,dx
 1451  BB 0032		     1		mov bx,50
 1454  F7 F3		     1		div bx
 1456  83 C0 04		     1		add ax,4
 1459  A3 0151 R	     1		mov rowy,ax;第几行
 145C  A1 0151 R	     1		mov ax,rowy
 145F  BB 0011		     1		mov bx,17
 1462  F7 E3		     1		mul bx
 1464  03 06 0153 R	     1		add ax,colx
 1468  A3 0121 R	     1		mov pianyi,ax
 146B  2B C9		     1		sub cx,cx
 146D  BB 0030 R	     1		mov bx,offset map0
 1470  03 1E 0121 R	     1		add bx,pianyi
 1474  8A 0F		     1		mov cl,[bx]
 1476  80 F9 00		     1		cmp cl,0
 1479  74 07		     1		jz ??0098
 147B  C6 06 0120 R 00	     1		mov jud1,0
 1480  EB 05		     1		jmp ??0099
 1482			     1	??0098:
 1482  C6 06 0120 R 01	     1		mov jud1,1
 1487			     1	??0099:
 1487  5A		     1		pop dx
 1488  59		     1		pop cx
 1489  5B		     1		pop bx
 148A  58		     1		pop ax
 148B  80 3E 0120 R 00			cmp jud1,0
 1490  75 03 E9 015F			jz cantdrop
						
					;显示当前鼠标位置
					DRAW_CURSOR pos_cenx,pos_ceny,08
 1495  50		     1		push ax
 1496  53		     1		push bx
 1497  51		     1		push cx
 1498  52		     1		push dx
 1499  A1 0024 R	     1		mov ax,pos_cenx
 149C  8B 1E 0026 R	     1		mov bx,pos_ceny
 14A0  50		     1		push ax
 14A1  53		     1		push bx
 14A2  83 E8 14		     1		sub ax,20
 14A5  83 EB 05		     1		sub bx,5
 14A8  50		     2		push ax
 14A9  53		     2		push bx
 14AA  51		     2		push cx
 14AB  52		     2		push dx
 14AC  8B C8		     2		mov cx,ax
 14AE  8B D3		     2		mov dx,bx
 14B0  8B C1		     2		mov ax,cx
 14B2  83 C0 0F		     2		add ax,15
 14B5			     2		??009A:
 14B5  50		     2			push ax
 14B6  B7 00		     2			mov bh,0
 14B8  B4 0C		     2			mov ah,0ch
 14BA  B0 08		     2			mov al,08
 14BC  CD 10		     2			int 10h
 14BE  58		     2			pop ax
 14BF  41		     2			inc cx
 14C0  3B C8		     2			cmp cx,ax
 14C2  75 F1		     2			jnz ??009A
 14C4  5A		     2		pop dx
 14C5  59		     2		pop cx
 14C6  5B		     2		pop bx
 14C7  58		     2		pop ax
 14C8  5B		     1		pop bx
 14C9  58		     1		pop ax
 14CA  50		     1		push ax
 14CB  53		     1		push bx
 14CC  83 E8 05		     1		sub ax,5
 14CF  83 EB 14		     1		sub bx,20
 14D2  50		     2		push ax
 14D3  53		     2		push bx
 14D4  51		     2		push cx
 14D5  52		     2		push dx
 14D6  8B C8		     2		mov cx,ax
 14D8  8B D3		     2		mov dx,bx
 14DA  8B C2		     2		mov ax,dx
 14DC  83 C0 0F		     2		add ax,15
 14DF			     2		??009B:
 14DF  50		     2			push ax
 14E0  B7 00		     2			mov bh,0
 14E2  B4 0C		     2			mov ah,0ch
 14E4  B0 08		     2			mov al,08
 14E6  CD 10		     2			int 10h
 14E8  58		     2			pop ax
 14E9  42		     2			inc dx
 14EA  3B D0		     2			cmp dx,ax
 14EC  75 F1		     2			jnz ??009B
 14EE  5A		     2		pop dx
 14EF  59		     2		pop cx
 14F0  5B		     2		pop bx
 14F1  58		     2		pop ax
 14F2  5B		     1		pop bx
 14F3  58		     1		pop ax
 14F4  50		     1		push ax
 14F5  53		     1		push bx
 14F6  83 E8 14		     1		sub ax,20
 14F9  83 C3 05		     1		add bx,5
 14FC  50		     2		push ax
 14FD  53		     2		push bx
 14FE  51		     2		push cx
 14FF  52		     2		push dx
 1500  8B C8		     2		mov cx,ax
 1502  8B D3		     2		mov dx,bx
 1504  8B C1		     2		mov ax,cx
 1506  83 C0 0F		     2		add ax,15
 1509			     2		??009C:
 1509  50		     2			push ax
 150A  B7 00		     2			mov bh,0
 150C  B4 0C		     2			mov ah,0ch
 150E  B0 08		     2			mov al,08
 1510  CD 10		     2			int 10h
 1512  58		     2			pop ax
 1513  41		     2			inc cx
 1514  3B C8		     2			cmp cx,ax
 1516  75 F1		     2			jnz ??009C
 1518  5A		     2		pop dx
 1519  59		     2		pop cx
 151A  5B		     2		pop bx
 151B  58		     2		pop ax
 151C  5B		     1		pop bx
 151D  58		     1		pop ax
 151E  50		     1		push ax
 151F  53		     1		push bx
 1520  83 E8 05		     1		sub ax,5
 1523  83 C3 05		     1		add bx,5
 1526  50		     2		push ax
 1527  53		     2		push bx
 1528  51		     2		push cx
 1529  52		     2		push dx
 152A  8B C8		     2		mov cx,ax
 152C  8B D3		     2		mov dx,bx
 152E  8B C2		     2		mov ax,dx
 1530  83 C0 0F		     2		add ax,15
 1533			     2		??009D:
 1533  50		     2			push ax
 1534  B7 00		     2			mov bh,0
 1536  B4 0C		     2			mov ah,0ch
 1538  B0 08		     2			mov al,08
 153A  CD 10		     2			int 10h
 153C  58		     2			pop ax
 153D  42		     2			inc dx
 153E  3B D0		     2			cmp dx,ax
 1540  75 F1		     2			jnz ??009D
 1542  5A		     2		pop dx
 1543  59		     2		pop cx
 1544  5B		     2		pop bx
 1545  58		     2		pop ax
 1546  5B		     1		pop bx
 1547  58		     1		pop ax
 1548  50		     1		push ax
 1549  53		     1		push bx
 154A  83 C0 05		     1		add ax,5
 154D  83 EB 14		     1		sub bx,20
 1550  50		     2		push ax
 1551  53		     2		push bx
 1552  51		     2		push cx
 1553  52		     2		push dx
 1554  8B C8		     2		mov cx,ax
 1556  8B D3		     2		mov dx,bx
 1558  8B C2		     2		mov ax,dx
 155A  83 C0 0F		     2		add ax,15
 155D			     2		??009E:
 155D  50		     2			push ax
 155E  B7 00		     2			mov bh,0
 1560  B4 0C		     2			mov ah,0ch
 1562  B0 08		     2			mov al,08
 1564  CD 10		     2			int 10h
 1566  58		     2			pop ax
 1567  42		     2			inc dx
 1568  3B D0		     2			cmp dx,ax
 156A  75 F1		     2			jnz ??009E
 156C  5A		     2		pop dx
 156D  59		     2		pop cx
 156E  5B		     2		pop bx
 156F  58		     2		pop ax
 1570  5B		     1		pop bx
 1571  58		     1		pop ax
 1572  50		     1		push ax
 1573  53		     1		push bx
 1574  83 C0 05		     1		add ax,5
 1577  83 EB 05		     1		sub bx,5
 157A  50		     2		push ax
 157B  53		     2		push bx
 157C  51		     2		push cx
 157D  52		     2		push dx
 157E  8B C8		     2		mov cx,ax
 1580  8B D3		     2		mov dx,bx
 1582  8B C1		     2		mov ax,cx
 1584  83 C0 0F		     2		add ax,15
 1587			     2		??009F:
 1587  50		     2			push ax
 1588  B7 00		     2			mov bh,0
 158A  B4 0C		     2			mov ah,0ch
 158C  B0 08		     2			mov al,08
 158E  CD 10		     2			int 10h
 1590  58		     2			pop ax
 1591  41		     2			inc cx
 1592  3B C8		     2			cmp cx,ax
 1594  75 F1		     2			jnz ??009F
 1596  5A		     2		pop dx
 1597  59		     2		pop cx
 1598  5B		     2		pop bx
 1599  58		     2		pop ax
 159A  5B		     1		pop bx
 159B  58		     1		pop ax
 159C  50		     1		push ax
 159D  53		     1		push bx
 159E  83 C0 05		     1		add ax,5
 15A1  83 C3 05		     1		add bx,5
 15A4  50		     2		push ax
 15A5  53		     2		push bx
 15A6  51		     2		push cx
 15A7  52		     2		push dx
 15A8  8B C8		     2		mov cx,ax
 15AA  8B D3		     2		mov dx,bx
 15AC  8B C2		     2		mov ax,dx
 15AE  83 C0 0F		     2		add ax,15
 15B1			     2		??00A0:
 15B1  50		     2			push ax
 15B2  B7 00		     2			mov bh,0
 15B4  B4 0C		     2			mov ah,0ch
 15B6  B0 08		     2			mov al,08
 15B8  CD 10		     2			int 10h
 15BA  58		     2			pop ax
 15BB  42		     2			inc dx
 15BC  3B D0		     2			cmp dx,ax
 15BE  75 F1		     2			jnz ??00A0
 15C0  5A		     2		pop dx
 15C1  59		     2		pop cx
 15C2  5B		     2		pop bx
 15C3  58		     2		pop ax
 15C4  5B		     1		pop bx
 15C5  58		     1		pop ax
 15C6  50		     1		push ax
 15C7  53		     1		push bx
 15C8  83 C0 05		     1		add ax,5
 15CB  83 C3 05		     1		add bx,5
 15CE  50		     2		push ax
 15CF  53		     2		push bx
 15D0  51		     2		push cx
 15D1  52		     2		push dx
 15D2  8B C8		     2		mov cx,ax
 15D4  8B D3		     2		mov dx,bx
 15D6  8B C1		     2		mov ax,cx
 15D8  83 C0 0F		     2		add ax,15
 15DB			     2		??00A1:
 15DB  50		     2			push ax
 15DC  B7 00		     2			mov bh,0
 15DE  B4 0C		     2			mov ah,0ch
 15E0  B0 08		     2			mov al,08
 15E2  CD 10		     2			int 10h
 15E4  58		     2			pop ax
 15E5  41		     2			inc cx
 15E6  3B C8		     2			cmp cx,ax
 15E8  75 F1		     2			jnz ??00A1
 15EA  5A		     2		pop dx
 15EB  59		     2		pop cx
 15EC  5B		     2		pop bx
 15ED  58		     2		pop ax
 15EE  5B		     1		pop bx
 15EF  58		     1		pop ax
 15F0  5A		     1		pop dx
 15F1  59		     1		pop cx
 15F2  5B		     1		pop bx
 15F3  58		     1		pop ax
					
 15F4				cantdrop:
					
				;	cmp recirx,0
				;	jmp next1
				;	cmp reciry,0
				;	jmp next1
				;	DRAWCIR recirx,reciry,recolo
					
				;next1:
					
					;更新上次鼠标位置为当前鼠标位置
 15F4  BF 0028 R			mov di,offset pos_lastx
 15F7  BE 0024 R			mov si,offset pos_cenx
 15FA  8B 04				mov ax,[si]
 15FC  89 05				mov [di],ax
					
 15FE  BF 002A R			mov di,offset pos_lasty
 1601  BE 0026 R			mov si,offset pos_ceny
 1604  8B 04				mov ax,[si]
 1606  89 05				mov [di],ax
					
 1608				loop1:
					;DRAW_CURSOR pos_lastx,pos_lasty,14
					
					;等待鼠标按键
 1608  B8 0003				mov ax,03h
 160B  CD 33				int 33h
 160D  83 FB 01				cmp bx,0001h
 1610  74 03 E9 EB30			jne again
					
					;得到离按键最近的棋盘点
					GET_POSNEARX cx
 1615  50		     1		push ax
 1616  53		     1		push bx
 1617  51		     1		push cx
 1618  52		     1		push dx
 1619  8B C1		     1		mov ax,cx
 161B  83 F8 1E		     1		cmp ax,30
 161E  72 23		     1		jb ??00A2
 1620  3D 01CC		     1		cmp ax,460
 1623  77 1E		     1		ja ??00A2
 1625  83 E8 1E		     1		sub ax,30
 1628  2B D2		     1		sub dx,dx
 162A  BB 0032		     1		mov bx,50
 162D  F7 F3		     1		div bx
 162F  83 FA 1E		     1		cmp dx,30
 1632  77 0F		     1		ja ??00A2
 1634  2B D2		     1		sub dx,dx
 1636  BA 0032		     1		mov dx,50
 1639  F7 E2		     1		mul dx
 163B  83 C0 2D		     1		add ax,45
 163E  A3 0024 R	     1		mov pos_cenx,ax
 1641  EB 06		     1		jmp ??00A3
 1643			     1	??00A2:
 1643  C7 06 0024 R 0000     1		mov pos_cenx,0
 1649			     1	??00A3:
 1649  5A		     1		pop dx
 164A  59		     1		pop cx
 164B  5B		     1		pop bx
 164C  58		     1		pop ax
					GET_POSNEARY dx
 164D  50		     1		push ax
 164E  53		     1		push bx
 164F  51		     1		push cx
 1650  52		     1		push dx
 1651  8B C2		     1		mov ax,dx
 1653  83 F8 1E		     1		cmp ax,30
 1656  72 23		     1		jb ??00A4
 1658  3D 01CC		     1		cmp ax,460
 165B  77 1E		     1		ja ??00A4
 165D  83 E8 1E		     1		sub ax,30
 1660  2B D2		     1		sub dx,dx
 1662  BB 0032		     1		mov bx,50
 1665  F7 F3		     1		div bx
 1667  83 FA 1E		     1		cmp dx,30
 166A  77 0F		     1		ja ??00A4
 166C  2B D2		     1		sub dx,dx
 166E  BA 0032		     1		mov dx,50
 1671  F7 E2		     1		mul dx
 1673  83 C0 2D		     1		add ax,45
 1676  A3 0026 R	     1		mov pos_ceny,ax
 1679  EB 06		     1		jmp ??00A5
 167B			     1	??00A4:
 167B  C7 06 0026 R 0000     1		mov pos_ceny,0
 1681			     1	??00A5:
 1681  5A		     1		pop dx
 1682  59		     1		pop cx
 1683  5B		     1		pop bx
 1684  58		     1		pop ax
 1685  E8 2CC3				call delay
					
					;判断范围对不对
 1688  83 3E 0024 R 00			cmp pos_cenx,0
 168D  75 03 E9 EAB3			jz again
 1692  83 3E 0026 R 00			cmp pos_ceny,0
 1697  75 03 E9 EAA9			jz again
					
					;判断此处有没有棋子
					JUDGE1 pos_cenx,pos_ceny
 169C  50		     1		push ax
 169D  53		     1		push bx
 169E  51		     1		push cx
 169F  52		     1		push dx
 16A0  A1 0024 R	     1		mov ax,pos_cenx
 16A3  83 E8 2D		     1		sub ax,45
 16A6  2B D2		     1		sub dx,dx
 16A8  BB 0032		     1		mov bx,50
 16AB  F7 F3		     1		div bx
 16AD  83 C0 04		     1		add ax,4
 16B0  A3 0153 R	     1		mov colx,ax;第几列
 16B3  A1 0026 R	     1		mov ax,pos_ceny
 16B6  83 E8 2D		     1		sub ax,45
 16B9  2B D2		     1		sub dx,dx
 16BB  BB 0032		     1		mov bx,50
 16BE  F7 F3		     1		div bx
 16C0  83 C0 04		     1		add ax,4
 16C3  A3 0151 R	     1		mov rowy,ax;第几行
 16C6  A1 0151 R	     1		mov ax,rowy
 16C9  BB 0011		     1		mov bx,17
 16CC  F7 E3		     1		mul bx
 16CE  03 06 0153 R	     1		add ax,colx
 16D2  A3 0121 R	     1		mov pianyi,ax
 16D5  2B C9		     1		sub cx,cx
 16D7  BB 0030 R	     1		mov bx,offset map0
 16DA  03 1E 0121 R	     1		add bx,pianyi
 16DE  8A 0F		     1		mov cl,[bx]
 16E0  80 F9 00		     1		cmp cl,0
 16E3  74 07		     1		jz ??00A6
 16E5  C6 06 0120 R 00	     1		mov jud1,0
 16EA  EB 05		     1		jmp ??00A7
 16EC			     1	??00A6:
 16EC  C6 06 0120 R 01	     1		mov jud1,1
 16F1			     1	??00A7:
 16F1  5A		     1		pop dx
 16F2  59		     1		pop cx
 16F3  5B		     1		pop bx
 16F4  58		     1		pop ax
 16F5  80 3E 0120 R 00			cmp jud1,0
 16FA  75 03 E9 EA46			jz again
					
					;如果没有则画棋子，并在map中标记
					DRAWCIR pos_cenx,pos_ceny,colo
 16FF  50		     2	       push ax
 1700  53		     2	       push bx
 1701  51		     2	       push cx
 1702  52		     2	       push dx
 1703  56		     2	       push si
 1704  57		     2	       push di
 1705  55		     2	       push bp
 1706  B4 0C		     2	       mov ah,0ch
 1708  A0 0131 R	     2	       mov al,colo
 170B  B7 00		     2	       mov bh,0
 170D  8B 0E 0024 R	     2	       mov cx,pos_cenx
 1711  8B 16 0026 R	     2	       mov dx,pos_ceny
 1715  BE 0000		     2	       mov si,0         ;X
 1718  BF 0014		     2	       mov di,20    ;Y
 171B  BD FFED		     2	       mov bp,1-20
 171E			     2	??00A8: 
 171E  3B F7		     2		   cmp si,di
 1720  7C 06		     2	       jl ??00A9
 1722  8D 1E 17BB R	     2	       lea bx,??00AE
 1726  FF E3		     2	       jmp bx
 1728			     2	??00A9:
 1728  46		     2		   inc si
 1729			     2	??00AA: 
 1729  83 FD 00		     2	       cmp bp,0
 172C  7D 09		     2	       jge ??00AB
 172E  03 EE		     2	       add bp,si
 1730  03 EE		     2	       add bp,si
 1732  83 C5 01		     2	       add bp,1
 1735  EB 0C		     2	       jmp ??00AC
 1737			     2	??00AB: 
 1737  4F		     2		   dec di
 1738  03 EE		     2	       add bp,si
 173A  03 EE		     2	       add bp,si
 173C  2B EF		     2	       sub bp,di
 173E  2B EF		     2	       sub bp,di
 1740  83 C5 01		     2	       add bp,1
 1743			     2	??00AC: 
 1743  B7 00		     2		   mov bh,0
 1745  8B 0E 0024 R	     2	       mov cx,pos_cenx
 1749  8B 16 0026 R	     2	       mov dx,pos_ceny
 174D  03 CE		     2	       add cx,si
 174F  03 D7		     2	       add dx,di
 1751  CD 10		     2	       int 10h
 1753  8B 0E 0024 R	     2	       mov cx,pos_cenx
 1757  8B 16 0026 R	     2	       mov dx,pos_ceny
 175B  2B CE		     2	       sub cx,si
 175D  03 D7		     2	       add dx,di
 175F  CD 10		     2	       int 10h
 1761  8B 0E 0024 R	     2	       mov cx,pos_cenx
 1765  8B 16 0026 R	     2	       mov dx,pos_ceny
 1769  03 CE		     2	       add cx,si
 176B  2B D7		     2	       sub dx,di
 176D  CD 10		     2	       int 10h
 176F  8B 0E 0024 R	     2	       mov cx,pos_cenx
 1773  8B 16 0026 R	     2	       mov dx,pos_ceny
 1777  2B CE		     2	       sub cx,si
 1779  2B D7		     2	       sub dx,di
 177B  CD 10		     2	       int 10h
 177D  8B 0E 0024 R	     2	       mov cx,pos_cenx
 1781  8B 16 0026 R	     2	       mov dx,pos_ceny
 1785  03 CF		     2	       add cx,di
 1787  03 D6		     2	       add dx,si
 1789  CD 10		     2	       int 10h
 178B  8B 0E 0024 R	     2	       mov cx,pos_cenx
 178F  8B 16 0026 R	     2	       mov dx,pos_ceny
 1793  2B CF		     2	       sub cx,di
 1795  03 D6		     2	       add dx,si
 1797  CD 10		     2	       int 10h
 1799  8B 0E 0024 R	     2	       mov cx,pos_cenx
 179D  8B 16 0026 R	     2	       mov dx,pos_ceny
 17A1  03 CF		     2	       add cx,di
 17A3  2B D6		     2	       sub dx,si
 17A5  CD 10		     2	       int 10h
 17A7  8B 0E 0024 R	     2	       mov cx,pos_cenx
 17AB  8B 16 0026 R	     2	       mov dx,pos_ceny
 17AF  2B CF		     2	       sub cx,di
 17B1  2B D6		     2	       sub dx,si
 17B3  CD 10		     2	       int 10h
 17B5			     2	??00AD: 
 17B5  8D 1E 171E R	     2		   lea bx,??00A8
 17B9  FF E3		     2	       jmp bx
 17BB			     2	??00AE:
 17BB  B4 0C		     2	       mov ah,0ch
 17BD  A0 0131 R	     2	       mov al,colo
 17C0  B7 00		     2	       mov bh,0
 17C2  8B 0E 0010 R	     2	       mov cx,pos_cenx-20
 17C6  8B 16 0026 R	     2	       mov dx,pos_ceny
 17CA  CD 10		     2	       int 10h
 17CC  8B 0E 0038 R	     2	       mov cx,pos_cenx+20
 17D0  8B 16 0026 R	     2	       mov dx,pos_ceny
 17D4  CD 10		     2	       int 10h
 17D6  8B 0E 0024 R	     2	       mov cx,pos_cenx
 17DA  8B 16 0012 R	     2	       mov dx,pos_ceny-20
 17DE  CD 10		     2	       int 10h
 17E0  8B 0E 0024 R	     2	       mov cx,pos_cenx
 17E4  8B 16 003A R	     2	       mov dx,pos_ceny+20
 17E8  CD 10		     2	       int 10h
 17EA  5D		     2	       pop bp
 17EB  5F		     2	       pop di
 17EC  5E		     2	       pop si
 17ED  5A		     2	       pop dx
 17EE  59		     2	       pop cx
 17EF  5B		     2	       pop bx
 17F0  58		     2	       pop ax
 17F1  50		     2	       push ax
 17F2  53		     2	       push bx
 17F3  51		     2	       push cx
 17F4  52		     2	       push dx
 17F5  56		     2	       push si
 17F6  57		     2	       push di
 17F7  55		     2	       push bp
 17F8  B4 0C		     2	       mov ah,0ch
 17FA  A0 0131 R	     2	       mov al,colo
 17FD  B7 00		     2	       mov bh,0
 17FF  8B 0E 0024 R	     2	       mov cx,pos_cenx
 1803  8B 16 0026 R	     2	       mov dx,pos_ceny
 1807  BE 0000		     2	       mov si,0         ;X
 180A  BF 0013		     2	       mov di,19    ;Y
 180D  BD FFEE		     2	       mov bp,1-19
 1810			     2	??00AF: 
 1810  3B F7		     2		   cmp si,di
 1812  7C 06		     2	       jl ??00B0
 1814  8D 1E 18AD R	     2	       lea bx,??00B5
 1818  FF E3		     2	       jmp bx
 181A			     2	??00B0:
 181A  46		     2		   inc si
 181B			     2	??00B1: 
 181B  83 FD 00		     2	       cmp bp,0
 181E  7D 09		     2	       jge ??00B2
 1820  03 EE		     2	       add bp,si
 1822  03 EE		     2	       add bp,si
 1824  83 C5 01		     2	       add bp,1
 1827  EB 0C		     2	       jmp ??00B3
 1829			     2	??00B2: 
 1829  4F		     2		   dec di
 182A  03 EE		     2	       add bp,si
 182C  03 EE		     2	       add bp,si
 182E  2B EF		     2	       sub bp,di
 1830  2B EF		     2	       sub bp,di
 1832  83 C5 01		     2	       add bp,1
 1835			     2	??00B3: 
 1835  B7 00		     2		   mov bh,0
 1837  8B 0E 0024 R	     2	       mov cx,pos_cenx
 183B  8B 16 0026 R	     2	       mov dx,pos_ceny
 183F  03 CE		     2	       add cx,si
 1841  03 D7		     2	       add dx,di
 1843  CD 10		     2	       int 10h
 1845  8B 0E 0024 R	     2	       mov cx,pos_cenx
 1849  8B 16 0026 R	     2	       mov dx,pos_ceny
 184D  2B CE		     2	       sub cx,si
 184F  03 D7		     2	       add dx,di
 1851  CD 10		     2	       int 10h
 1853  8B 0E 0024 R	     2	       mov cx,pos_cenx
 1857  8B 16 0026 R	     2	       mov dx,pos_ceny
 185B  03 CE		     2	       add cx,si
 185D  2B D7		     2	       sub dx,di
 185F  CD 10		     2	       int 10h
 1861  8B 0E 0024 R	     2	       mov cx,pos_cenx
 1865  8B 16 0026 R	     2	       mov dx,pos_ceny
 1869  2B CE		     2	       sub cx,si
 186B  2B D7		     2	       sub dx,di
 186D  CD 10		     2	       int 10h
 186F  8B 0E 0024 R	     2	       mov cx,pos_cenx
 1873  8B 16 0026 R	     2	       mov dx,pos_ceny
 1877  03 CF		     2	       add cx,di
 1879  03 D6		     2	       add dx,si
 187B  CD 10		     2	       int 10h
 187D  8B 0E 0024 R	     2	       mov cx,pos_cenx
 1881  8B 16 0026 R	     2	       mov dx,pos_ceny
 1885  2B CF		     2	       sub cx,di
 1887  03 D6		     2	       add dx,si
 1889  CD 10		     2	       int 10h
 188B  8B 0E 0024 R	     2	       mov cx,pos_cenx
 188F  8B 16 0026 R	     2	       mov dx,pos_ceny
 1893  03 CF		     2	       add cx,di
 1895  2B D6		     2	       sub dx,si
 1897  CD 10		     2	       int 10h
 1899  8B 0E 0024 R	     2	       mov cx,pos_cenx
 189D  8B 16 0026 R	     2	       mov dx,pos_ceny
 18A1  2B CF		     2	       sub cx,di
 18A3  2B D6		     2	       sub dx,si
 18A5  CD 10		     2	       int 10h
 18A7			     2	??00B4: 
 18A7  8D 1E 1810 R	     2		   lea bx,??00AF
 18AB  FF E3		     2	       jmp bx
 18AD			     2	??00B5:
 18AD  B4 0C		     2	       mov ah,0ch
 18AF  A0 0131 R	     2	       mov al,colo
 18B2  B7 00		     2	       mov bh,0
 18B4  8B 0E 0011 R	     2	       mov cx,pos_cenx-19
 18B8  8B 16 0026 R	     2	       mov dx,pos_ceny
 18BC  CD 10		     2	       int 10h
 18BE  8B 0E 0037 R	     2	       mov cx,pos_cenx+19
 18C2  8B 16 0026 R	     2	       mov dx,pos_ceny
 18C6  CD 10		     2	       int 10h
 18C8  8B 0E 0024 R	     2	       mov cx,pos_cenx
 18CC  8B 16 0013 R	     2	       mov dx,pos_ceny-19
 18D0  CD 10		     2	       int 10h
 18D2  8B 0E 0024 R	     2	       mov cx,pos_cenx
 18D6  8B 16 0039 R	     2	       mov dx,pos_ceny+19
 18DA  CD 10		     2	       int 10h
 18DC  5D		     2	       pop bp
 18DD  5F		     2	       pop di
 18DE  5E		     2	       pop si
 18DF  5A		     2	       pop dx
 18E0  59		     2	       pop cx
 18E1  5B		     2	       pop bx
 18E2  58		     2	       pop ax
 18E3  50		     2	       push ax
 18E4  53		     2	       push bx
 18E5  51		     2	       push cx
 18E6  52		     2	       push dx
 18E7  56		     2	       push si
 18E8  57		     2	       push di
 18E9  55		     2	       push bp
 18EA  B4 0C		     2	       mov ah,0ch
 18EC  A0 0131 R	     2	       mov al,colo
 18EF  B7 00		     2	       mov bh,0
 18F1  8B 0E 0024 R	     2	       mov cx,pos_cenx
 18F5  8B 16 0026 R	     2	       mov dx,pos_ceny
 18F9  BE 0000		     2	       mov si,0         ;X
 18FC  BF 0012		     2	       mov di,18    ;Y
 18FF  BD FFEF		     2	       mov bp,1-18
 1902			     2	??00B6: 
 1902  3B F7		     2		   cmp si,di
 1904  7C 06		     2	       jl ??00B7
 1906  8D 1E 199F R	     2	       lea bx,??00BC
 190A  FF E3		     2	       jmp bx
 190C			     2	??00B7:
 190C  46		     2		   inc si
 190D			     2	??00B8: 
 190D  83 FD 00		     2	       cmp bp,0
 1910  7D 09		     2	       jge ??00B9
 1912  03 EE		     2	       add bp,si
 1914  03 EE		     2	       add bp,si
 1916  83 C5 01		     2	       add bp,1
 1919  EB 0C		     2	       jmp ??00BA
 191B			     2	??00B9: 
 191B  4F		     2		   dec di
 191C  03 EE		     2	       add bp,si
 191E  03 EE		     2	       add bp,si
 1920  2B EF		     2	       sub bp,di
 1922  2B EF		     2	       sub bp,di
 1924  83 C5 01		     2	       add bp,1
 1927			     2	??00BA: 
 1927  B7 00		     2		   mov bh,0
 1929  8B 0E 0024 R	     2	       mov cx,pos_cenx
 192D  8B 16 0026 R	     2	       mov dx,pos_ceny
 1931  03 CE		     2	       add cx,si
 1933  03 D7		     2	       add dx,di
 1935  CD 10		     2	       int 10h
 1937  8B 0E 0024 R	     2	       mov cx,pos_cenx
 193B  8B 16 0026 R	     2	       mov dx,pos_ceny
 193F  2B CE		     2	       sub cx,si
 1941  03 D7		     2	       add dx,di
 1943  CD 10		     2	       int 10h
 1945  8B 0E 0024 R	     2	       mov cx,pos_cenx
 1949  8B 16 0026 R	     2	       mov dx,pos_ceny
 194D  03 CE		     2	       add cx,si
 194F  2B D7		     2	       sub dx,di
 1951  CD 10		     2	       int 10h
 1953  8B 0E 0024 R	     2	       mov cx,pos_cenx
 1957  8B 16 0026 R	     2	       mov dx,pos_ceny
 195B  2B CE		     2	       sub cx,si
 195D  2B D7		     2	       sub dx,di
 195F  CD 10		     2	       int 10h
 1961  8B 0E 0024 R	     2	       mov cx,pos_cenx
 1965  8B 16 0026 R	     2	       mov dx,pos_ceny
 1969  03 CF		     2	       add cx,di
 196B  03 D6		     2	       add dx,si
 196D  CD 10		     2	       int 10h
 196F  8B 0E 0024 R	     2	       mov cx,pos_cenx
 1973  8B 16 0026 R	     2	       mov dx,pos_ceny
 1977  2B CF		     2	       sub cx,di
 1979  03 D6		     2	       add dx,si
 197B  CD 10		     2	       int 10h
 197D  8B 0E 0024 R	     2	       mov cx,pos_cenx
 1981  8B 16 0026 R	     2	       mov dx,pos_ceny
 1985  03 CF		     2	       add cx,di
 1987  2B D6		     2	       sub dx,si
 1989  CD 10		     2	       int 10h
 198B  8B 0E 0024 R	     2	       mov cx,pos_cenx
 198F  8B 16 0026 R	     2	       mov dx,pos_ceny
 1993  2B CF		     2	       sub cx,di
 1995  2B D6		     2	       sub dx,si
 1997  CD 10		     2	       int 10h
 1999			     2	??00BB: 
 1999  8D 1E 1902 R	     2		   lea bx,??00B6
 199D  FF E3		     2	       jmp bx
 199F			     2	??00BC:
 199F  B4 0C		     2	       mov ah,0ch
 19A1  A0 0131 R	     2	       mov al,colo
 19A4  B7 00		     2	       mov bh,0
 19A6  8B 0E 0012 R	     2	       mov cx,pos_cenx-18
 19AA  8B 16 0026 R	     2	       mov dx,pos_ceny
 19AE  CD 10		     2	       int 10h
 19B0  8B 0E 0036 R	     2	       mov cx,pos_cenx+18
 19B4  8B 16 0026 R	     2	       mov dx,pos_ceny
 19B8  CD 10		     2	       int 10h
 19BA  8B 0E 0024 R	     2	       mov cx,pos_cenx
 19BE  8B 16 0014 R	     2	       mov dx,pos_ceny-18
 19C2  CD 10		     2	       int 10h
 19C4  8B 0E 0024 R	     2	       mov cx,pos_cenx
 19C8  8B 16 0038 R	     2	       mov dx,pos_ceny+18
 19CC  CD 10		     2	       int 10h
 19CE  5D		     2	       pop bp
 19CF  5F		     2	       pop di
 19D0  5E		     2	       pop si
 19D1  5A		     2	       pop dx
 19D2  59		     2	       pop cx
 19D3  5B		     2	       pop bx
 19D4  58		     2	       pop ax
 19D5  50		     2	       push ax
 19D6  53		     2	       push bx
 19D7  51		     2	       push cx
 19D8  52		     2	       push dx
 19D9  56		     2	       push si
 19DA  57		     2	       push di
 19DB  55		     2	       push bp
 19DC  B4 0C		     2	       mov ah,0ch
 19DE  A0 0131 R	     2	       mov al,colo
 19E1  B7 00		     2	       mov bh,0
 19E3  8B 0E 0024 R	     2	       mov cx,pos_cenx
 19E7  8B 16 0026 R	     2	       mov dx,pos_ceny
 19EB  BE 0000		     2	       mov si,0         ;X
 19EE  BF 0011		     2	       mov di,17    ;Y
 19F1  BD FFF0		     2	       mov bp,1-17
 19F4			     2	??00BD: 
 19F4  3B F7		     2		   cmp si,di
 19F6  7C 06		     2	       jl ??00BE
 19F8  8D 1E 1A91 R	     2	       lea bx,??00C3
 19FC  FF E3		     2	       jmp bx
 19FE			     2	??00BE:
 19FE  46		     2		   inc si
 19FF			     2	??00BF: 
 19FF  83 FD 00		     2	       cmp bp,0
 1A02  7D 09		     2	       jge ??00C0
 1A04  03 EE		     2	       add bp,si
 1A06  03 EE		     2	       add bp,si
 1A08  83 C5 01		     2	       add bp,1
 1A0B  EB 0C		     2	       jmp ??00C1
 1A0D			     2	??00C0: 
 1A0D  4F		     2		   dec di
 1A0E  03 EE		     2	       add bp,si
 1A10  03 EE		     2	       add bp,si
 1A12  2B EF		     2	       sub bp,di
 1A14  2B EF		     2	       sub bp,di
 1A16  83 C5 01		     2	       add bp,1
 1A19			     2	??00C1: 
 1A19  B7 00		     2		   mov bh,0
 1A1B  8B 0E 0024 R	     2	       mov cx,pos_cenx
 1A1F  8B 16 0026 R	     2	       mov dx,pos_ceny
 1A23  03 CE		     2	       add cx,si
 1A25  03 D7		     2	       add dx,di
 1A27  CD 10		     2	       int 10h
 1A29  8B 0E 0024 R	     2	       mov cx,pos_cenx
 1A2D  8B 16 0026 R	     2	       mov dx,pos_ceny
 1A31  2B CE		     2	       sub cx,si
 1A33  03 D7		     2	       add dx,di
 1A35  CD 10		     2	       int 10h
 1A37  8B 0E 0024 R	     2	       mov cx,pos_cenx
 1A3B  8B 16 0026 R	     2	       mov dx,pos_ceny
 1A3F  03 CE		     2	       add cx,si
 1A41  2B D7		     2	       sub dx,di
 1A43  CD 10		     2	       int 10h
 1A45  8B 0E 0024 R	     2	       mov cx,pos_cenx
 1A49  8B 16 0026 R	     2	       mov dx,pos_ceny
 1A4D  2B CE		     2	       sub cx,si
 1A4F  2B D7		     2	       sub dx,di
 1A51  CD 10		     2	       int 10h
 1A53  8B 0E 0024 R	     2	       mov cx,pos_cenx
 1A57  8B 16 0026 R	     2	       mov dx,pos_ceny
 1A5B  03 CF		     2	       add cx,di
 1A5D  03 D6		     2	       add dx,si
 1A5F  CD 10		     2	       int 10h
 1A61  8B 0E 0024 R	     2	       mov cx,pos_cenx
 1A65  8B 16 0026 R	     2	       mov dx,pos_ceny
 1A69  2B CF		     2	       sub cx,di
 1A6B  03 D6		     2	       add dx,si
 1A6D  CD 10		     2	       int 10h
 1A6F  8B 0E 0024 R	     2	       mov cx,pos_cenx
 1A73  8B 16 0026 R	     2	       mov dx,pos_ceny
 1A77  03 CF		     2	       add cx,di
 1A79  2B D6		     2	       sub dx,si
 1A7B  CD 10		     2	       int 10h
 1A7D  8B 0E 0024 R	     2	       mov cx,pos_cenx
 1A81  8B 16 0026 R	     2	       mov dx,pos_ceny
 1A85  2B CF		     2	       sub cx,di
 1A87  2B D6		     2	       sub dx,si
 1A89  CD 10		     2	       int 10h
 1A8B			     2	??00C2: 
 1A8B  8D 1E 19F4 R	     2		   lea bx,??00BD
 1A8F  FF E3		     2	       jmp bx
 1A91			     2	??00C3:
 1A91  B4 0C		     2	       mov ah,0ch
 1A93  A0 0131 R	     2	       mov al,colo
 1A96  B7 00		     2	       mov bh,0
 1A98  8B 0E 0013 R	     2	       mov cx,pos_cenx-17
 1A9C  8B 16 0026 R	     2	       mov dx,pos_ceny
 1AA0  CD 10		     2	       int 10h
 1AA2  8B 0E 0035 R	     2	       mov cx,pos_cenx+17
 1AA6  8B 16 0026 R	     2	       mov dx,pos_ceny
 1AAA  CD 10		     2	       int 10h
 1AAC  8B 0E 0024 R	     2	       mov cx,pos_cenx
 1AB0  8B 16 0015 R	     2	       mov dx,pos_ceny-17
 1AB4  CD 10		     2	       int 10h
 1AB6  8B 0E 0024 R	     2	       mov cx,pos_cenx
 1ABA  8B 16 0037 R	     2	       mov dx,pos_ceny+17
 1ABE  CD 10		     2	       int 10h
 1AC0  5D		     2	       pop bp
 1AC1  5F		     2	       pop di
 1AC2  5E		     2	       pop si
 1AC3  5A		     2	       pop dx
 1AC4  59		     2	       pop cx
 1AC5  5B		     2	       pop bx
 1AC6  58		     2	       pop ax
 1AC7  50		     2	       push ax
 1AC8  53		     2	       push bx
 1AC9  51		     2	       push cx
 1ACA  52		     2	       push dx
 1ACB  56		     2	       push si
 1ACC  57		     2	       push di
 1ACD  55		     2	       push bp
 1ACE  B4 0C		     2	       mov ah,0ch
 1AD0  A0 0131 R	     2	       mov al,colo
 1AD3  B7 00		     2	       mov bh,0
 1AD5  8B 0E 0024 R	     2	       mov cx,pos_cenx
 1AD9  8B 16 0026 R	     2	       mov dx,pos_ceny
 1ADD  BE 0000		     2	       mov si,0         ;X
 1AE0  BF 0010		     2	       mov di,16    ;Y
 1AE3  BD FFF1		     2	       mov bp,1-16
 1AE6			     2	??00C4: 
 1AE6  3B F7		     2		   cmp si,di
 1AE8  7C 06		     2	       jl ??00C5
 1AEA  8D 1E 1B83 R	     2	       lea bx,??00CA
 1AEE  FF E3		     2	       jmp bx
 1AF0			     2	??00C5:
 1AF0  46		     2		   inc si
 1AF1			     2	??00C6: 
 1AF1  83 FD 00		     2	       cmp bp,0
 1AF4  7D 09		     2	       jge ??00C7
 1AF6  03 EE		     2	       add bp,si
 1AF8  03 EE		     2	       add bp,si
 1AFA  83 C5 01		     2	       add bp,1
 1AFD  EB 0C		     2	       jmp ??00C8
 1AFF			     2	??00C7: 
 1AFF  4F		     2		   dec di
 1B00  03 EE		     2	       add bp,si
 1B02  03 EE		     2	       add bp,si
 1B04  2B EF		     2	       sub bp,di
 1B06  2B EF		     2	       sub bp,di
 1B08  83 C5 01		     2	       add bp,1
 1B0B			     2	??00C8: 
 1B0B  B7 00		     2		   mov bh,0
 1B0D  8B 0E 0024 R	     2	       mov cx,pos_cenx
 1B11  8B 16 0026 R	     2	       mov dx,pos_ceny
 1B15  03 CE		     2	       add cx,si
 1B17  03 D7		     2	       add dx,di
 1B19  CD 10		     2	       int 10h
 1B1B  8B 0E 0024 R	     2	       mov cx,pos_cenx
 1B1F  8B 16 0026 R	     2	       mov dx,pos_ceny
 1B23  2B CE		     2	       sub cx,si
 1B25  03 D7		     2	       add dx,di
 1B27  CD 10		     2	       int 10h
 1B29  8B 0E 0024 R	     2	       mov cx,pos_cenx
 1B2D  8B 16 0026 R	     2	       mov dx,pos_ceny
 1B31  03 CE		     2	       add cx,si
 1B33  2B D7		     2	       sub dx,di
 1B35  CD 10		     2	       int 10h
 1B37  8B 0E 0024 R	     2	       mov cx,pos_cenx
 1B3B  8B 16 0026 R	     2	       mov dx,pos_ceny
 1B3F  2B CE		     2	       sub cx,si
 1B41  2B D7		     2	       sub dx,di
 1B43  CD 10		     2	       int 10h
 1B45  8B 0E 0024 R	     2	       mov cx,pos_cenx
 1B49  8B 16 0026 R	     2	       mov dx,pos_ceny
 1B4D  03 CF		     2	       add cx,di
 1B4F  03 D6		     2	       add dx,si
 1B51  CD 10		     2	       int 10h
 1B53  8B 0E 0024 R	     2	       mov cx,pos_cenx
 1B57  8B 16 0026 R	     2	       mov dx,pos_ceny
 1B5B  2B CF		     2	       sub cx,di
 1B5D  03 D6		     2	       add dx,si
 1B5F  CD 10		     2	       int 10h
 1B61  8B 0E 0024 R	     2	       mov cx,pos_cenx
 1B65  8B 16 0026 R	     2	       mov dx,pos_ceny
 1B69  03 CF		     2	       add cx,di
 1B6B  2B D6		     2	       sub dx,si
 1B6D  CD 10		     2	       int 10h
 1B6F  8B 0E 0024 R	     2	       mov cx,pos_cenx
 1B73  8B 16 0026 R	     2	       mov dx,pos_ceny
 1B77  2B CF		     2	       sub cx,di
 1B79  2B D6		     2	       sub dx,si
 1B7B  CD 10		     2	       int 10h
 1B7D			     2	??00C9: 
 1B7D  8D 1E 1AE6 R	     2		   lea bx,??00C4
 1B81  FF E3		     2	       jmp bx
 1B83			     2	??00CA:
 1B83  B4 0C		     2	       mov ah,0ch
 1B85  A0 0131 R	     2	       mov al,colo
 1B88  B7 00		     2	       mov bh,0
 1B8A  8B 0E 0014 R	     2	       mov cx,pos_cenx-16
 1B8E  8B 16 0026 R	     2	       mov dx,pos_ceny
 1B92  CD 10		     2	       int 10h
 1B94  8B 0E 0034 R	     2	       mov cx,pos_cenx+16
 1B98  8B 16 0026 R	     2	       mov dx,pos_ceny
 1B9C  CD 10		     2	       int 10h
 1B9E  8B 0E 0024 R	     2	       mov cx,pos_cenx
 1BA2  8B 16 0016 R	     2	       mov dx,pos_ceny-16
 1BA6  CD 10		     2	       int 10h
 1BA8  8B 0E 0024 R	     2	       mov cx,pos_cenx
 1BAC  8B 16 0036 R	     2	       mov dx,pos_ceny+16
 1BB0  CD 10		     2	       int 10h
 1BB2  5D		     2	       pop bp
 1BB3  5F		     2	       pop di
 1BB4  5E		     2	       pop si
 1BB5  5A		     2	       pop dx
 1BB6  59		     2	       pop cx
 1BB7  5B		     2	       pop bx
 1BB8  58		     2	       pop ax
 1BB9  50		     2	       push ax
 1BBA  53		     2	       push bx
 1BBB  51		     2	       push cx
 1BBC  52		     2	       push dx
 1BBD  56		     2	       push si
 1BBE  57		     2	       push di
 1BBF  55		     2	       push bp
 1BC0  B4 0C		     2	       mov ah,0ch
 1BC2  A0 0131 R	     2	       mov al,colo
 1BC5  B7 00		     2	       mov bh,0
 1BC7  8B 0E 0024 R	     2	       mov cx,pos_cenx
 1BCB  8B 16 0026 R	     2	       mov dx,pos_ceny
 1BCF  BE 0000		     2	       mov si,0         ;X
 1BD2  BF 000F		     2	       mov di,15    ;Y
 1BD5  BD FFF2		     2	       mov bp,1-15
 1BD8			     2	??00CB: 
 1BD8  3B F7		     2		   cmp si,di
 1BDA  7C 06		     2	       jl ??00CC
 1BDC  8D 1E 1C75 R	     2	       lea bx,??00D1
 1BE0  FF E3		     2	       jmp bx
 1BE2			     2	??00CC:
 1BE2  46		     2		   inc si
 1BE3			     2	??00CD: 
 1BE3  83 FD 00		     2	       cmp bp,0
 1BE6  7D 09		     2	       jge ??00CE
 1BE8  03 EE		     2	       add bp,si
 1BEA  03 EE		     2	       add bp,si
 1BEC  83 C5 01		     2	       add bp,1
 1BEF  EB 0C		     2	       jmp ??00CF
 1BF1			     2	??00CE: 
 1BF1  4F		     2		   dec di
 1BF2  03 EE		     2	       add bp,si
 1BF4  03 EE		     2	       add bp,si
 1BF6  2B EF		     2	       sub bp,di
 1BF8  2B EF		     2	       sub bp,di
 1BFA  83 C5 01		     2	       add bp,1
 1BFD			     2	??00CF: 
 1BFD  B7 00		     2		   mov bh,0
 1BFF  8B 0E 0024 R	     2	       mov cx,pos_cenx
 1C03  8B 16 0026 R	     2	       mov dx,pos_ceny
 1C07  03 CE		     2	       add cx,si
 1C09  03 D7		     2	       add dx,di
 1C0B  CD 10		     2	       int 10h
 1C0D  8B 0E 0024 R	     2	       mov cx,pos_cenx
 1C11  8B 16 0026 R	     2	       mov dx,pos_ceny
 1C15  2B CE		     2	       sub cx,si
 1C17  03 D7		     2	       add dx,di
 1C19  CD 10		     2	       int 10h
 1C1B  8B 0E 0024 R	     2	       mov cx,pos_cenx
 1C1F  8B 16 0026 R	     2	       mov dx,pos_ceny
 1C23  03 CE		     2	       add cx,si
 1C25  2B D7		     2	       sub dx,di
 1C27  CD 10		     2	       int 10h
 1C29  8B 0E 0024 R	     2	       mov cx,pos_cenx
 1C2D  8B 16 0026 R	     2	       mov dx,pos_ceny
 1C31  2B CE		     2	       sub cx,si
 1C33  2B D7		     2	       sub dx,di
 1C35  CD 10		     2	       int 10h
 1C37  8B 0E 0024 R	     2	       mov cx,pos_cenx
 1C3B  8B 16 0026 R	     2	       mov dx,pos_ceny
 1C3F  03 CF		     2	       add cx,di
 1C41  03 D6		     2	       add dx,si
 1C43  CD 10		     2	       int 10h
 1C45  8B 0E 0024 R	     2	       mov cx,pos_cenx
 1C49  8B 16 0026 R	     2	       mov dx,pos_ceny
 1C4D  2B CF		     2	       sub cx,di
 1C4F  03 D6		     2	       add dx,si
 1C51  CD 10		     2	       int 10h
 1C53  8B 0E 0024 R	     2	       mov cx,pos_cenx
 1C57  8B 16 0026 R	     2	       mov dx,pos_ceny
 1C5B  03 CF		     2	       add cx,di
 1C5D  2B D6		     2	       sub dx,si
 1C5F  CD 10		     2	       int 10h
 1C61  8B 0E 0024 R	     2	       mov cx,pos_cenx
 1C65  8B 16 0026 R	     2	       mov dx,pos_ceny
 1C69  2B CF		     2	       sub cx,di
 1C6B  2B D6		     2	       sub dx,si
 1C6D  CD 10		     2	       int 10h
 1C6F			     2	??00D0: 
 1C6F  8D 1E 1BD8 R	     2		   lea bx,??00CB
 1C73  FF E3		     2	       jmp bx
 1C75			     2	??00D1:
 1C75  B4 0C		     2	       mov ah,0ch
 1C77  A0 0131 R	     2	       mov al,colo
 1C7A  B7 00		     2	       mov bh,0
 1C7C  8B 0E 0015 R	     2	       mov cx,pos_cenx-15
 1C80  8B 16 0026 R	     2	       mov dx,pos_ceny
 1C84  CD 10		     2	       int 10h
 1C86  8B 0E 0033 R	     2	       mov cx,pos_cenx+15
 1C8A  8B 16 0026 R	     2	       mov dx,pos_ceny
 1C8E  CD 10		     2	       int 10h
 1C90  8B 0E 0024 R	     2	       mov cx,pos_cenx
 1C94  8B 16 0017 R	     2	       mov dx,pos_ceny-15
 1C98  CD 10		     2	       int 10h
 1C9A  8B 0E 0024 R	     2	       mov cx,pos_cenx
 1C9E  8B 16 0035 R	     2	       mov dx,pos_ceny+15
 1CA2  CD 10		     2	       int 10h
 1CA4  5D		     2	       pop bp
 1CA5  5F		     2	       pop di
 1CA6  5E		     2	       pop si
 1CA7  5A		     2	       pop dx
 1CA8  59		     2	       pop cx
 1CA9  5B		     2	       pop bx
 1CAA  58		     2	       pop ax
 1CAB  50		     2	       push ax
 1CAC  53		     2	       push bx
 1CAD  51		     2	       push cx
 1CAE  52		     2	       push dx
 1CAF  56		     2	       push si
 1CB0  57		     2	       push di
 1CB1  55		     2	       push bp
 1CB2  B4 0C		     2	       mov ah,0ch
 1CB4  A0 0131 R	     2	       mov al,colo
 1CB7  B7 00		     2	       mov bh,0
 1CB9  8B 0E 0024 R	     2	       mov cx,pos_cenx
 1CBD  8B 16 0026 R	     2	       mov dx,pos_ceny
 1CC1  BE 0000		     2	       mov si,0         ;X
 1CC4  BF 000E		     2	       mov di,14    ;Y
 1CC7  BD FFF3		     2	       mov bp,1-14
 1CCA			     2	??00D2: 
 1CCA  3B F7		     2		   cmp si,di
 1CCC  7C 06		     2	       jl ??00D3
 1CCE  8D 1E 1D67 R	     2	       lea bx,??00D8
 1CD2  FF E3		     2	       jmp bx
 1CD4			     2	??00D3:
 1CD4  46		     2		   inc si
 1CD5			     2	??00D4: 
 1CD5  83 FD 00		     2	       cmp bp,0
 1CD8  7D 09		     2	       jge ??00D5
 1CDA  03 EE		     2	       add bp,si
 1CDC  03 EE		     2	       add bp,si
 1CDE  83 C5 01		     2	       add bp,1
 1CE1  EB 0C		     2	       jmp ??00D6
 1CE3			     2	??00D5: 
 1CE3  4F		     2		   dec di
 1CE4  03 EE		     2	       add bp,si
 1CE6  03 EE		     2	       add bp,si
 1CE8  2B EF		     2	       sub bp,di
 1CEA  2B EF		     2	       sub bp,di
 1CEC  83 C5 01		     2	       add bp,1
 1CEF			     2	??00D6: 
 1CEF  B7 00		     2		   mov bh,0
 1CF1  8B 0E 0024 R	     2	       mov cx,pos_cenx
 1CF5  8B 16 0026 R	     2	       mov dx,pos_ceny
 1CF9  03 CE		     2	       add cx,si
 1CFB  03 D7		     2	       add dx,di
 1CFD  CD 10		     2	       int 10h
 1CFF  8B 0E 0024 R	     2	       mov cx,pos_cenx
 1D03  8B 16 0026 R	     2	       mov dx,pos_ceny
 1D07  2B CE		     2	       sub cx,si
 1D09  03 D7		     2	       add dx,di
 1D0B  CD 10		     2	       int 10h
 1D0D  8B 0E 0024 R	     2	       mov cx,pos_cenx
 1D11  8B 16 0026 R	     2	       mov dx,pos_ceny
 1D15  03 CE		     2	       add cx,si
 1D17  2B D7		     2	       sub dx,di
 1D19  CD 10		     2	       int 10h
 1D1B  8B 0E 0024 R	     2	       mov cx,pos_cenx
 1D1F  8B 16 0026 R	     2	       mov dx,pos_ceny
 1D23  2B CE		     2	       sub cx,si
 1D25  2B D7		     2	       sub dx,di
 1D27  CD 10		     2	       int 10h
 1D29  8B 0E 0024 R	     2	       mov cx,pos_cenx
 1D2D  8B 16 0026 R	     2	       mov dx,pos_ceny
 1D31  03 CF		     2	       add cx,di
 1D33  03 D6		     2	       add dx,si
 1D35  CD 10		     2	       int 10h
 1D37  8B 0E 0024 R	     2	       mov cx,pos_cenx
 1D3B  8B 16 0026 R	     2	       mov dx,pos_ceny
 1D3F  2B CF		     2	       sub cx,di
 1D41  03 D6		     2	       add dx,si
 1D43  CD 10		     2	       int 10h
 1D45  8B 0E 0024 R	     2	       mov cx,pos_cenx
 1D49  8B 16 0026 R	     2	       mov dx,pos_ceny
 1D4D  03 CF		     2	       add cx,di
 1D4F  2B D6		     2	       sub dx,si
 1D51  CD 10		     2	       int 10h
 1D53  8B 0E 0024 R	     2	       mov cx,pos_cenx
 1D57  8B 16 0026 R	     2	       mov dx,pos_ceny
 1D5B  2B CF		     2	       sub cx,di
 1D5D  2B D6		     2	       sub dx,si
 1D5F  CD 10		     2	       int 10h
 1D61			     2	??00D7: 
 1D61  8D 1E 1CCA R	     2		   lea bx,??00D2
 1D65  FF E3		     2	       jmp bx
 1D67			     2	??00D8:
 1D67  B4 0C		     2	       mov ah,0ch
 1D69  A0 0131 R	     2	       mov al,colo
 1D6C  B7 00		     2	       mov bh,0
 1D6E  8B 0E 0016 R	     2	       mov cx,pos_cenx-14
 1D72  8B 16 0026 R	     2	       mov dx,pos_ceny
 1D76  CD 10		     2	       int 10h
 1D78  8B 0E 0032 R	     2	       mov cx,pos_cenx+14
 1D7C  8B 16 0026 R	     2	       mov dx,pos_ceny
 1D80  CD 10		     2	       int 10h
 1D82  8B 0E 0024 R	     2	       mov cx,pos_cenx
 1D86  8B 16 0018 R	     2	       mov dx,pos_ceny-14
 1D8A  CD 10		     2	       int 10h
 1D8C  8B 0E 0024 R	     2	       mov cx,pos_cenx
 1D90  8B 16 0034 R	     2	       mov dx,pos_ceny+14
 1D94  CD 10		     2	       int 10h
 1D96  5D		     2	       pop bp
 1D97  5F		     2	       pop di
 1D98  5E		     2	       pop si
 1D99  5A		     2	       pop dx
 1D9A  59		     2	       pop cx
 1D9B  5B		     2	       pop bx
 1D9C  58		     2	       pop ax
 1D9D  50		     2	       push ax
 1D9E  53		     2	       push bx
 1D9F  51		     2	       push cx
 1DA0  52		     2	       push dx
 1DA1  56		     2	       push si
 1DA2  57		     2	       push di
 1DA3  55		     2	       push bp
 1DA4  B4 0C		     2	       mov ah,0ch
 1DA6  A0 0131 R	     2	       mov al,colo
 1DA9  B7 00		     2	       mov bh,0
 1DAB  8B 0E 0024 R	     2	       mov cx,pos_cenx
 1DAF  8B 16 0026 R	     2	       mov dx,pos_ceny
 1DB3  BE 0000		     2	       mov si,0         ;X
 1DB6  BF 000D		     2	       mov di,13    ;Y
 1DB9  BD FFF4		     2	       mov bp,1-13
 1DBC			     2	??00D9: 
 1DBC  3B F7		     2		   cmp si,di
 1DBE  7C 06		     2	       jl ??00DA
 1DC0  8D 1E 1E59 R	     2	       lea bx,??00DF
 1DC4  FF E3		     2	       jmp bx
 1DC6			     2	??00DA:
 1DC6  46		     2		   inc si
 1DC7			     2	??00DB: 
 1DC7  83 FD 00		     2	       cmp bp,0
 1DCA  7D 09		     2	       jge ??00DC
 1DCC  03 EE		     2	       add bp,si
 1DCE  03 EE		     2	       add bp,si
 1DD0  83 C5 01		     2	       add bp,1
 1DD3  EB 0C		     2	       jmp ??00DD
 1DD5			     2	??00DC: 
 1DD5  4F		     2		   dec di
 1DD6  03 EE		     2	       add bp,si
 1DD8  03 EE		     2	       add bp,si
 1DDA  2B EF		     2	       sub bp,di
 1DDC  2B EF		     2	       sub bp,di
 1DDE  83 C5 01		     2	       add bp,1
 1DE1			     2	??00DD: 
 1DE1  B7 00		     2		   mov bh,0
 1DE3  8B 0E 0024 R	     2	       mov cx,pos_cenx
 1DE7  8B 16 0026 R	     2	       mov dx,pos_ceny
 1DEB  03 CE		     2	       add cx,si
 1DED  03 D7		     2	       add dx,di
 1DEF  CD 10		     2	       int 10h
 1DF1  8B 0E 0024 R	     2	       mov cx,pos_cenx
 1DF5  8B 16 0026 R	     2	       mov dx,pos_ceny
 1DF9  2B CE		     2	       sub cx,si
 1DFB  03 D7		     2	       add dx,di
 1DFD  CD 10		     2	       int 10h
 1DFF  8B 0E 0024 R	     2	       mov cx,pos_cenx
 1E03  8B 16 0026 R	     2	       mov dx,pos_ceny
 1E07  03 CE		     2	       add cx,si
 1E09  2B D7		     2	       sub dx,di
 1E0B  CD 10		     2	       int 10h
 1E0D  8B 0E 0024 R	     2	       mov cx,pos_cenx
 1E11  8B 16 0026 R	     2	       mov dx,pos_ceny
 1E15  2B CE		     2	       sub cx,si
 1E17  2B D7		     2	       sub dx,di
 1E19  CD 10		     2	       int 10h
 1E1B  8B 0E 0024 R	     2	       mov cx,pos_cenx
 1E1F  8B 16 0026 R	     2	       mov dx,pos_ceny
 1E23  03 CF		     2	       add cx,di
 1E25  03 D6		     2	       add dx,si
 1E27  CD 10		     2	       int 10h
 1E29  8B 0E 0024 R	     2	       mov cx,pos_cenx
 1E2D  8B 16 0026 R	     2	       mov dx,pos_ceny
 1E31  2B CF		     2	       sub cx,di
 1E33  03 D6		     2	       add dx,si
 1E35  CD 10		     2	       int 10h
 1E37  8B 0E 0024 R	     2	       mov cx,pos_cenx
 1E3B  8B 16 0026 R	     2	       mov dx,pos_ceny
 1E3F  03 CF		     2	       add cx,di
 1E41  2B D6		     2	       sub dx,si
 1E43  CD 10		     2	       int 10h
 1E45  8B 0E 0024 R	     2	       mov cx,pos_cenx
 1E49  8B 16 0026 R	     2	       mov dx,pos_ceny
 1E4D  2B CF		     2	       sub cx,di
 1E4F  2B D6		     2	       sub dx,si
 1E51  CD 10		     2	       int 10h
 1E53			     2	??00DE: 
 1E53  8D 1E 1DBC R	     2		   lea bx,??00D9
 1E57  FF E3		     2	       jmp bx
 1E59			     2	??00DF:
 1E59  B4 0C		     2	       mov ah,0ch
 1E5B  A0 0131 R	     2	       mov al,colo
 1E5E  B7 00		     2	       mov bh,0
 1E60  8B 0E 0017 R	     2	       mov cx,pos_cenx-13
 1E64  8B 16 0026 R	     2	       mov dx,pos_ceny
 1E68  CD 10		     2	       int 10h
 1E6A  8B 0E 0031 R	     2	       mov cx,pos_cenx+13
 1E6E  8B 16 0026 R	     2	       mov dx,pos_ceny
 1E72  CD 10		     2	       int 10h
 1E74  8B 0E 0024 R	     2	       mov cx,pos_cenx
 1E78  8B 16 0019 R	     2	       mov dx,pos_ceny-13
 1E7C  CD 10		     2	       int 10h
 1E7E  8B 0E 0024 R	     2	       mov cx,pos_cenx
 1E82  8B 16 0033 R	     2	       mov dx,pos_ceny+13
 1E86  CD 10		     2	       int 10h
 1E88  5D		     2	       pop bp
 1E89  5F		     2	       pop di
 1E8A  5E		     2	       pop si
 1E8B  5A		     2	       pop dx
 1E8C  59		     2	       pop cx
 1E8D  5B		     2	       pop bx
 1E8E  58		     2	       pop ax
 1E8F  50		     2	       push ax
 1E90  53		     2	       push bx
 1E91  51		     2	       push cx
 1E92  52		     2	       push dx
 1E93  56		     2	       push si
 1E94  57		     2	       push di
 1E95  55		     2	       push bp
 1E96  B4 0C		     2	       mov ah,0ch
 1E98  A0 0131 R	     2	       mov al,colo
 1E9B  B7 00		     2	       mov bh,0
 1E9D  8B 0E 0024 R	     2	       mov cx,pos_cenx
 1EA1  8B 16 0026 R	     2	       mov dx,pos_ceny
 1EA5  BE 0000		     2	       mov si,0         ;X
 1EA8  BF 000C		     2	       mov di,12    ;Y
 1EAB  BD FFF5		     2	       mov bp,1-12
 1EAE			     2	??00E0: 
 1EAE  3B F7		     2		   cmp si,di
 1EB0  7C 06		     2	       jl ??00E1
 1EB2  8D 1E 1F4B R	     2	       lea bx,??00E6
 1EB6  FF E3		     2	       jmp bx
 1EB8			     2	??00E1:
 1EB8  46		     2		   inc si
 1EB9			     2	??00E2: 
 1EB9  83 FD 00		     2	       cmp bp,0
 1EBC  7D 09		     2	       jge ??00E3
 1EBE  03 EE		     2	       add bp,si
 1EC0  03 EE		     2	       add bp,si
 1EC2  83 C5 01		     2	       add bp,1
 1EC5  EB 0C		     2	       jmp ??00E4
 1EC7			     2	??00E3: 
 1EC7  4F		     2		   dec di
 1EC8  03 EE		     2	       add bp,si
 1ECA  03 EE		     2	       add bp,si
 1ECC  2B EF		     2	       sub bp,di
 1ECE  2B EF		     2	       sub bp,di
 1ED0  83 C5 01		     2	       add bp,1
 1ED3			     2	??00E4: 
 1ED3  B7 00		     2		   mov bh,0
 1ED5  8B 0E 0024 R	     2	       mov cx,pos_cenx
 1ED9  8B 16 0026 R	     2	       mov dx,pos_ceny
 1EDD  03 CE		     2	       add cx,si
 1EDF  03 D7		     2	       add dx,di
 1EE1  CD 10		     2	       int 10h
 1EE3  8B 0E 0024 R	     2	       mov cx,pos_cenx
 1EE7  8B 16 0026 R	     2	       mov dx,pos_ceny
 1EEB  2B CE		     2	       sub cx,si
 1EED  03 D7		     2	       add dx,di
 1EEF  CD 10		     2	       int 10h
 1EF1  8B 0E 0024 R	     2	       mov cx,pos_cenx
 1EF5  8B 16 0026 R	     2	       mov dx,pos_ceny
 1EF9  03 CE		     2	       add cx,si
 1EFB  2B D7		     2	       sub dx,di
 1EFD  CD 10		     2	       int 10h
 1EFF  8B 0E 0024 R	     2	       mov cx,pos_cenx
 1F03  8B 16 0026 R	     2	       mov dx,pos_ceny
 1F07  2B CE		     2	       sub cx,si
 1F09  2B D7		     2	       sub dx,di
 1F0B  CD 10		     2	       int 10h
 1F0D  8B 0E 0024 R	     2	       mov cx,pos_cenx
 1F11  8B 16 0026 R	     2	       mov dx,pos_ceny
 1F15  03 CF		     2	       add cx,di
 1F17  03 D6		     2	       add dx,si
 1F19  CD 10		     2	       int 10h
 1F1B  8B 0E 0024 R	     2	       mov cx,pos_cenx
 1F1F  8B 16 0026 R	     2	       mov dx,pos_ceny
 1F23  2B CF		     2	       sub cx,di
 1F25  03 D6		     2	       add dx,si
 1F27  CD 10		     2	       int 10h
 1F29  8B 0E 0024 R	     2	       mov cx,pos_cenx
 1F2D  8B 16 0026 R	     2	       mov dx,pos_ceny
 1F31  03 CF		     2	       add cx,di
 1F33  2B D6		     2	       sub dx,si
 1F35  CD 10		     2	       int 10h
 1F37  8B 0E 0024 R	     2	       mov cx,pos_cenx
 1F3B  8B 16 0026 R	     2	       mov dx,pos_ceny
 1F3F  2B CF		     2	       sub cx,di
 1F41  2B D6		     2	       sub dx,si
 1F43  CD 10		     2	       int 10h
 1F45			     2	??00E5: 
 1F45  8D 1E 1EAE R	     2		   lea bx,??00E0
 1F49  FF E3		     2	       jmp bx
 1F4B			     2	??00E6:
 1F4B  B4 0C		     2	       mov ah,0ch
 1F4D  A0 0131 R	     2	       mov al,colo
 1F50  B7 00		     2	       mov bh,0
 1F52  8B 0E 0018 R	     2	       mov cx,pos_cenx-12
 1F56  8B 16 0026 R	     2	       mov dx,pos_ceny
 1F5A  CD 10		     2	       int 10h
 1F5C  8B 0E 0030 R	     2	       mov cx,pos_cenx+12
 1F60  8B 16 0026 R	     2	       mov dx,pos_ceny
 1F64  CD 10		     2	       int 10h
 1F66  8B 0E 0024 R	     2	       mov cx,pos_cenx
 1F6A  8B 16 001A R	     2	       mov dx,pos_ceny-12
 1F6E  CD 10		     2	       int 10h
 1F70  8B 0E 0024 R	     2	       mov cx,pos_cenx
 1F74  8B 16 0032 R	     2	       mov dx,pos_ceny+12
 1F78  CD 10		     2	       int 10h
 1F7A  5D		     2	       pop bp
 1F7B  5F		     2	       pop di
 1F7C  5E		     2	       pop si
 1F7D  5A		     2	       pop dx
 1F7E  59		     2	       pop cx
 1F7F  5B		     2	       pop bx
 1F80  58		     2	       pop ax
 1F81  50		     2	       push ax
 1F82  53		     2	       push bx
 1F83  51		     2	       push cx
 1F84  52		     2	       push dx
 1F85  56		     2	       push si
 1F86  57		     2	       push di
 1F87  55		     2	       push bp
 1F88  B4 0C		     2	       mov ah,0ch
 1F8A  A0 0131 R	     2	       mov al,colo
 1F8D  B7 00		     2	       mov bh,0
 1F8F  8B 0E 0024 R	     2	       mov cx,pos_cenx
 1F93  8B 16 0026 R	     2	       mov dx,pos_ceny
 1F97  BE 0000		     2	       mov si,0         ;X
 1F9A  BF 000B		     2	       mov di,11    ;Y
 1F9D  BD FFF6		     2	       mov bp,1-11
 1FA0			     2	??00E7: 
 1FA0  3B F7		     2		   cmp si,di
 1FA2  7C 06		     2	       jl ??00E8
 1FA4  8D 1E 203D R	     2	       lea bx,??00ED
 1FA8  FF E3		     2	       jmp bx
 1FAA			     2	??00E8:
 1FAA  46		     2		   inc si
 1FAB			     2	??00E9: 
 1FAB  83 FD 00		     2	       cmp bp,0
 1FAE  7D 09		     2	       jge ??00EA
 1FB0  03 EE		     2	       add bp,si
 1FB2  03 EE		     2	       add bp,si
 1FB4  83 C5 01		     2	       add bp,1
 1FB7  EB 0C		     2	       jmp ??00EB
 1FB9			     2	??00EA: 
 1FB9  4F		     2		   dec di
 1FBA  03 EE		     2	       add bp,si
 1FBC  03 EE		     2	       add bp,si
 1FBE  2B EF		     2	       sub bp,di
 1FC0  2B EF		     2	       sub bp,di
 1FC2  83 C5 01		     2	       add bp,1
 1FC5			     2	??00EB: 
 1FC5  B7 00		     2		   mov bh,0
 1FC7  8B 0E 0024 R	     2	       mov cx,pos_cenx
 1FCB  8B 16 0026 R	     2	       mov dx,pos_ceny
 1FCF  03 CE		     2	       add cx,si
 1FD1  03 D7		     2	       add dx,di
 1FD3  CD 10		     2	       int 10h
 1FD5  8B 0E 0024 R	     2	       mov cx,pos_cenx
 1FD9  8B 16 0026 R	     2	       mov dx,pos_ceny
 1FDD  2B CE		     2	       sub cx,si
 1FDF  03 D7		     2	       add dx,di
 1FE1  CD 10		     2	       int 10h
 1FE3  8B 0E 0024 R	     2	       mov cx,pos_cenx
 1FE7  8B 16 0026 R	     2	       mov dx,pos_ceny
 1FEB  03 CE		     2	       add cx,si
 1FED  2B D7		     2	       sub dx,di
 1FEF  CD 10		     2	       int 10h
 1FF1  8B 0E 0024 R	     2	       mov cx,pos_cenx
 1FF5  8B 16 0026 R	     2	       mov dx,pos_ceny
 1FF9  2B CE		     2	       sub cx,si
 1FFB  2B D7		     2	       sub dx,di
 1FFD  CD 10		     2	       int 10h
 1FFF  8B 0E 0024 R	     2	       mov cx,pos_cenx
 2003  8B 16 0026 R	     2	       mov dx,pos_ceny
 2007  03 CF		     2	       add cx,di
 2009  03 D6		     2	       add dx,si
 200B  CD 10		     2	       int 10h
 200D  8B 0E 0024 R	     2	       mov cx,pos_cenx
 2011  8B 16 0026 R	     2	       mov dx,pos_ceny
 2015  2B CF		     2	       sub cx,di
 2017  03 D6		     2	       add dx,si
 2019  CD 10		     2	       int 10h
 201B  8B 0E 0024 R	     2	       mov cx,pos_cenx
 201F  8B 16 0026 R	     2	       mov dx,pos_ceny
 2023  03 CF		     2	       add cx,di
 2025  2B D6		     2	       sub dx,si
 2027  CD 10		     2	       int 10h
 2029  8B 0E 0024 R	     2	       mov cx,pos_cenx
 202D  8B 16 0026 R	     2	       mov dx,pos_ceny
 2031  2B CF		     2	       sub cx,di
 2033  2B D6		     2	       sub dx,si
 2035  CD 10		     2	       int 10h
 2037			     2	??00EC: 
 2037  8D 1E 1FA0 R	     2		   lea bx,??00E7
 203B  FF E3		     2	       jmp bx
 203D			     2	??00ED:
 203D  B4 0C		     2	       mov ah,0ch
 203F  A0 0131 R	     2	       mov al,colo
 2042  B7 00		     2	       mov bh,0
 2044  8B 0E 0019 R	     2	       mov cx,pos_cenx-11
 2048  8B 16 0026 R	     2	       mov dx,pos_ceny
 204C  CD 10		     2	       int 10h
 204E  8B 0E 002F R	     2	       mov cx,pos_cenx+11
 2052  8B 16 0026 R	     2	       mov dx,pos_ceny
 2056  CD 10		     2	       int 10h
 2058  8B 0E 0024 R	     2	       mov cx,pos_cenx
 205C  8B 16 001B R	     2	       mov dx,pos_ceny-11
 2060  CD 10		     2	       int 10h
 2062  8B 0E 0024 R	     2	       mov cx,pos_cenx
 2066  8B 16 0031 R	     2	       mov dx,pos_ceny+11
 206A  CD 10		     2	       int 10h
 206C  5D		     2	       pop bp
 206D  5F		     2	       pop di
 206E  5E		     2	       pop si
 206F  5A		     2	       pop dx
 2070  59		     2	       pop cx
 2071  5B		     2	       pop bx
 2072  58		     2	       pop ax
 2073  50		     2	       push ax
 2074  53		     2	       push bx
 2075  51		     2	       push cx
 2076  52		     2	       push dx
 2077  56		     2	       push si
 2078  57		     2	       push di
 2079  55		     2	       push bp
 207A  B4 0C		     2	       mov ah,0ch
 207C  A0 0131 R	     2	       mov al,colo
 207F  B7 00		     2	       mov bh,0
 2081  8B 0E 0024 R	     2	       mov cx,pos_cenx
 2085  8B 16 0026 R	     2	       mov dx,pos_ceny
 2089  BE 0000		     2	       mov si,0         ;X
 208C  BF 000A		     2	       mov di,10    ;Y
 208F  BD FFF7		     2	       mov bp,1-10
 2092			     2	??00EE: 
 2092  3B F7		     2		   cmp si,di
 2094  7C 06		     2	       jl ??00EF
 2096  8D 1E 212F R	     2	       lea bx,??00F4
 209A  FF E3		     2	       jmp bx
 209C			     2	??00EF:
 209C  46		     2		   inc si
 209D			     2	??00F0: 
 209D  83 FD 00		     2	       cmp bp,0
 20A0  7D 09		     2	       jge ??00F1
 20A2  03 EE		     2	       add bp,si
 20A4  03 EE		     2	       add bp,si
 20A6  83 C5 01		     2	       add bp,1
 20A9  EB 0C		     2	       jmp ??00F2
 20AB			     2	??00F1: 
 20AB  4F		     2		   dec di
 20AC  03 EE		     2	       add bp,si
 20AE  03 EE		     2	       add bp,si
 20B0  2B EF		     2	       sub bp,di
 20B2  2B EF		     2	       sub bp,di
 20B4  83 C5 01		     2	       add bp,1
 20B7			     2	??00F2: 
 20B7  B7 00		     2		   mov bh,0
 20B9  8B 0E 0024 R	     2	       mov cx,pos_cenx
 20BD  8B 16 0026 R	     2	       mov dx,pos_ceny
 20C1  03 CE		     2	       add cx,si
 20C3  03 D7		     2	       add dx,di
 20C5  CD 10		     2	       int 10h
 20C7  8B 0E 0024 R	     2	       mov cx,pos_cenx
 20CB  8B 16 0026 R	     2	       mov dx,pos_ceny
 20CF  2B CE		     2	       sub cx,si
 20D1  03 D7		     2	       add dx,di
 20D3  CD 10		     2	       int 10h
 20D5  8B 0E 0024 R	     2	       mov cx,pos_cenx
 20D9  8B 16 0026 R	     2	       mov dx,pos_ceny
 20DD  03 CE		     2	       add cx,si
 20DF  2B D7		     2	       sub dx,di
 20E1  CD 10		     2	       int 10h
 20E3  8B 0E 0024 R	     2	       mov cx,pos_cenx
 20E7  8B 16 0026 R	     2	       mov dx,pos_ceny
 20EB  2B CE		     2	       sub cx,si
 20ED  2B D7		     2	       sub dx,di
 20EF  CD 10		     2	       int 10h
 20F1  8B 0E 0024 R	     2	       mov cx,pos_cenx
 20F5  8B 16 0026 R	     2	       mov dx,pos_ceny
 20F9  03 CF		     2	       add cx,di
 20FB  03 D6		     2	       add dx,si
 20FD  CD 10		     2	       int 10h
 20FF  8B 0E 0024 R	     2	       mov cx,pos_cenx
 2103  8B 16 0026 R	     2	       mov dx,pos_ceny
 2107  2B CF		     2	       sub cx,di
 2109  03 D6		     2	       add dx,si
 210B  CD 10		     2	       int 10h
 210D  8B 0E 0024 R	     2	       mov cx,pos_cenx
 2111  8B 16 0026 R	     2	       mov dx,pos_ceny
 2115  03 CF		     2	       add cx,di
 2117  2B D6		     2	       sub dx,si
 2119  CD 10		     2	       int 10h
 211B  8B 0E 0024 R	     2	       mov cx,pos_cenx
 211F  8B 16 0026 R	     2	       mov dx,pos_ceny
 2123  2B CF		     2	       sub cx,di
 2125  2B D6		     2	       sub dx,si
 2127  CD 10		     2	       int 10h
 2129			     2	??00F3: 
 2129  8D 1E 2092 R	     2		   lea bx,??00EE
 212D  FF E3		     2	       jmp bx
 212F			     2	??00F4:
 212F  B4 0C		     2	       mov ah,0ch
 2131  A0 0131 R	     2	       mov al,colo
 2134  B7 00		     2	       mov bh,0
 2136  8B 0E 001A R	     2	       mov cx,pos_cenx-10
 213A  8B 16 0026 R	     2	       mov dx,pos_ceny
 213E  CD 10		     2	       int 10h
 2140  8B 0E 002E R	     2	       mov cx,pos_cenx+10
 2144  8B 16 0026 R	     2	       mov dx,pos_ceny
 2148  CD 10		     2	       int 10h
 214A  8B 0E 0024 R	     2	       mov cx,pos_cenx
 214E  8B 16 001C R	     2	       mov dx,pos_ceny-10
 2152  CD 10		     2	       int 10h
 2154  8B 0E 0024 R	     2	       mov cx,pos_cenx
 2158  8B 16 0030 R	     2	       mov dx,pos_ceny+10
 215C  CD 10		     2	       int 10h
 215E  5D		     2	       pop bp
 215F  5F		     2	       pop di
 2160  5E		     2	       pop si
 2161  5A		     2	       pop dx
 2162  59		     2	       pop cx
 2163  5B		     2	       pop bx
 2164  58		     2	       pop ax
 2165  50		     2	       push ax
 2166  53		     2	       push bx
 2167  51		     2	       push cx
 2168  52		     2	       push dx
 2169  56		     2	       push si
 216A  57		     2	       push di
 216B  55		     2	       push bp
 216C  B4 0C		     2	       mov ah,0ch
 216E  A0 0131 R	     2	       mov al,colo
 2171  B7 00		     2	       mov bh,0
 2173  8B 0E 0024 R	     2	       mov cx,pos_cenx
 2177  8B 16 0026 R	     2	       mov dx,pos_ceny
 217B  BE 0000		     2	       mov si,0         ;X
 217E  BF 0009		     2	       mov di,09    ;Y
 2181  BD FFF8		     2	       mov bp,1-09
 2184			     2	??00F5: 
 2184  3B F7		     2		   cmp si,di
 2186  7C 06		     2	       jl ??00F6
 2188  8D 1E 2221 R	     2	       lea bx,??00FB
 218C  FF E3		     2	       jmp bx
 218E			     2	??00F6:
 218E  46		     2		   inc si
 218F			     2	??00F7: 
 218F  83 FD 00		     2	       cmp bp,0
 2192  7D 09		     2	       jge ??00F8
 2194  03 EE		     2	       add bp,si
 2196  03 EE		     2	       add bp,si
 2198  83 C5 01		     2	       add bp,1
 219B  EB 0C		     2	       jmp ??00F9
 219D			     2	??00F8: 
 219D  4F		     2		   dec di
 219E  03 EE		     2	       add bp,si
 21A0  03 EE		     2	       add bp,si
 21A2  2B EF		     2	       sub bp,di
 21A4  2B EF		     2	       sub bp,di
 21A6  83 C5 01		     2	       add bp,1
 21A9			     2	??00F9: 
 21A9  B7 00		     2		   mov bh,0
 21AB  8B 0E 0024 R	     2	       mov cx,pos_cenx
 21AF  8B 16 0026 R	     2	       mov dx,pos_ceny
 21B3  03 CE		     2	       add cx,si
 21B5  03 D7		     2	       add dx,di
 21B7  CD 10		     2	       int 10h
 21B9  8B 0E 0024 R	     2	       mov cx,pos_cenx
 21BD  8B 16 0026 R	     2	       mov dx,pos_ceny
 21C1  2B CE		     2	       sub cx,si
 21C3  03 D7		     2	       add dx,di
 21C5  CD 10		     2	       int 10h
 21C7  8B 0E 0024 R	     2	       mov cx,pos_cenx
 21CB  8B 16 0026 R	     2	       mov dx,pos_ceny
 21CF  03 CE		     2	       add cx,si
 21D1  2B D7		     2	       sub dx,di
 21D3  CD 10		     2	       int 10h
 21D5  8B 0E 0024 R	     2	       mov cx,pos_cenx
 21D9  8B 16 0026 R	     2	       mov dx,pos_ceny
 21DD  2B CE		     2	       sub cx,si
 21DF  2B D7		     2	       sub dx,di
 21E1  CD 10		     2	       int 10h
 21E3  8B 0E 0024 R	     2	       mov cx,pos_cenx
 21E7  8B 16 0026 R	     2	       mov dx,pos_ceny
 21EB  03 CF		     2	       add cx,di
 21ED  03 D6		     2	       add dx,si
 21EF  CD 10		     2	       int 10h
 21F1  8B 0E 0024 R	     2	       mov cx,pos_cenx
 21F5  8B 16 0026 R	     2	       mov dx,pos_ceny
 21F9  2B CF		     2	       sub cx,di
 21FB  03 D6		     2	       add dx,si
 21FD  CD 10		     2	       int 10h
 21FF  8B 0E 0024 R	     2	       mov cx,pos_cenx
 2203  8B 16 0026 R	     2	       mov dx,pos_ceny
 2207  03 CF		     2	       add cx,di
 2209  2B D6		     2	       sub dx,si
 220B  CD 10		     2	       int 10h
 220D  8B 0E 0024 R	     2	       mov cx,pos_cenx
 2211  8B 16 0026 R	     2	       mov dx,pos_ceny
 2215  2B CF		     2	       sub cx,di
 2217  2B D6		     2	       sub dx,si
 2219  CD 10		     2	       int 10h
 221B			     2	??00FA: 
 221B  8D 1E 2184 R	     2		   lea bx,??00F5
 221F  FF E3		     2	       jmp bx
 2221			     2	??00FB:
 2221  B4 0C		     2	       mov ah,0ch
 2223  A0 0131 R	     2	       mov al,colo
 2226  B7 00		     2	       mov bh,0
 2228  8B 0E 001B R	     2	       mov cx,pos_cenx-09
 222C  8B 16 0026 R	     2	       mov dx,pos_ceny
 2230  CD 10		     2	       int 10h
 2232  8B 0E 002D R	     2	       mov cx,pos_cenx+09
 2236  8B 16 0026 R	     2	       mov dx,pos_ceny
 223A  CD 10		     2	       int 10h
 223C  8B 0E 0024 R	     2	       mov cx,pos_cenx
 2240  8B 16 001D R	     2	       mov dx,pos_ceny-09
 2244  CD 10		     2	       int 10h
 2246  8B 0E 0024 R	     2	       mov cx,pos_cenx
 224A  8B 16 002F R	     2	       mov dx,pos_ceny+09
 224E  CD 10		     2	       int 10h
 2250  5D		     2	       pop bp
 2251  5F		     2	       pop di
 2252  5E		     2	       pop si
 2253  5A		     2	       pop dx
 2254  59		     2	       pop cx
 2255  5B		     2	       pop bx
 2256  58		     2	       pop ax
 2257  50		     2	       push ax
 2258  53		     2	       push bx
 2259  51		     2	       push cx
 225A  52		     2	       push dx
 225B  56		     2	       push si
 225C  57		     2	       push di
 225D  55		     2	       push bp
 225E  B4 0C		     2	       mov ah,0ch
 2260  A0 0131 R	     2	       mov al,colo
 2263  B7 00		     2	       mov bh,0
 2265  8B 0E 0024 R	     2	       mov cx,pos_cenx
 2269  8B 16 0026 R	     2	       mov dx,pos_ceny
 226D  BE 0000		     2	       mov si,0         ;X
 2270  BF 0008		     2	       mov di,08    ;Y
 2273  BD FFF9		     2	       mov bp,1-08
 2276			     2	??00FC: 
 2276  3B F7		     2		   cmp si,di
 2278  7C 06		     2	       jl ??00FD
 227A  8D 1E 2313 R	     2	       lea bx,??0102
 227E  FF E3		     2	       jmp bx
 2280			     2	??00FD:
 2280  46		     2		   inc si
 2281			     2	??00FE: 
 2281  83 FD 00		     2	       cmp bp,0
 2284  7D 09		     2	       jge ??00FF
 2286  03 EE		     2	       add bp,si
 2288  03 EE		     2	       add bp,si
 228A  83 C5 01		     2	       add bp,1
 228D  EB 0C		     2	       jmp ??0100
 228F			     2	??00FF: 
 228F  4F		     2		   dec di
 2290  03 EE		     2	       add bp,si
 2292  03 EE		     2	       add bp,si
 2294  2B EF		     2	       sub bp,di
 2296  2B EF		     2	       sub bp,di
 2298  83 C5 01		     2	       add bp,1
 229B			     2	??0100: 
 229B  B7 00		     2		   mov bh,0
 229D  8B 0E 0024 R	     2	       mov cx,pos_cenx
 22A1  8B 16 0026 R	     2	       mov dx,pos_ceny
 22A5  03 CE		     2	       add cx,si
 22A7  03 D7		     2	       add dx,di
 22A9  CD 10		     2	       int 10h
 22AB  8B 0E 0024 R	     2	       mov cx,pos_cenx
 22AF  8B 16 0026 R	     2	       mov dx,pos_ceny
 22B3  2B CE		     2	       sub cx,si
 22B5  03 D7		     2	       add dx,di
 22B7  CD 10		     2	       int 10h
 22B9  8B 0E 0024 R	     2	       mov cx,pos_cenx
 22BD  8B 16 0026 R	     2	       mov dx,pos_ceny
 22C1  03 CE		     2	       add cx,si
 22C3  2B D7		     2	       sub dx,di
 22C5  CD 10		     2	       int 10h
 22C7  8B 0E 0024 R	     2	       mov cx,pos_cenx
 22CB  8B 16 0026 R	     2	       mov dx,pos_ceny
 22CF  2B CE		     2	       sub cx,si
 22D1  2B D7		     2	       sub dx,di
 22D3  CD 10		     2	       int 10h
 22D5  8B 0E 0024 R	     2	       mov cx,pos_cenx
 22D9  8B 16 0026 R	     2	       mov dx,pos_ceny
 22DD  03 CF		     2	       add cx,di
 22DF  03 D6		     2	       add dx,si
 22E1  CD 10		     2	       int 10h
 22E3  8B 0E 0024 R	     2	       mov cx,pos_cenx
 22E7  8B 16 0026 R	     2	       mov dx,pos_ceny
 22EB  2B CF		     2	       sub cx,di
 22ED  03 D6		     2	       add dx,si
 22EF  CD 10		     2	       int 10h
 22F1  8B 0E 0024 R	     2	       mov cx,pos_cenx
 22F5  8B 16 0026 R	     2	       mov dx,pos_ceny
 22F9  03 CF		     2	       add cx,di
 22FB  2B D6		     2	       sub dx,si
 22FD  CD 10		     2	       int 10h
 22FF  8B 0E 0024 R	     2	       mov cx,pos_cenx
 2303  8B 16 0026 R	     2	       mov dx,pos_ceny
 2307  2B CF		     2	       sub cx,di
 2309  2B D6		     2	       sub dx,si
 230B  CD 10		     2	       int 10h
 230D			     2	??0101: 
 230D  8D 1E 2276 R	     2		   lea bx,??00FC
 2311  FF E3		     2	       jmp bx
 2313			     2	??0102:
 2313  B4 0C		     2	       mov ah,0ch
 2315  A0 0131 R	     2	       mov al,colo
 2318  B7 00		     2	       mov bh,0
 231A  8B 0E 001C R	     2	       mov cx,pos_cenx-08
 231E  8B 16 0026 R	     2	       mov dx,pos_ceny
 2322  CD 10		     2	       int 10h
 2324  8B 0E 002C R	     2	       mov cx,pos_cenx+08
 2328  8B 16 0026 R	     2	       mov dx,pos_ceny
 232C  CD 10		     2	       int 10h
 232E  8B 0E 0024 R	     2	       mov cx,pos_cenx
 2332  8B 16 001E R	     2	       mov dx,pos_ceny-08
 2336  CD 10		     2	       int 10h
 2338  8B 0E 0024 R	     2	       mov cx,pos_cenx
 233C  8B 16 002E R	     2	       mov dx,pos_ceny+08
 2340  CD 10		     2	       int 10h
 2342  5D		     2	       pop bp
 2343  5F		     2	       pop di
 2344  5E		     2	       pop si
 2345  5A		     2	       pop dx
 2346  59		     2	       pop cx
 2347  5B		     2	       pop bx
 2348  58		     2	       pop ax
 2349  50		     2	       push ax
 234A  53		     2	       push bx
 234B  51		     2	       push cx
 234C  52		     2	       push dx
 234D  56		     2	       push si
 234E  57		     2	       push di
 234F  55		     2	       push bp
 2350  B4 0C		     2	       mov ah,0ch
 2352  A0 0131 R	     2	       mov al,colo
 2355  B7 00		     2	       mov bh,0
 2357  8B 0E 0024 R	     2	       mov cx,pos_cenx
 235B  8B 16 0026 R	     2	       mov dx,pos_ceny
 235F  BE 0000		     2	       mov si,0         ;X
 2362  BF 0007		     2	       mov di,07    ;Y
 2365  BD FFFA		     2	       mov bp,1-07
 2368			     2	??0103: 
 2368  3B F7		     2		   cmp si,di
 236A  7C 06		     2	       jl ??0104
 236C  8D 1E 2405 R	     2	       lea bx,??0109
 2370  FF E3		     2	       jmp bx
 2372			     2	??0104:
 2372  46		     2		   inc si
 2373			     2	??0105: 
 2373  83 FD 00		     2	       cmp bp,0
 2376  7D 09		     2	       jge ??0106
 2378  03 EE		     2	       add bp,si
 237A  03 EE		     2	       add bp,si
 237C  83 C5 01		     2	       add bp,1
 237F  EB 0C		     2	       jmp ??0107
 2381			     2	??0106: 
 2381  4F		     2		   dec di
 2382  03 EE		     2	       add bp,si
 2384  03 EE		     2	       add bp,si
 2386  2B EF		     2	       sub bp,di
 2388  2B EF		     2	       sub bp,di
 238A  83 C5 01		     2	       add bp,1
 238D			     2	??0107: 
 238D  B7 00		     2		   mov bh,0
 238F  8B 0E 0024 R	     2	       mov cx,pos_cenx
 2393  8B 16 0026 R	     2	       mov dx,pos_ceny
 2397  03 CE		     2	       add cx,si
 2399  03 D7		     2	       add dx,di
 239B  CD 10		     2	       int 10h
 239D  8B 0E 0024 R	     2	       mov cx,pos_cenx
 23A1  8B 16 0026 R	     2	       mov dx,pos_ceny
 23A5  2B CE		     2	       sub cx,si
 23A7  03 D7		     2	       add dx,di
 23A9  CD 10		     2	       int 10h
 23AB  8B 0E 0024 R	     2	       mov cx,pos_cenx
 23AF  8B 16 0026 R	     2	       mov dx,pos_ceny
 23B3  03 CE		     2	       add cx,si
 23B5  2B D7		     2	       sub dx,di
 23B7  CD 10		     2	       int 10h
 23B9  8B 0E 0024 R	     2	       mov cx,pos_cenx
 23BD  8B 16 0026 R	     2	       mov dx,pos_ceny
 23C1  2B CE		     2	       sub cx,si
 23C3  2B D7		     2	       sub dx,di
 23C5  CD 10		     2	       int 10h
 23C7  8B 0E 0024 R	     2	       mov cx,pos_cenx
 23CB  8B 16 0026 R	     2	       mov dx,pos_ceny
 23CF  03 CF		     2	       add cx,di
 23D1  03 D6		     2	       add dx,si
 23D3  CD 10		     2	       int 10h
 23D5  8B 0E 0024 R	     2	       mov cx,pos_cenx
 23D9  8B 16 0026 R	     2	       mov dx,pos_ceny
 23DD  2B CF		     2	       sub cx,di
 23DF  03 D6		     2	       add dx,si
 23E1  CD 10		     2	       int 10h
 23E3  8B 0E 0024 R	     2	       mov cx,pos_cenx
 23E7  8B 16 0026 R	     2	       mov dx,pos_ceny
 23EB  03 CF		     2	       add cx,di
 23ED  2B D6		     2	       sub dx,si
 23EF  CD 10		     2	       int 10h
 23F1  8B 0E 0024 R	     2	       mov cx,pos_cenx
 23F5  8B 16 0026 R	     2	       mov dx,pos_ceny
 23F9  2B CF		     2	       sub cx,di
 23FB  2B D6		     2	       sub dx,si
 23FD  CD 10		     2	       int 10h
 23FF			     2	??0108: 
 23FF  8D 1E 2368 R	     2		   lea bx,??0103
 2403  FF E3		     2	       jmp bx
 2405			     2	??0109:
 2405  B4 0C		     2	       mov ah,0ch
 2407  A0 0131 R	     2	       mov al,colo
 240A  B7 00		     2	       mov bh,0
 240C  8B 0E 001D R	     2	       mov cx,pos_cenx-07
 2410  8B 16 0026 R	     2	       mov dx,pos_ceny
 2414  CD 10		     2	       int 10h
 2416  8B 0E 002B R	     2	       mov cx,pos_cenx+07
 241A  8B 16 0026 R	     2	       mov dx,pos_ceny
 241E  CD 10		     2	       int 10h
 2420  8B 0E 0024 R	     2	       mov cx,pos_cenx
 2424  8B 16 001F R	     2	       mov dx,pos_ceny-07
 2428  CD 10		     2	       int 10h
 242A  8B 0E 0024 R	     2	       mov cx,pos_cenx
 242E  8B 16 002D R	     2	       mov dx,pos_ceny+07
 2432  CD 10		     2	       int 10h
 2434  5D		     2	       pop bp
 2435  5F		     2	       pop di
 2436  5E		     2	       pop si
 2437  5A		     2	       pop dx
 2438  59		     2	       pop cx
 2439  5B		     2	       pop bx
 243A  58		     2	       pop ax
 243B  50		     2	       push ax
 243C  53		     2	       push bx
 243D  51		     2	       push cx
 243E  52		     2	       push dx
 243F  56		     2	       push si
 2440  57		     2	       push di
 2441  55		     2	       push bp
 2442  B4 0C		     2	       mov ah,0ch
 2444  A0 0131 R	     2	       mov al,colo
 2447  B7 00		     2	       mov bh,0
 2449  8B 0E 0024 R	     2	       mov cx,pos_cenx
 244D  8B 16 0026 R	     2	       mov dx,pos_ceny
 2451  BE 0000		     2	       mov si,0         ;X
 2454  BF 0006		     2	       mov di,06    ;Y
 2457  BD FFFB		     2	       mov bp,1-06
 245A			     2	??010A: 
 245A  3B F7		     2		   cmp si,di
 245C  7C 06		     2	       jl ??010B
 245E  8D 1E 24F7 R	     2	       lea bx,??0110
 2462  FF E3		     2	       jmp bx
 2464			     2	??010B:
 2464  46		     2		   inc si
 2465			     2	??010C: 
 2465  83 FD 00		     2	       cmp bp,0
 2468  7D 09		     2	       jge ??010D
 246A  03 EE		     2	       add bp,si
 246C  03 EE		     2	       add bp,si
 246E  83 C5 01		     2	       add bp,1
 2471  EB 0C		     2	       jmp ??010E
 2473			     2	??010D: 
 2473  4F		     2		   dec di
 2474  03 EE		     2	       add bp,si
 2476  03 EE		     2	       add bp,si
 2478  2B EF		     2	       sub bp,di
 247A  2B EF		     2	       sub bp,di
 247C  83 C5 01		     2	       add bp,1
 247F			     2	??010E: 
 247F  B7 00		     2		   mov bh,0
 2481  8B 0E 0024 R	     2	       mov cx,pos_cenx
 2485  8B 16 0026 R	     2	       mov dx,pos_ceny
 2489  03 CE		     2	       add cx,si
 248B  03 D7		     2	       add dx,di
 248D  CD 10		     2	       int 10h
 248F  8B 0E 0024 R	     2	       mov cx,pos_cenx
 2493  8B 16 0026 R	     2	       mov dx,pos_ceny
 2497  2B CE		     2	       sub cx,si
 2499  03 D7		     2	       add dx,di
 249B  CD 10		     2	       int 10h
 249D  8B 0E 0024 R	     2	       mov cx,pos_cenx
 24A1  8B 16 0026 R	     2	       mov dx,pos_ceny
 24A5  03 CE		     2	       add cx,si
 24A7  2B D7		     2	       sub dx,di
 24A9  CD 10		     2	       int 10h
 24AB  8B 0E 0024 R	     2	       mov cx,pos_cenx
 24AF  8B 16 0026 R	     2	       mov dx,pos_ceny
 24B3  2B CE		     2	       sub cx,si
 24B5  2B D7		     2	       sub dx,di
 24B7  CD 10		     2	       int 10h
 24B9  8B 0E 0024 R	     2	       mov cx,pos_cenx
 24BD  8B 16 0026 R	     2	       mov dx,pos_ceny
 24C1  03 CF		     2	       add cx,di
 24C3  03 D6		     2	       add dx,si
 24C5  CD 10		     2	       int 10h
 24C7  8B 0E 0024 R	     2	       mov cx,pos_cenx
 24CB  8B 16 0026 R	     2	       mov dx,pos_ceny
 24CF  2B CF		     2	       sub cx,di
 24D1  03 D6		     2	       add dx,si
 24D3  CD 10		     2	       int 10h
 24D5  8B 0E 0024 R	     2	       mov cx,pos_cenx
 24D9  8B 16 0026 R	     2	       mov dx,pos_ceny
 24DD  03 CF		     2	       add cx,di
 24DF  2B D6		     2	       sub dx,si
 24E1  CD 10		     2	       int 10h
 24E3  8B 0E 0024 R	     2	       mov cx,pos_cenx
 24E7  8B 16 0026 R	     2	       mov dx,pos_ceny
 24EB  2B CF		     2	       sub cx,di
 24ED  2B D6		     2	       sub dx,si
 24EF  CD 10		     2	       int 10h
 24F1			     2	??010F: 
 24F1  8D 1E 245A R	     2		   lea bx,??010A
 24F5  FF E3		     2	       jmp bx
 24F7			     2	??0110:
 24F7  B4 0C		     2	       mov ah,0ch
 24F9  A0 0131 R	     2	       mov al,colo
 24FC  B7 00		     2	       mov bh,0
 24FE  8B 0E 001E R	     2	       mov cx,pos_cenx-06
 2502  8B 16 0026 R	     2	       mov dx,pos_ceny
 2506  CD 10		     2	       int 10h
 2508  8B 0E 002A R	     2	       mov cx,pos_cenx+06
 250C  8B 16 0026 R	     2	       mov dx,pos_ceny
 2510  CD 10		     2	       int 10h
 2512  8B 0E 0024 R	     2	       mov cx,pos_cenx
 2516  8B 16 0020 R	     2	       mov dx,pos_ceny-06
 251A  CD 10		     2	       int 10h
 251C  8B 0E 0024 R	     2	       mov cx,pos_cenx
 2520  8B 16 002C R	     2	       mov dx,pos_ceny+06
 2524  CD 10		     2	       int 10h
 2526  5D		     2	       pop bp
 2527  5F		     2	       pop di
 2528  5E		     2	       pop si
 2529  5A		     2	       pop dx
 252A  59		     2	       pop cx
 252B  5B		     2	       pop bx
 252C  58		     2	       pop ax
 252D  50		     2	       push ax
 252E  53		     2	       push bx
 252F  51		     2	       push cx
 2530  52		     2	       push dx
 2531  56		     2	       push si
 2532  57		     2	       push di
 2533  55		     2	       push bp
 2534  B4 0C		     2	       mov ah,0ch
 2536  A0 0131 R	     2	       mov al,colo
 2539  B7 00		     2	       mov bh,0
 253B  8B 0E 0024 R	     2	       mov cx,pos_cenx
 253F  8B 16 0026 R	     2	       mov dx,pos_ceny
 2543  BE 0000		     2	       mov si,0         ;X
 2546  BF 0005		     2	       mov di,05    ;Y
 2549  BD FFFC		     2	       mov bp,1-05
 254C			     2	??0111: 
 254C  3B F7		     2		   cmp si,di
 254E  7C 06		     2	       jl ??0112
 2550  8D 1E 25E9 R	     2	       lea bx,??0117
 2554  FF E3		     2	       jmp bx
 2556			     2	??0112:
 2556  46		     2		   inc si
 2557			     2	??0113: 
 2557  83 FD 00		     2	       cmp bp,0
 255A  7D 09		     2	       jge ??0114
 255C  03 EE		     2	       add bp,si
 255E  03 EE		     2	       add bp,si
 2560  83 C5 01		     2	       add bp,1
 2563  EB 0C		     2	       jmp ??0115
 2565			     2	??0114: 
 2565  4F		     2		   dec di
 2566  03 EE		     2	       add bp,si
 2568  03 EE		     2	       add bp,si
 256A  2B EF		     2	       sub bp,di
 256C  2B EF		     2	       sub bp,di
 256E  83 C5 01		     2	       add bp,1
 2571			     2	??0115: 
 2571  B7 00		     2		   mov bh,0
 2573  8B 0E 0024 R	     2	       mov cx,pos_cenx
 2577  8B 16 0026 R	     2	       mov dx,pos_ceny
 257B  03 CE		     2	       add cx,si
 257D  03 D7		     2	       add dx,di
 257F  CD 10		     2	       int 10h
 2581  8B 0E 0024 R	     2	       mov cx,pos_cenx
 2585  8B 16 0026 R	     2	       mov dx,pos_ceny
 2589  2B CE		     2	       sub cx,si
 258B  03 D7		     2	       add dx,di
 258D  CD 10		     2	       int 10h
 258F  8B 0E 0024 R	     2	       mov cx,pos_cenx
 2593  8B 16 0026 R	     2	       mov dx,pos_ceny
 2597  03 CE		     2	       add cx,si
 2599  2B D7		     2	       sub dx,di
 259B  CD 10		     2	       int 10h
 259D  8B 0E 0024 R	     2	       mov cx,pos_cenx
 25A1  8B 16 0026 R	     2	       mov dx,pos_ceny
 25A5  2B CE		     2	       sub cx,si
 25A7  2B D7		     2	       sub dx,di
 25A9  CD 10		     2	       int 10h
 25AB  8B 0E 0024 R	     2	       mov cx,pos_cenx
 25AF  8B 16 0026 R	     2	       mov dx,pos_ceny
 25B3  03 CF		     2	       add cx,di
 25B5  03 D6		     2	       add dx,si
 25B7  CD 10		     2	       int 10h
 25B9  8B 0E 0024 R	     2	       mov cx,pos_cenx
 25BD  8B 16 0026 R	     2	       mov dx,pos_ceny
 25C1  2B CF		     2	       sub cx,di
 25C3  03 D6		     2	       add dx,si
 25C5  CD 10		     2	       int 10h
 25C7  8B 0E 0024 R	     2	       mov cx,pos_cenx
 25CB  8B 16 0026 R	     2	       mov dx,pos_ceny
 25CF  03 CF		     2	       add cx,di
 25D1  2B D6		     2	       sub dx,si
 25D3  CD 10		     2	       int 10h
 25D5  8B 0E 0024 R	     2	       mov cx,pos_cenx
 25D9  8B 16 0026 R	     2	       mov dx,pos_ceny
 25DD  2B CF		     2	       sub cx,di
 25DF  2B D6		     2	       sub dx,si
 25E1  CD 10		     2	       int 10h
 25E3			     2	??0116: 
 25E3  8D 1E 254C R	     2		   lea bx,??0111
 25E7  FF E3		     2	       jmp bx
 25E9			     2	??0117:
 25E9  B4 0C		     2	       mov ah,0ch
 25EB  A0 0131 R	     2	       mov al,colo
 25EE  B7 00		     2	       mov bh,0
 25F0  8B 0E 001F R	     2	       mov cx,pos_cenx-05
 25F4  8B 16 0026 R	     2	       mov dx,pos_ceny
 25F8  CD 10		     2	       int 10h
 25FA  8B 0E 0029 R	     2	       mov cx,pos_cenx+05
 25FE  8B 16 0026 R	     2	       mov dx,pos_ceny
 2602  CD 10		     2	       int 10h
 2604  8B 0E 0024 R	     2	       mov cx,pos_cenx
 2608  8B 16 0021 R	     2	       mov dx,pos_ceny-05
 260C  CD 10		     2	       int 10h
 260E  8B 0E 0024 R	     2	       mov cx,pos_cenx
 2612  8B 16 002B R	     2	       mov dx,pos_ceny+05
 2616  CD 10		     2	       int 10h
 2618  5D		     2	       pop bp
 2619  5F		     2	       pop di
 261A  5E		     2	       pop si
 261B  5A		     2	       pop dx
 261C  59		     2	       pop cx
 261D  5B		     2	       pop bx
 261E  58		     2	       pop ax
 261F  50		     2	       push ax
 2620  53		     2	       push bx
 2621  51		     2	       push cx
 2622  52		     2	       push dx
 2623  56		     2	       push si
 2624  57		     2	       push di
 2625  55		     2	       push bp
 2626  B4 0C		     2	       mov ah,0ch
 2628  A0 0131 R	     2	       mov al,colo
 262B  B7 00		     2	       mov bh,0
 262D  8B 0E 0024 R	     2	       mov cx,pos_cenx
 2631  8B 16 0026 R	     2	       mov dx,pos_ceny
 2635  BE 0000		     2	       mov si,0         ;X
 2638  BF 0004		     2	       mov di,04    ;Y
 263B  BD FFFD		     2	       mov bp,1-04
 263E			     2	??0118: 
 263E  3B F7		     2		   cmp si,di
 2640  7C 06		     2	       jl ??0119
 2642  8D 1E 26DB R	     2	       lea bx,??011E
 2646  FF E3		     2	       jmp bx
 2648			     2	??0119:
 2648  46		     2		   inc si
 2649			     2	??011A: 
 2649  83 FD 00		     2	       cmp bp,0
 264C  7D 09		     2	       jge ??011B
 264E  03 EE		     2	       add bp,si
 2650  03 EE		     2	       add bp,si
 2652  83 C5 01		     2	       add bp,1
 2655  EB 0C		     2	       jmp ??011C
 2657			     2	??011B: 
 2657  4F		     2		   dec di
 2658  03 EE		     2	       add bp,si
 265A  03 EE		     2	       add bp,si
 265C  2B EF		     2	       sub bp,di
 265E  2B EF		     2	       sub bp,di
 2660  83 C5 01		     2	       add bp,1
 2663			     2	??011C: 
 2663  B7 00		     2		   mov bh,0
 2665  8B 0E 0024 R	     2	       mov cx,pos_cenx
 2669  8B 16 0026 R	     2	       mov dx,pos_ceny
 266D  03 CE		     2	       add cx,si
 266F  03 D7		     2	       add dx,di
 2671  CD 10		     2	       int 10h
 2673  8B 0E 0024 R	     2	       mov cx,pos_cenx
 2677  8B 16 0026 R	     2	       mov dx,pos_ceny
 267B  2B CE		     2	       sub cx,si
 267D  03 D7		     2	       add dx,di
 267F  CD 10		     2	       int 10h
 2681  8B 0E 0024 R	     2	       mov cx,pos_cenx
 2685  8B 16 0026 R	     2	       mov dx,pos_ceny
 2689  03 CE		     2	       add cx,si
 268B  2B D7		     2	       sub dx,di
 268D  CD 10		     2	       int 10h
 268F  8B 0E 0024 R	     2	       mov cx,pos_cenx
 2693  8B 16 0026 R	     2	       mov dx,pos_ceny
 2697  2B CE		     2	       sub cx,si
 2699  2B D7		     2	       sub dx,di
 269B  CD 10		     2	       int 10h
 269D  8B 0E 0024 R	     2	       mov cx,pos_cenx
 26A1  8B 16 0026 R	     2	       mov dx,pos_ceny
 26A5  03 CF		     2	       add cx,di
 26A7  03 D6		     2	       add dx,si
 26A9  CD 10		     2	       int 10h
 26AB  8B 0E 0024 R	     2	       mov cx,pos_cenx
 26AF  8B 16 0026 R	     2	       mov dx,pos_ceny
 26B3  2B CF		     2	       sub cx,di
 26B5  03 D6		     2	       add dx,si
 26B7  CD 10		     2	       int 10h
 26B9  8B 0E 0024 R	     2	       mov cx,pos_cenx
 26BD  8B 16 0026 R	     2	       mov dx,pos_ceny
 26C1  03 CF		     2	       add cx,di
 26C3  2B D6		     2	       sub dx,si
 26C5  CD 10		     2	       int 10h
 26C7  8B 0E 0024 R	     2	       mov cx,pos_cenx
 26CB  8B 16 0026 R	     2	       mov dx,pos_ceny
 26CF  2B CF		     2	       sub cx,di
 26D1  2B D6		     2	       sub dx,si
 26D3  CD 10		     2	       int 10h
 26D5			     2	??011D: 
 26D5  8D 1E 263E R	     2		   lea bx,??0118
 26D9  FF E3		     2	       jmp bx
 26DB			     2	??011E:
 26DB  B4 0C		     2	       mov ah,0ch
 26DD  A0 0131 R	     2	       mov al,colo
 26E0  B7 00		     2	       mov bh,0
 26E2  8B 0E 0020 R	     2	       mov cx,pos_cenx-04
 26E6  8B 16 0026 R	     2	       mov dx,pos_ceny
 26EA  CD 10		     2	       int 10h
 26EC  8B 0E 0028 R	     2	       mov cx,pos_cenx+04
 26F0  8B 16 0026 R	     2	       mov dx,pos_ceny
 26F4  CD 10		     2	       int 10h
 26F6  8B 0E 0024 R	     2	       mov cx,pos_cenx
 26FA  8B 16 0022 R	     2	       mov dx,pos_ceny-04
 26FE  CD 10		     2	       int 10h
 2700  8B 0E 0024 R	     2	       mov cx,pos_cenx
 2704  8B 16 002A R	     2	       mov dx,pos_ceny+04
 2708  CD 10		     2	       int 10h
 270A  5D		     2	       pop bp
 270B  5F		     2	       pop di
 270C  5E		     2	       pop si
 270D  5A		     2	       pop dx
 270E  59		     2	       pop cx
 270F  5B		     2	       pop bx
 2710  58		     2	       pop ax
 2711  50		     2	       push ax
 2712  53		     2	       push bx
 2713  51		     2	       push cx
 2714  52		     2	       push dx
 2715  56		     2	       push si
 2716  57		     2	       push di
 2717  55		     2	       push bp
 2718  B4 0C		     2	       mov ah,0ch
 271A  A0 0131 R	     2	       mov al,colo
 271D  B7 00		     2	       mov bh,0
 271F  8B 0E 0024 R	     2	       mov cx,pos_cenx
 2723  8B 16 0026 R	     2	       mov dx,pos_ceny
 2727  BE 0000		     2	       mov si,0         ;X
 272A  BF 0003		     2	       mov di,03    ;Y
 272D  BD FFFE		     2	       mov bp,1-03
 2730			     2	??011F: 
 2730  3B F7		     2		   cmp si,di
 2732  7C 06		     2	       jl ??0120
 2734  8D 1E 27CD R	     2	       lea bx,??0125
 2738  FF E3		     2	       jmp bx
 273A			     2	??0120:
 273A  46		     2		   inc si
 273B			     2	??0121: 
 273B  83 FD 00		     2	       cmp bp,0
 273E  7D 09		     2	       jge ??0122
 2740  03 EE		     2	       add bp,si
 2742  03 EE		     2	       add bp,si
 2744  83 C5 01		     2	       add bp,1
 2747  EB 0C		     2	       jmp ??0123
 2749			     2	??0122: 
 2749  4F		     2		   dec di
 274A  03 EE		     2	       add bp,si
 274C  03 EE		     2	       add bp,si
 274E  2B EF		     2	       sub bp,di
 2750  2B EF		     2	       sub bp,di
 2752  83 C5 01		     2	       add bp,1
 2755			     2	??0123: 
 2755  B7 00		     2		   mov bh,0
 2757  8B 0E 0024 R	     2	       mov cx,pos_cenx
 275B  8B 16 0026 R	     2	       mov dx,pos_ceny
 275F  03 CE		     2	       add cx,si
 2761  03 D7		     2	       add dx,di
 2763  CD 10		     2	       int 10h
 2765  8B 0E 0024 R	     2	       mov cx,pos_cenx
 2769  8B 16 0026 R	     2	       mov dx,pos_ceny
 276D  2B CE		     2	       sub cx,si
 276F  03 D7		     2	       add dx,di
 2771  CD 10		     2	       int 10h
 2773  8B 0E 0024 R	     2	       mov cx,pos_cenx
 2777  8B 16 0026 R	     2	       mov dx,pos_ceny
 277B  03 CE		     2	       add cx,si
 277D  2B D7		     2	       sub dx,di
 277F  CD 10		     2	       int 10h
 2781  8B 0E 0024 R	     2	       mov cx,pos_cenx
 2785  8B 16 0026 R	     2	       mov dx,pos_ceny
 2789  2B CE		     2	       sub cx,si
 278B  2B D7		     2	       sub dx,di
 278D  CD 10		     2	       int 10h
 278F  8B 0E 0024 R	     2	       mov cx,pos_cenx
 2793  8B 16 0026 R	     2	       mov dx,pos_ceny
 2797  03 CF		     2	       add cx,di
 2799  03 D6		     2	       add dx,si
 279B  CD 10		     2	       int 10h
 279D  8B 0E 0024 R	     2	       mov cx,pos_cenx
 27A1  8B 16 0026 R	     2	       mov dx,pos_ceny
 27A5  2B CF		     2	       sub cx,di
 27A7  03 D6		     2	       add dx,si
 27A9  CD 10		     2	       int 10h
 27AB  8B 0E 0024 R	     2	       mov cx,pos_cenx
 27AF  8B 16 0026 R	     2	       mov dx,pos_ceny
 27B3  03 CF		     2	       add cx,di
 27B5  2B D6		     2	       sub dx,si
 27B7  CD 10		     2	       int 10h
 27B9  8B 0E 0024 R	     2	       mov cx,pos_cenx
 27BD  8B 16 0026 R	     2	       mov dx,pos_ceny
 27C1  2B CF		     2	       sub cx,di
 27C3  2B D6		     2	       sub dx,si
 27C5  CD 10		     2	       int 10h
 27C7			     2	??0124: 
 27C7  8D 1E 2730 R	     2		   lea bx,??011F
 27CB  FF E3		     2	       jmp bx
 27CD			     2	??0125:
 27CD  B4 0C		     2	       mov ah,0ch
 27CF  A0 0131 R	     2	       mov al,colo
 27D2  B7 00		     2	       mov bh,0
 27D4  8B 0E 0021 R	     2	       mov cx,pos_cenx-03
 27D8  8B 16 0026 R	     2	       mov dx,pos_ceny
 27DC  CD 10		     2	       int 10h
 27DE  8B 0E 0027 R	     2	       mov cx,pos_cenx+03
 27E2  8B 16 0026 R	     2	       mov dx,pos_ceny
 27E6  CD 10		     2	       int 10h
 27E8  8B 0E 0024 R	     2	       mov cx,pos_cenx
 27EC  8B 16 0023 R	     2	       mov dx,pos_ceny-03
 27F0  CD 10		     2	       int 10h
 27F2  8B 0E 0024 R	     2	       mov cx,pos_cenx
 27F6  8B 16 0029 R	     2	       mov dx,pos_ceny+03
 27FA  CD 10		     2	       int 10h
 27FC  5D		     2	       pop bp
 27FD  5F		     2	       pop di
 27FE  5E		     2	       pop si
 27FF  5A		     2	       pop dx
 2800  59		     2	       pop cx
 2801  5B		     2	       pop bx
 2802  58		     2	       pop ax
 2803  50		     2	       push ax
 2804  53		     2	       push bx
 2805  51		     2	       push cx
 2806  52		     2	       push dx
 2807  56		     2	       push si
 2808  57		     2	       push di
 2809  55		     2	       push bp
 280A  B4 0C		     2	       mov ah,0ch
 280C  A0 0131 R	     2	       mov al,colo
 280F  B7 00		     2	       mov bh,0
 2811  8B 0E 0024 R	     2	       mov cx,pos_cenx
 2815  8B 16 0026 R	     2	       mov dx,pos_ceny
 2819  BE 0000		     2	       mov si,0         ;X
 281C  BF 0002		     2	       mov di,02    ;Y
 281F  BD FFFF		     2	       mov bp,1-02
 2822			     2	??0126: 
 2822  3B F7		     2		   cmp si,di
 2824  7C 06		     2	       jl ??0127
 2826  8D 1E 28BF R	     2	       lea bx,??012C
 282A  FF E3		     2	       jmp bx
 282C			     2	??0127:
 282C  46		     2		   inc si
 282D			     2	??0128: 
 282D  83 FD 00		     2	       cmp bp,0
 2830  7D 09		     2	       jge ??0129
 2832  03 EE		     2	       add bp,si
 2834  03 EE		     2	       add bp,si
 2836  83 C5 01		     2	       add bp,1
 2839  EB 0C		     2	       jmp ??012A
 283B			     2	??0129: 
 283B  4F		     2		   dec di
 283C  03 EE		     2	       add bp,si
 283E  03 EE		     2	       add bp,si
 2840  2B EF		     2	       sub bp,di
 2842  2B EF		     2	       sub bp,di
 2844  83 C5 01		     2	       add bp,1
 2847			     2	??012A: 
 2847  B7 00		     2		   mov bh,0
 2849  8B 0E 0024 R	     2	       mov cx,pos_cenx
 284D  8B 16 0026 R	     2	       mov dx,pos_ceny
 2851  03 CE		     2	       add cx,si
 2853  03 D7		     2	       add dx,di
 2855  CD 10		     2	       int 10h
 2857  8B 0E 0024 R	     2	       mov cx,pos_cenx
 285B  8B 16 0026 R	     2	       mov dx,pos_ceny
 285F  2B CE		     2	       sub cx,si
 2861  03 D7		     2	       add dx,di
 2863  CD 10		     2	       int 10h
 2865  8B 0E 0024 R	     2	       mov cx,pos_cenx
 2869  8B 16 0026 R	     2	       mov dx,pos_ceny
 286D  03 CE		     2	       add cx,si
 286F  2B D7		     2	       sub dx,di
 2871  CD 10		     2	       int 10h
 2873  8B 0E 0024 R	     2	       mov cx,pos_cenx
 2877  8B 16 0026 R	     2	       mov dx,pos_ceny
 287B  2B CE		     2	       sub cx,si
 287D  2B D7		     2	       sub dx,di
 287F  CD 10		     2	       int 10h
 2881  8B 0E 0024 R	     2	       mov cx,pos_cenx
 2885  8B 16 0026 R	     2	       mov dx,pos_ceny
 2889  03 CF		     2	       add cx,di
 288B  03 D6		     2	       add dx,si
 288D  CD 10		     2	       int 10h
 288F  8B 0E 0024 R	     2	       mov cx,pos_cenx
 2893  8B 16 0026 R	     2	       mov dx,pos_ceny
 2897  2B CF		     2	       sub cx,di
 2899  03 D6		     2	       add dx,si
 289B  CD 10		     2	       int 10h
 289D  8B 0E 0024 R	     2	       mov cx,pos_cenx
 28A1  8B 16 0026 R	     2	       mov dx,pos_ceny
 28A5  03 CF		     2	       add cx,di
 28A7  2B D6		     2	       sub dx,si
 28A9  CD 10		     2	       int 10h
 28AB  8B 0E 0024 R	     2	       mov cx,pos_cenx
 28AF  8B 16 0026 R	     2	       mov dx,pos_ceny
 28B3  2B CF		     2	       sub cx,di
 28B5  2B D6		     2	       sub dx,si
 28B7  CD 10		     2	       int 10h
 28B9			     2	??012B: 
 28B9  8D 1E 2822 R	     2		   lea bx,??0126
 28BD  FF E3		     2	       jmp bx
 28BF			     2	??012C:
 28BF  B4 0C		     2	       mov ah,0ch
 28C1  A0 0131 R	     2	       mov al,colo
 28C4  B7 00		     2	       mov bh,0
 28C6  8B 0E 0022 R	     2	       mov cx,pos_cenx-02
 28CA  8B 16 0026 R	     2	       mov dx,pos_ceny
 28CE  CD 10		     2	       int 10h
 28D0  8B 0E 0026 R	     2	       mov cx,pos_cenx+02
 28D4  8B 16 0026 R	     2	       mov dx,pos_ceny
 28D8  CD 10		     2	       int 10h
 28DA  8B 0E 0024 R	     2	       mov cx,pos_cenx
 28DE  8B 16 0024 R	     2	       mov dx,pos_ceny-02
 28E2  CD 10		     2	       int 10h
 28E4  8B 0E 0024 R	     2	       mov cx,pos_cenx
 28E8  8B 16 0028 R	     2	       mov dx,pos_ceny+02
 28EC  CD 10		     2	       int 10h
 28EE  5D		     2	       pop bp
 28EF  5F		     2	       pop di
 28F0  5E		     2	       pop si
 28F1  5A		     2	       pop dx
 28F2  59		     2	       pop cx
 28F3  5B		     2	       pop bx
 28F4  58		     2	       pop ax
 28F5  50		     2	       push ax
 28F6  53		     2	       push bx
 28F7  51		     2	       push cx
 28F8  52		     2	       push dx
 28F9  56		     2	       push si
 28FA  57		     2	       push di
 28FB  55		     2	       push bp
 28FC  B4 0C		     2	       mov ah,0ch
 28FE  A0 0131 R	     2	       mov al,colo
 2901  B7 00		     2	       mov bh,0
 2903  8B 0E 0024 R	     2	       mov cx,pos_cenx
 2907  8B 16 0026 R	     2	       mov dx,pos_ceny
 290B  BE 0000		     2	       mov si,0         ;X
 290E  BF 0001		     2	       mov di,01    ;Y
 2911  BD 0000		     2	       mov bp,1-01
 2914			     2	??012D: 
 2914  3B F7		     2		   cmp si,di
 2916  7C 06		     2	       jl ??012E
 2918  8D 1E 29B1 R	     2	       lea bx,??0133
 291C  FF E3		     2	       jmp bx
 291E			     2	??012E:
 291E  46		     2		   inc si
 291F			     2	??012F: 
 291F  83 FD 00		     2	       cmp bp,0
 2922  7D 09		     2	       jge ??0130
 2924  03 EE		     2	       add bp,si
 2926  03 EE		     2	       add bp,si
 2928  83 C5 01		     2	       add bp,1
 292B  EB 0C		     2	       jmp ??0131
 292D			     2	??0130: 
 292D  4F		     2		   dec di
 292E  03 EE		     2	       add bp,si
 2930  03 EE		     2	       add bp,si
 2932  2B EF		     2	       sub bp,di
 2934  2B EF		     2	       sub bp,di
 2936  83 C5 01		     2	       add bp,1
 2939			     2	??0131: 
 2939  B7 00		     2		   mov bh,0
 293B  8B 0E 0024 R	     2	       mov cx,pos_cenx
 293F  8B 16 0026 R	     2	       mov dx,pos_ceny
 2943  03 CE		     2	       add cx,si
 2945  03 D7		     2	       add dx,di
 2947  CD 10		     2	       int 10h
 2949  8B 0E 0024 R	     2	       mov cx,pos_cenx
 294D  8B 16 0026 R	     2	       mov dx,pos_ceny
 2951  2B CE		     2	       sub cx,si
 2953  03 D7		     2	       add dx,di
 2955  CD 10		     2	       int 10h
 2957  8B 0E 0024 R	     2	       mov cx,pos_cenx
 295B  8B 16 0026 R	     2	       mov dx,pos_ceny
 295F  03 CE		     2	       add cx,si
 2961  2B D7		     2	       sub dx,di
 2963  CD 10		     2	       int 10h
 2965  8B 0E 0024 R	     2	       mov cx,pos_cenx
 2969  8B 16 0026 R	     2	       mov dx,pos_ceny
 296D  2B CE		     2	       sub cx,si
 296F  2B D7		     2	       sub dx,di
 2971  CD 10		     2	       int 10h
 2973  8B 0E 0024 R	     2	       mov cx,pos_cenx
 2977  8B 16 0026 R	     2	       mov dx,pos_ceny
 297B  03 CF		     2	       add cx,di
 297D  03 D6		     2	       add dx,si
 297F  CD 10		     2	       int 10h
 2981  8B 0E 0024 R	     2	       mov cx,pos_cenx
 2985  8B 16 0026 R	     2	       mov dx,pos_ceny
 2989  2B CF		     2	       sub cx,di
 298B  03 D6		     2	       add dx,si
 298D  CD 10		     2	       int 10h
 298F  8B 0E 0024 R	     2	       mov cx,pos_cenx
 2993  8B 16 0026 R	     2	       mov dx,pos_ceny
 2997  03 CF		     2	       add cx,di
 2999  2B D6		     2	       sub dx,si
 299B  CD 10		     2	       int 10h
 299D  8B 0E 0024 R	     2	       mov cx,pos_cenx
 29A1  8B 16 0026 R	     2	       mov dx,pos_ceny
 29A5  2B CF		     2	       sub cx,di
 29A7  2B D6		     2	       sub dx,si
 29A9  CD 10		     2	       int 10h
 29AB			     2	??0132: 
 29AB  8D 1E 2914 R	     2		   lea bx,??012D
 29AF  FF E3		     2	       jmp bx
 29B1			     2	??0133:
 29B1  B4 0C		     2	       mov ah,0ch
 29B3  A0 0131 R	     2	       mov al,colo
 29B6  B7 00		     2	       mov bh,0
 29B8  8B 0E 0023 R	     2	       mov cx,pos_cenx-01
 29BC  8B 16 0026 R	     2	       mov dx,pos_ceny
 29C0  CD 10		     2	       int 10h
 29C2  8B 0E 0025 R	     2	       mov cx,pos_cenx+01
 29C6  8B 16 0026 R	     2	       mov dx,pos_ceny
 29CA  CD 10		     2	       int 10h
 29CC  8B 0E 0024 R	     2	       mov cx,pos_cenx
 29D0  8B 16 0025 R	     2	       mov dx,pos_ceny-01
 29D4  CD 10		     2	       int 10h
 29D6  8B 0E 0024 R	     2	       mov cx,pos_cenx
 29DA  8B 16 0027 R	     2	       mov dx,pos_ceny+01
 29DE  CD 10		     2	       int 10h
 29E0  5D		     2	       pop bp
 29E1  5F		     2	       pop di
 29E2  5E		     2	       pop si
 29E3  5A		     2	       pop dx
 29E4  59		     2	       pop cx
 29E5  5B		     2	       pop bx
 29E6  58		     2	       pop ax
					
					DROP pos_cenx,pos_ceny,state
 29E7  50		     1		push ax
 29E8  53		     1		push bx
 29E9  51		     1		push cx
 29EA  52		     1		push dx
 29EB  A1 0024 R	     1		mov ax,pos_cenx
 29EE  83 E8 2D		     1		sub ax,45
 29F1  2B D2		     1		sub dx,dx
 29F3  BB 0032		     1		mov bx,50
 29F6  F7 F3		     1		div bx
 29F8  83 C0 04		     1		add ax,4
 29FB  A3 0153 R	     1		mov colx,ax;第几列
 29FE  A1 0026 R	     1		mov ax,pos_ceny
 2A01  83 E8 2D		     1		sub ax,45
 2A04  2B D2		     1		sub dx,dx
 2A06  BB 0032		     1		mov bx,50
 2A09  F7 F3		     1		div bx
 2A0B  83 C0 04		     1		add ax,4
 2A0E  A3 0151 R	     1		mov rowy,ax;第几行
 2A11  A1 0151 R	     1		mov ax,rowy
 2A14  BB 0011		     1		mov bx,17
 2A17  F7 E3		     1		mul bx
 2A19  03 06 0153 R	     1		add ax,colx
 2A1D  A3 0121 R	     1		mov pianyi,ax
 2A20  BB 0030 R	     1		mov bx,offset map0
 2A23  03 1E 0121 R	     1		add bx,pianyi
 2A27  A0 0130 R	     1		mov al,state
 2A2A  88 07		     1		mov [bx],al
 2A2C  5A		     1		pop dx
 2A2D  59		     1		pop cx
 2A2E  5B		     1		pop bx
 2A2F  58		     1		pop ax
					
					;mov ax,pos_cenx
					;mov recirx,ax
					;mov ax,pos_ceny
					;mov reciry,ax
					;mov al,colo
					;mov recolo,al
					
					;查看游戏是否结束
					JUDGEROW pos_cenx,pos_ceny,state
 2A30  50		     1		push ax
 2A31  53		     1		push bx
 2A32  51		     1		push cx
 2A33  52		     1		push dx
 2A34  A1 0024 R	     1		mov ax,pos_cenx
 2A37  83 E8 2D		     1		sub ax,45
 2A3A  2B D2		     1		sub dx,dx
 2A3C  BB 0032		     1		mov bx,50
 2A3F  F7 F3		     1		div bx
 2A41  83 C0 04		     1		add ax,4
 2A44  A3 0157 R	     1		mov jcolx,ax;第几列
 2A47  A1 0026 R	     1		mov ax,pos_ceny
 2A4A  83 E8 2D		     1		sub ax,45
 2A4D  2B D2		     1		sub dx,dx
 2A4F  BB 0032		     1		mov bx,50
 2A52  F7 F3		     1		div bx
 2A54  83 C0 04		     1		add ax,4
 2A57  A3 0155 R	     1		mov jrowy,ax;第几行
 2A5A  A1 0155 R	     1		mov ax,jrowy
 2A5D  BB 0011		     1		mov bx,17
 2A60  F7 E3		     1		mul bx
 2A62  03 06 0157 R	     1		add ax,jcolx
 2A66  A3 0121 R	     1		mov pianyi,ax
 2A69  BB 0030 R	     1		mov bx,offset map0
 2A6C  A1 0121 R	     1		mov ax,pianyi
 2A6F  03 D8		     1		add bx,ax
 2A71  C6 06 0132 R 01	     1		mov qizinum,1
 2A76  8A 16 0132 R	     1		mov dl,qizinum
 2A7A  8A 36 0130 R	     1		mov dh,state
 2A7E  53		     1		push bx
 2A7F  B1 01		     1		mov cl,1
 2A81			     1	??0134:
 2A81  83 C3 01		     1		add bx,1
 2A84  8A 2F		     1		mov ch,[bx]
 2A86  38 F5		     1		cmp ch,dh
 2A88  75 0B		     1		jnz ??0136
 2A8A  80 C2 01		     1		add dl,1
 2A8D  80 C1 01		     1		add cl,1
 2A90  80 F9 05		     1		cmp cl,5
 2A93  75 EC		     1		jnz ??0134
 2A95			     1	??0136:
 2A95  5B		     1		pop bx
 2A96  B1 01		     1		mov cl,1
 2A98			     1	??0135:
 2A98  83 EB 01		     1		sub bx,1
 2A9B  8A 2F		     1		mov ch,[bx]
 2A9D  38 F5		     1		cmp ch,dh
 2A9F  75 0B		     1		jnz ??0137
 2AA1  80 C2 01		     1		add dl,1
 2AA4  80 C1 01		     1		add cl,1
 2AA7  80 F9 05		     1		cmp cl,5
 2AAA  75 EC		     1		jnz ??0135
 2AAC			     1	??0137:
 2AAC  88 16 0140 R	     1		mov lianzigeshu,dl
 2AB0  80 FA 05		     1		cmp dl,5
 2AB3  73 02		     1		jae ??0138
 2AB5  EB 07		     1		jmp ??0139
 2AB7			     1	??0138:
 2AB7  C6 06 0123 R 01	     1		mov judg,1
 2ABC  EB 05		     1		jmp ??013A
 2ABE			     1	??0139:
 2ABE  C6 06 0123 R 00	     1		mov judg,0
 2AC3			     1	??013A:
 2AC3  5A		     1		pop dx
 2AC4  59		     1		pop cx
 2AC5  5B		     1		pop bx
 2AC6  58		     1		pop ax
 2AC7  80 3E 0123 R 01			cmp judg,1
 2ACC  75 03 E9 1711			jz exitgame
					JUDGECOL pos_cenx,pos_ceny,state
 2AD1  50		     1		push ax
 2AD2  53		     1		push bx
 2AD3  51		     1		push cx
 2AD4  52		     1		push dx
 2AD5  A1 0024 R	     1		mov ax,pos_cenx
 2AD8  83 E8 2D		     1		sub ax,45
 2ADB  2B D2		     1		sub dx,dx
 2ADD  BB 0032		     1		mov bx,50
 2AE0  F7 F3		     1		div bx
 2AE2  83 C0 04		     1		add ax,4
 2AE5  A3 0157 R	     1		mov jcolx,ax;第几列
 2AE8  A1 0026 R	     1		mov ax,pos_ceny
 2AEB  83 E8 2D		     1		sub ax,45
 2AEE  2B D2		     1		sub dx,dx
 2AF0  BB 0032		     1		mov bx,50
 2AF3  F7 F3		     1		div bx
 2AF5  83 C0 04		     1		add ax,4
 2AF8  A3 0155 R	     1		mov jrowy,ax;第几行
 2AFB  A1 0155 R	     1		mov ax,jrowy
 2AFE  BB 0011		     1		mov bx,17
 2B01  F7 E3		     1		mul bx
 2B03  03 06 0157 R	     1		add ax,jcolx
 2B07  A3 0121 R	     1		mov pianyi,ax
 2B0A  BB 0030 R	     1		mov bx,offset map0
 2B0D  A1 0121 R	     1		mov ax,pianyi
 2B10  03 D8		     1		add bx,ax
 2B12  C6 06 0132 R 01	     1		mov qizinum,1
 2B17  8A 16 0132 R	     1		mov dl,qizinum
 2B1B  8A 36 0130 R	     1		mov dh,state
 2B1F  53		     1		push bx
 2B20  B1 01		     1		mov cl,1
 2B22			     1	??013B:
 2B22  83 C3 11		     1		add bx,17
 2B25  8A 2F		     1		mov ch,[bx]
 2B27  38 F5		     1		cmp ch,dh
 2B29  75 0B		     1		jnz ??013D
 2B2B  80 C2 01		     1		add dl,1
 2B2E  80 C1 01		     1		add cl,1
 2B31  80 F9 05		     1		cmp cl,5
 2B34  75 EC		     1		jnz ??013B
 2B36			     1	??013D:
 2B36  5B		     1		pop bx
 2B37  B1 01		     1		mov cl,1
 2B39			     1	??013C:
 2B39  83 EB 11		     1		sub bx,17
 2B3C  8A 2F		     1		mov ch,[bx]
 2B3E  38 F5		     1		cmp ch,dh
 2B40  75 0B		     1		jnz ??013E
 2B42  80 C2 01		     1		add dl,1
 2B45  80 C1 01		     1		add cl,1
 2B48  80 F9 05		     1		cmp cl,5
 2B4B  75 EC		     1		jnz ??013C
 2B4D			     1	??013E:
 2B4D  88 16 0140 R	     1		mov lianzigeshu,dl
 2B51  80 FA 05		     1		cmp dl,5
 2B54  73 02		     1		jae ??013F
 2B56  EB 07		     1		jmp ??0140
 2B58			     1	??013F:
 2B58  C6 06 0123 R 01	     1		mov judg,1
 2B5D  EB 05		     1		jmp ??0141
 2B5F			     1	??0140:
 2B5F  C6 06 0123 R 00	     1		mov judg,0
 2B64			     1	??0141:
 2B64  5A		     1		pop dx
 2B65  59		     1		pop cx
 2B66  5B		     1		pop bx
 2B67  58		     1		pop ax
 2B68  80 3E 0123 R 01			cmp judg,1
 2B6D  75 03 E9 1670			jz exitgame
					JUDGELUTORD pos_cenx,pos_ceny,state
 2B72  50		     1		push ax
 2B73  53		     1		push bx
 2B74  51		     1		push cx
 2B75  52		     1		push dx
 2B76  A1 0024 R	     1		mov ax,pos_cenx
 2B79  83 E8 2D		     1		sub ax,45
 2B7C  2B D2		     1		sub dx,dx
 2B7E  BB 0032		     1		mov bx,50
 2B81  F7 F3		     1		div bx
 2B83  83 C0 04		     1		add ax,4
 2B86  A3 0157 R	     1		mov jcolx,ax;第几列
 2B89  A1 0026 R	     1		mov ax,pos_ceny
 2B8C  83 E8 2D		     1		sub ax,45
 2B8F  2B D2		     1		sub dx,dx
 2B91  BB 0032		     1		mov bx,50
 2B94  F7 F3		     1		div bx
 2B96  83 C0 04		     1		add ax,4
 2B99  A3 0155 R	     1		mov jrowy,ax;第几行
 2B9C  A1 0155 R	     1		mov ax,jrowy
 2B9F  BB 0011		     1		mov bx,17
 2BA2  F7 E3		     1		mul bx
 2BA4  03 06 0157 R	     1		add ax,jcolx
 2BA8  A3 0121 R	     1		mov pianyi,ax
 2BAB  BB 0030 R	     1		mov bx,offset map0
 2BAE  A1 0121 R	     1		mov ax,pianyi
 2BB1  03 D8		     1		add bx,ax
 2BB3  C6 06 0132 R 01	     1		mov qizinum,1
 2BB8  8A 16 0132 R	     1		mov dl,qizinum
 2BBC  8A 36 0130 R	     1		mov dh,state
 2BC0  53		     1		push bx
 2BC1  B1 01		     1		mov cl,1
 2BC3			     1	??0142:
 2BC3  83 C3 12		     1		add bx,18
 2BC6  8A 2F		     1		mov ch,[bx]
 2BC8  38 F5		     1		cmp ch,dh
 2BCA  75 0B		     1		jnz ??0144
 2BCC  80 C2 01		     1		add dl,1
 2BCF  80 C1 01		     1		add cl,1
 2BD2  80 F9 05		     1		cmp cl,5
 2BD5  75 EC		     1		jnz ??0142
 2BD7			     1	??0144:
 2BD7  5B		     1		pop bx
 2BD8  B1 01		     1		mov cl,1
 2BDA			     1	??0143:
 2BDA  83 EB 12		     1		sub bx,18
 2BDD  8A 2F		     1		mov ch,[bx]
 2BDF  38 F5		     1		cmp ch,dh
 2BE1  75 0B		     1		jnz ??0145
 2BE3  80 C2 01		     1		add dl,1
 2BE6  80 C1 01		     1		add cl,1
 2BE9  80 F9 05		     1		cmp cl,5
 2BEC  75 EC		     1		jnz ??0143
 2BEE			     1	??0145:
 2BEE  88 16 0140 R	     1		mov lianzigeshu,dl
 2BF2  80 FA 05		     1		cmp dl,5
 2BF5  73 02		     1		jae ??0146
 2BF7  EB 07		     1		jmp ??0147
 2BF9			     1	??0146:
 2BF9  C6 06 0123 R 01	     1		mov judg,1
 2BFE  EB 05		     1		jmp ??0148
 2C00			     1	??0147:
 2C00  C6 06 0123 R 00	     1		mov judg,0
 2C05			     1	??0148:
 2C05  5A		     1		pop dx
 2C06  59		     1		pop cx
 2C07  5B		     1		pop bx
 2C08  58		     1		pop ax
 2C09  80 3E 0123 R 01			cmp judg,1
 2C0E  75 03 E9 15CF			jz exitgame
					JUDGERUTOLD pos_cenx,pos_ceny,state
 2C13  50		     1		push ax
 2C14  53		     1		push bx
 2C15  51		     1		push cx
 2C16  52		     1		push dx
 2C17  A1 0024 R	     1		mov ax,pos_cenx
 2C1A  83 E8 2D		     1		sub ax,45
 2C1D  2B D2		     1		sub dx,dx
 2C1F  BB 0032		     1		mov bx,50
 2C22  F7 F3		     1		div bx
 2C24  83 C0 04		     1		add ax,4
 2C27  A3 0157 R	     1		mov jcolx,ax;第几列
 2C2A  A1 0026 R	     1		mov ax,pos_ceny
 2C2D  83 E8 2D		     1		sub ax,45
 2C30  2B D2		     1		sub dx,dx
 2C32  BB 0032		     1		mov bx,50
 2C35  F7 F3		     1		div bx
 2C37  83 C0 04		     1		add ax,4
 2C3A  A3 0155 R	     1		mov jrowy,ax;第几行
 2C3D  A1 0155 R	     1		mov ax,jrowy
 2C40  BB 0011		     1		mov bx,17
 2C43  F7 E3		     1		mul bx
 2C45  03 06 0157 R	     1		add ax,jcolx
 2C49  A3 0121 R	     1		mov pianyi,ax
 2C4C  BB 0030 R	     1		mov bx,offset map0
 2C4F  A1 0121 R	     1		mov ax,pianyi
 2C52  03 D8		     1		add bx,ax
 2C54  C6 06 0132 R 01	     1		mov qizinum,1
 2C59  8A 16 0132 R	     1		mov dl,qizinum
 2C5D  8A 36 0130 R	     1		mov dh,state
 2C61  53		     1		push bx
 2C62  B1 01		     1		mov cl,1
 2C64			     1	??0149:
 2C64  83 C3 10		     1		add bx,16
 2C67  8A 2F		     1		mov ch,[bx]
 2C69  38 F5		     1		cmp ch,dh
 2C6B  75 0B		     1		jnz ??014B
 2C6D  80 C2 01		     1		add dl,1
 2C70  80 C1 01		     1		add cl,1
 2C73  80 F9 05		     1		cmp cl,5
 2C76  75 EC		     1		jnz ??0149
 2C78			     1	??014B:
 2C78  5B		     1		pop bx
 2C79  B1 01		     1		mov cl,1
 2C7B			     1	??014A:
 2C7B  83 EB 10		     1		sub bx,16
 2C7E  8A 2F		     1		mov ch,[bx]
 2C80  38 F5		     1		cmp ch,dh
 2C82  75 0B		     1		jnz ??014C
 2C84  80 C2 01		     1		add dl,1
 2C87  80 C1 01		     1		add cl,1
 2C8A  80 F9 05		     1		cmp cl,5
 2C8D  75 EC		     1		jnz ??014A
 2C8F			     1	??014C:
 2C8F  88 16 0140 R	     1		mov lianzigeshu,dl
 2C93  80 FA 05		     1		cmp dl,5
 2C96  73 02		     1		jae ??014D
 2C98  EB 07		     1		jmp ??014E
 2C9A			     1	??014D:
 2C9A  C6 06 0123 R 01	     1		mov judg,1
 2C9F  EB 05		     1		jmp ??014F
 2CA1			     1	??014E:
 2CA1  C6 06 0123 R 00	     1		mov judg,0
 2CA6			     1	??014F:
 2CA6  5A		     1		pop dx
 2CA7  59		     1		pop cx
 2CA8  5B		     1		pop bx
 2CA9  58		     1		pop ax
 2CAA  80 3E 0123 R 01			cmp judg,1
 2CAF  75 03 E9 152E			jz exitgame	
					
					;获得鼠标位置直到发生改变
 2CB4				reget:	
 2CB4  B8 0003				mov ax,03h
 2CB7  CD 33				int 33h
 2CB9  8B C1				mov ax,cx
 2CBB  A3 0020 R			mov pos_x,ax
 2CBE  8B C2				mov ax,dx
 2CC0  A3 0022 R			mov pos_y,ax
					GET_POSNEARX pos_x
 2CC3  50		     1		push ax
 2CC4  53		     1		push bx
 2CC5  51		     1		push cx
 2CC6  52		     1		push dx
 2CC7  A1 0020 R	     1		mov ax,pos_x
 2CCA  83 F8 1E		     1		cmp ax,30
 2CCD  72 23		     1		jb ??0150
 2CCF  3D 01CC		     1		cmp ax,460
 2CD2  77 1E		     1		ja ??0150
 2CD4  83 E8 1E		     1		sub ax,30
 2CD7  2B D2		     1		sub dx,dx
 2CD9  BB 0032		     1		mov bx,50
 2CDC  F7 F3		     1		div bx
 2CDE  83 FA 1E		     1		cmp dx,30
 2CE1  77 0F		     1		ja ??0150
 2CE3  2B D2		     1		sub dx,dx
 2CE5  BA 0032		     1		mov dx,50
 2CE8  F7 E2		     1		mul dx
 2CEA  83 C0 2D		     1		add ax,45
 2CED  A3 0024 R	     1		mov pos_cenx,ax
 2CF0  EB 06		     1		jmp ??0151
 2CF2			     1	??0150:
 2CF2  C7 06 0024 R 0000     1		mov pos_cenx,0
 2CF8			     1	??0151:
 2CF8  5A		     1		pop dx
 2CF9  59		     1		pop cx
 2CFA  5B		     1		pop bx
 2CFB  58		     1		pop ax
					GET_POSNEARY pos_y
 2CFC  50		     1		push ax
 2CFD  53		     1		push bx
 2CFE  51		     1		push cx
 2CFF  52		     1		push dx
 2D00  A1 0022 R	     1		mov ax,pos_y
 2D03  83 F8 1E		     1		cmp ax,30
 2D06  72 23		     1		jb ??0152
 2D08  3D 01CC		     1		cmp ax,460
 2D0B  77 1E		     1		ja ??0152
 2D0D  83 E8 1E		     1		sub ax,30
 2D10  2B D2		     1		sub dx,dx
 2D12  BB 0032		     1		mov bx,50
 2D15  F7 F3		     1		div bx
 2D17  83 FA 1E		     1		cmp dx,30
 2D1A  77 0F		     1		ja ??0152
 2D1C  2B D2		     1		sub dx,dx
 2D1E  BA 0032		     1		mov dx,50
 2D21  F7 E2		     1		mul dx
 2D23  83 C0 2D		     1		add ax,45
 2D26  A3 0026 R	     1		mov pos_ceny,ax
 2D29  EB 06		     1		jmp ??0153
 2D2B			     1	??0152:
 2D2B  C7 06 0026 R 0000     1		mov pos_ceny,0
 2D31			     1	??0153:
 2D31  5A		     1		pop dx
 2D32  59		     1		pop cx
 2D33  5B		     1		pop bx
 2D34  58		     1		pop ax

 2D35  83 3E 0024 R 00			cmp pos_cenx,0
 2D3A  75 03 E9 FF75			jz reget
 2D3F  83 3E 0026 R 00			cmp pos_ceny,0
 2D44  75 03 E9 FF6B			jz reget
					;如果当前鼠标坐标值发生改变
 2D49  A1 0024 R			mov ax,pos_cenx
 2D4C  8B 1E 0028 R			mov bx,pos_lastx
 2D50  3B C3				cmp ax,bx
 2D52  75 0E				jnz redrawcircle
 2D54  A1 0026 R			mov ax,pos_ceny
 2D57  8B 1E 002A R			mov bx,pos_lasty
 2D5B  3B C3				cmp ax,bx
 2D5D  75 03				jnz redrawcircle
 2D5F  E9 FF52				jmp reget
					
 2D62				redrawcircle:

					DRAWCIR pos_lastx,pos_lasty,colo
 2D62  50		     2	       push ax
 2D63  53		     2	       push bx
 2D64  51		     2	       push cx
 2D65  52		     2	       push dx
 2D66  56		     2	       push si
 2D67  57		     2	       push di
 2D68  55		     2	       push bp
 2D69  B4 0C		     2	       mov ah,0ch
 2D6B  A0 0131 R	     2	       mov al,colo
 2D6E  B7 00		     2	       mov bh,0
 2D70  8B 0E 0028 R	     2	       mov cx,pos_lastx
 2D74  8B 16 002A R	     2	       mov dx,pos_lasty
 2D78  BE 0000		     2	       mov si,0         ;X
 2D7B  BF 0014		     2	       mov di,20    ;Y
 2D7E  BD FFED		     2	       mov bp,1-20
 2D81			     2	??0154: 
 2D81  3B F7		     2		   cmp si,di
 2D83  7C 06		     2	       jl ??0155
 2D85  8D 1E 2E1E R	     2	       lea bx,??015A
 2D89  FF E3		     2	       jmp bx
 2D8B			     2	??0155:
 2D8B  46		     2		   inc si
 2D8C			     2	??0156: 
 2D8C  83 FD 00		     2	       cmp bp,0
 2D8F  7D 09		     2	       jge ??0157
 2D91  03 EE		     2	       add bp,si
 2D93  03 EE		     2	       add bp,si
 2D95  83 C5 01		     2	       add bp,1
 2D98  EB 0C		     2	       jmp ??0158
 2D9A			     2	??0157: 
 2D9A  4F		     2		   dec di
 2D9B  03 EE		     2	       add bp,si
 2D9D  03 EE		     2	       add bp,si
 2D9F  2B EF		     2	       sub bp,di
 2DA1  2B EF		     2	       sub bp,di
 2DA3  83 C5 01		     2	       add bp,1
 2DA6			     2	??0158: 
 2DA6  B7 00		     2		   mov bh,0
 2DA8  8B 0E 0028 R	     2	       mov cx,pos_lastx
 2DAC  8B 16 002A R	     2	       mov dx,pos_lasty
 2DB0  03 CE		     2	       add cx,si
 2DB2  03 D7		     2	       add dx,di
 2DB4  CD 10		     2	       int 10h
 2DB6  8B 0E 0028 R	     2	       mov cx,pos_lastx
 2DBA  8B 16 002A R	     2	       mov dx,pos_lasty
 2DBE  2B CE		     2	       sub cx,si
 2DC0  03 D7		     2	       add dx,di
 2DC2  CD 10		     2	       int 10h
 2DC4  8B 0E 0028 R	     2	       mov cx,pos_lastx
 2DC8  8B 16 002A R	     2	       mov dx,pos_lasty
 2DCC  03 CE		     2	       add cx,si
 2DCE  2B D7		     2	       sub dx,di
 2DD0  CD 10		     2	       int 10h
 2DD2  8B 0E 0028 R	     2	       mov cx,pos_lastx
 2DD6  8B 16 002A R	     2	       mov dx,pos_lasty
 2DDA  2B CE		     2	       sub cx,si
 2DDC  2B D7		     2	       sub dx,di
 2DDE  CD 10		     2	       int 10h
 2DE0  8B 0E 0028 R	     2	       mov cx,pos_lastx
 2DE4  8B 16 002A R	     2	       mov dx,pos_lasty
 2DE8  03 CF		     2	       add cx,di
 2DEA  03 D6		     2	       add dx,si
 2DEC  CD 10		     2	       int 10h
 2DEE  8B 0E 0028 R	     2	       mov cx,pos_lastx
 2DF2  8B 16 002A R	     2	       mov dx,pos_lasty
 2DF6  2B CF		     2	       sub cx,di
 2DF8  03 D6		     2	       add dx,si
 2DFA  CD 10		     2	       int 10h
 2DFC  8B 0E 0028 R	     2	       mov cx,pos_lastx
 2E00  8B 16 002A R	     2	       mov dx,pos_lasty
 2E04  03 CF		     2	       add cx,di
 2E06  2B D6		     2	       sub dx,si
 2E08  CD 10		     2	       int 10h
 2E0A  8B 0E 0028 R	     2	       mov cx,pos_lastx
 2E0E  8B 16 002A R	     2	       mov dx,pos_lasty
 2E12  2B CF		     2	       sub cx,di
 2E14  2B D6		     2	       sub dx,si
 2E16  CD 10		     2	       int 10h
 2E18			     2	??0159: 
 2E18  8D 1E 2D81 R	     2		   lea bx,??0154
 2E1C  FF E3		     2	       jmp bx
 2E1E			     2	??015A:
 2E1E  B4 0C		     2	       mov ah,0ch
 2E20  A0 0131 R	     2	       mov al,colo
 2E23  B7 00		     2	       mov bh,0
 2E25  8B 0E 0014 R	     2	       mov cx,pos_lastx-20
 2E29  8B 16 002A R	     2	       mov dx,pos_lasty
 2E2D  CD 10		     2	       int 10h
 2E2F  8B 0E 003C R	     2	       mov cx,pos_lastx+20
 2E33  8B 16 002A R	     2	       mov dx,pos_lasty
 2E37  CD 10		     2	       int 10h
 2E39  8B 0E 0028 R	     2	       mov cx,pos_lastx
 2E3D  8B 16 0016 R	     2	       mov dx,pos_lasty-20
 2E41  CD 10		     2	       int 10h
 2E43  8B 0E 0028 R	     2	       mov cx,pos_lastx
 2E47  8B 16 003E R	     2	       mov dx,pos_lasty+20
 2E4B  CD 10		     2	       int 10h
 2E4D  5D		     2	       pop bp
 2E4E  5F		     2	       pop di
 2E4F  5E		     2	       pop si
 2E50  5A		     2	       pop dx
 2E51  59		     2	       pop cx
 2E52  5B		     2	       pop bx
 2E53  58		     2	       pop ax
 2E54  50		     2	       push ax
 2E55  53		     2	       push bx
 2E56  51		     2	       push cx
 2E57  52		     2	       push dx
 2E58  56		     2	       push si
 2E59  57		     2	       push di
 2E5A  55		     2	       push bp
 2E5B  B4 0C		     2	       mov ah,0ch
 2E5D  A0 0131 R	     2	       mov al,colo
 2E60  B7 00		     2	       mov bh,0
 2E62  8B 0E 0028 R	     2	       mov cx,pos_lastx
 2E66  8B 16 002A R	     2	       mov dx,pos_lasty
 2E6A  BE 0000		     2	       mov si,0         ;X
 2E6D  BF 0013		     2	       mov di,19    ;Y
 2E70  BD FFEE		     2	       mov bp,1-19
 2E73			     2	??015B: 
 2E73  3B F7		     2		   cmp si,di
 2E75  7C 06		     2	       jl ??015C
 2E77  8D 1E 2F10 R	     2	       lea bx,??0161
 2E7B  FF E3		     2	       jmp bx
 2E7D			     2	??015C:
 2E7D  46		     2		   inc si
 2E7E			     2	??015D: 
 2E7E  83 FD 00		     2	       cmp bp,0
 2E81  7D 09		     2	       jge ??015E
 2E83  03 EE		     2	       add bp,si
 2E85  03 EE		     2	       add bp,si
 2E87  83 C5 01		     2	       add bp,1
 2E8A  EB 0C		     2	       jmp ??015F
 2E8C			     2	??015E: 
 2E8C  4F		     2		   dec di
 2E8D  03 EE		     2	       add bp,si
 2E8F  03 EE		     2	       add bp,si
 2E91  2B EF		     2	       sub bp,di
 2E93  2B EF		     2	       sub bp,di
 2E95  83 C5 01		     2	       add bp,1
 2E98			     2	??015F: 
 2E98  B7 00		     2		   mov bh,0
 2E9A  8B 0E 0028 R	     2	       mov cx,pos_lastx
 2E9E  8B 16 002A R	     2	       mov dx,pos_lasty
 2EA2  03 CE		     2	       add cx,si
 2EA4  03 D7		     2	       add dx,di
 2EA6  CD 10		     2	       int 10h
 2EA8  8B 0E 0028 R	     2	       mov cx,pos_lastx
 2EAC  8B 16 002A R	     2	       mov dx,pos_lasty
 2EB0  2B CE		     2	       sub cx,si
 2EB2  03 D7		     2	       add dx,di
 2EB4  CD 10		     2	       int 10h
 2EB6  8B 0E 0028 R	     2	       mov cx,pos_lastx
 2EBA  8B 16 002A R	     2	       mov dx,pos_lasty
 2EBE  03 CE		     2	       add cx,si
 2EC0  2B D7		     2	       sub dx,di
 2EC2  CD 10		     2	       int 10h
 2EC4  8B 0E 0028 R	     2	       mov cx,pos_lastx
 2EC8  8B 16 002A R	     2	       mov dx,pos_lasty
 2ECC  2B CE		     2	       sub cx,si
 2ECE  2B D7		     2	       sub dx,di
 2ED0  CD 10		     2	       int 10h
 2ED2  8B 0E 0028 R	     2	       mov cx,pos_lastx
 2ED6  8B 16 002A R	     2	       mov dx,pos_lasty
 2EDA  03 CF		     2	       add cx,di
 2EDC  03 D6		     2	       add dx,si
 2EDE  CD 10		     2	       int 10h
 2EE0  8B 0E 0028 R	     2	       mov cx,pos_lastx
 2EE4  8B 16 002A R	     2	       mov dx,pos_lasty
 2EE8  2B CF		     2	       sub cx,di
 2EEA  03 D6		     2	       add dx,si
 2EEC  CD 10		     2	       int 10h
 2EEE  8B 0E 0028 R	     2	       mov cx,pos_lastx
 2EF2  8B 16 002A R	     2	       mov dx,pos_lasty
 2EF6  03 CF		     2	       add cx,di
 2EF8  2B D6		     2	       sub dx,si
 2EFA  CD 10		     2	       int 10h
 2EFC  8B 0E 0028 R	     2	       mov cx,pos_lastx
 2F00  8B 16 002A R	     2	       mov dx,pos_lasty
 2F04  2B CF		     2	       sub cx,di
 2F06  2B D6		     2	       sub dx,si
 2F08  CD 10		     2	       int 10h
 2F0A			     2	??0160: 
 2F0A  8D 1E 2E73 R	     2		   lea bx,??015B
 2F0E  FF E3		     2	       jmp bx
 2F10			     2	??0161:
 2F10  B4 0C		     2	       mov ah,0ch
 2F12  A0 0131 R	     2	       mov al,colo
 2F15  B7 00		     2	       mov bh,0
 2F17  8B 0E 0015 R	     2	       mov cx,pos_lastx-19
 2F1B  8B 16 002A R	     2	       mov dx,pos_lasty
 2F1F  CD 10		     2	       int 10h
 2F21  8B 0E 003B R	     2	       mov cx,pos_lastx+19
 2F25  8B 16 002A R	     2	       mov dx,pos_lasty
 2F29  CD 10		     2	       int 10h
 2F2B  8B 0E 0028 R	     2	       mov cx,pos_lastx
 2F2F  8B 16 0017 R	     2	       mov dx,pos_lasty-19
 2F33  CD 10		     2	       int 10h
 2F35  8B 0E 0028 R	     2	       mov cx,pos_lastx
 2F39  8B 16 003D R	     2	       mov dx,pos_lasty+19
 2F3D  CD 10		     2	       int 10h
 2F3F  5D		     2	       pop bp
 2F40  5F		     2	       pop di
 2F41  5E		     2	       pop si
 2F42  5A		     2	       pop dx
 2F43  59		     2	       pop cx
 2F44  5B		     2	       pop bx
 2F45  58		     2	       pop ax
 2F46  50		     2	       push ax
 2F47  53		     2	       push bx
 2F48  51		     2	       push cx
 2F49  52		     2	       push dx
 2F4A  56		     2	       push si
 2F4B  57		     2	       push di
 2F4C  55		     2	       push bp
 2F4D  B4 0C		     2	       mov ah,0ch
 2F4F  A0 0131 R	     2	       mov al,colo
 2F52  B7 00		     2	       mov bh,0
 2F54  8B 0E 0028 R	     2	       mov cx,pos_lastx
 2F58  8B 16 002A R	     2	       mov dx,pos_lasty
 2F5C  BE 0000		     2	       mov si,0         ;X
 2F5F  BF 0012		     2	       mov di,18    ;Y
 2F62  BD FFEF		     2	       mov bp,1-18
 2F65			     2	??0162: 
 2F65  3B F7		     2		   cmp si,di
 2F67  7C 06		     2	       jl ??0163
 2F69  8D 1E 3002 R	     2	       lea bx,??0168
 2F6D  FF E3		     2	       jmp bx
 2F6F			     2	??0163:
 2F6F  46		     2		   inc si
 2F70			     2	??0164: 
 2F70  83 FD 00		     2	       cmp bp,0
 2F73  7D 09		     2	       jge ??0165
 2F75  03 EE		     2	       add bp,si
 2F77  03 EE		     2	       add bp,si
 2F79  83 C5 01		     2	       add bp,1
 2F7C  EB 0C		     2	       jmp ??0166
 2F7E			     2	??0165: 
 2F7E  4F		     2		   dec di
 2F7F  03 EE		     2	       add bp,si
 2F81  03 EE		     2	       add bp,si
 2F83  2B EF		     2	       sub bp,di
 2F85  2B EF		     2	       sub bp,di
 2F87  83 C5 01		     2	       add bp,1
 2F8A			     2	??0166: 
 2F8A  B7 00		     2		   mov bh,0
 2F8C  8B 0E 0028 R	     2	       mov cx,pos_lastx
 2F90  8B 16 002A R	     2	       mov dx,pos_lasty
 2F94  03 CE		     2	       add cx,si
 2F96  03 D7		     2	       add dx,di
 2F98  CD 10		     2	       int 10h
 2F9A  8B 0E 0028 R	     2	       mov cx,pos_lastx
 2F9E  8B 16 002A R	     2	       mov dx,pos_lasty
 2FA2  2B CE		     2	       sub cx,si
 2FA4  03 D7		     2	       add dx,di
 2FA6  CD 10		     2	       int 10h
 2FA8  8B 0E 0028 R	     2	       mov cx,pos_lastx
 2FAC  8B 16 002A R	     2	       mov dx,pos_lasty
 2FB0  03 CE		     2	       add cx,si
 2FB2  2B D7		     2	       sub dx,di
 2FB4  CD 10		     2	       int 10h
 2FB6  8B 0E 0028 R	     2	       mov cx,pos_lastx
 2FBA  8B 16 002A R	     2	       mov dx,pos_lasty
 2FBE  2B CE		     2	       sub cx,si
 2FC0  2B D7		     2	       sub dx,di
 2FC2  CD 10		     2	       int 10h
 2FC4  8B 0E 0028 R	     2	       mov cx,pos_lastx
 2FC8  8B 16 002A R	     2	       mov dx,pos_lasty
 2FCC  03 CF		     2	       add cx,di
 2FCE  03 D6		     2	       add dx,si
 2FD0  CD 10		     2	       int 10h
 2FD2  8B 0E 0028 R	     2	       mov cx,pos_lastx
 2FD6  8B 16 002A R	     2	       mov dx,pos_lasty
 2FDA  2B CF		     2	       sub cx,di
 2FDC  03 D6		     2	       add dx,si
 2FDE  CD 10		     2	       int 10h
 2FE0  8B 0E 0028 R	     2	       mov cx,pos_lastx
 2FE4  8B 16 002A R	     2	       mov dx,pos_lasty
 2FE8  03 CF		     2	       add cx,di
 2FEA  2B D6		     2	       sub dx,si
 2FEC  CD 10		     2	       int 10h
 2FEE  8B 0E 0028 R	     2	       mov cx,pos_lastx
 2FF2  8B 16 002A R	     2	       mov dx,pos_lasty
 2FF6  2B CF		     2	       sub cx,di
 2FF8  2B D6		     2	       sub dx,si
 2FFA  CD 10		     2	       int 10h
 2FFC			     2	??0167: 
 2FFC  8D 1E 2F65 R	     2		   lea bx,??0162
 3000  FF E3		     2	       jmp bx
 3002			     2	??0168:
 3002  B4 0C		     2	       mov ah,0ch
 3004  A0 0131 R	     2	       mov al,colo
 3007  B7 00		     2	       mov bh,0
 3009  8B 0E 0016 R	     2	       mov cx,pos_lastx-18
 300D  8B 16 002A R	     2	       mov dx,pos_lasty
 3011  CD 10		     2	       int 10h
 3013  8B 0E 003A R	     2	       mov cx,pos_lastx+18
 3017  8B 16 002A R	     2	       mov dx,pos_lasty
 301B  CD 10		     2	       int 10h
 301D  8B 0E 0028 R	     2	       mov cx,pos_lastx
 3021  8B 16 0018 R	     2	       mov dx,pos_lasty-18
 3025  CD 10		     2	       int 10h
 3027  8B 0E 0028 R	     2	       mov cx,pos_lastx
 302B  8B 16 003C R	     2	       mov dx,pos_lasty+18
 302F  CD 10		     2	       int 10h
 3031  5D		     2	       pop bp
 3032  5F		     2	       pop di
 3033  5E		     2	       pop si
 3034  5A		     2	       pop dx
 3035  59		     2	       pop cx
 3036  5B		     2	       pop bx
 3037  58		     2	       pop ax
 3038  50		     2	       push ax
 3039  53		     2	       push bx
 303A  51		     2	       push cx
 303B  52		     2	       push dx
 303C  56		     2	       push si
 303D  57		     2	       push di
 303E  55		     2	       push bp
 303F  B4 0C		     2	       mov ah,0ch
 3041  A0 0131 R	     2	       mov al,colo
 3044  B7 00		     2	       mov bh,0
 3046  8B 0E 0028 R	     2	       mov cx,pos_lastx
 304A  8B 16 002A R	     2	       mov dx,pos_lasty
 304E  BE 0000		     2	       mov si,0         ;X
 3051  BF 0011		     2	       mov di,17    ;Y
 3054  BD FFF0		     2	       mov bp,1-17
 3057			     2	??0169: 
 3057  3B F7		     2		   cmp si,di
 3059  7C 06		     2	       jl ??016A
 305B  8D 1E 30F4 R	     2	       lea bx,??016F
 305F  FF E3		     2	       jmp bx
 3061			     2	??016A:
 3061  46		     2		   inc si
 3062			     2	??016B: 
 3062  83 FD 00		     2	       cmp bp,0
 3065  7D 09		     2	       jge ??016C
 3067  03 EE		     2	       add bp,si
 3069  03 EE		     2	       add bp,si
 306B  83 C5 01		     2	       add bp,1
 306E  EB 0C		     2	       jmp ??016D
 3070			     2	??016C: 
 3070  4F		     2		   dec di
 3071  03 EE		     2	       add bp,si
 3073  03 EE		     2	       add bp,si
 3075  2B EF		     2	       sub bp,di
 3077  2B EF		     2	       sub bp,di
 3079  83 C5 01		     2	       add bp,1
 307C			     2	??016D: 
 307C  B7 00		     2		   mov bh,0
 307E  8B 0E 0028 R	     2	       mov cx,pos_lastx
 3082  8B 16 002A R	     2	       mov dx,pos_lasty
 3086  03 CE		     2	       add cx,si
 3088  03 D7		     2	       add dx,di
 308A  CD 10		     2	       int 10h
 308C  8B 0E 0028 R	     2	       mov cx,pos_lastx
 3090  8B 16 002A R	     2	       mov dx,pos_lasty
 3094  2B CE		     2	       sub cx,si
 3096  03 D7		     2	       add dx,di
 3098  CD 10		     2	       int 10h
 309A  8B 0E 0028 R	     2	       mov cx,pos_lastx
 309E  8B 16 002A R	     2	       mov dx,pos_lasty
 30A2  03 CE		     2	       add cx,si
 30A4  2B D7		     2	       sub dx,di
 30A6  CD 10		     2	       int 10h
 30A8  8B 0E 0028 R	     2	       mov cx,pos_lastx
 30AC  8B 16 002A R	     2	       mov dx,pos_lasty
 30B0  2B CE		     2	       sub cx,si
 30B2  2B D7		     2	       sub dx,di
 30B4  CD 10		     2	       int 10h
 30B6  8B 0E 0028 R	     2	       mov cx,pos_lastx
 30BA  8B 16 002A R	     2	       mov dx,pos_lasty
 30BE  03 CF		     2	       add cx,di
 30C0  03 D6		     2	       add dx,si
 30C2  CD 10		     2	       int 10h
 30C4  8B 0E 0028 R	     2	       mov cx,pos_lastx
 30C8  8B 16 002A R	     2	       mov dx,pos_lasty
 30CC  2B CF		     2	       sub cx,di
 30CE  03 D6		     2	       add dx,si
 30D0  CD 10		     2	       int 10h
 30D2  8B 0E 0028 R	     2	       mov cx,pos_lastx
 30D6  8B 16 002A R	     2	       mov dx,pos_lasty
 30DA  03 CF		     2	       add cx,di
 30DC  2B D6		     2	       sub dx,si
 30DE  CD 10		     2	       int 10h
 30E0  8B 0E 0028 R	     2	       mov cx,pos_lastx
 30E4  8B 16 002A R	     2	       mov dx,pos_lasty
 30E8  2B CF		     2	       sub cx,di
 30EA  2B D6		     2	       sub dx,si
 30EC  CD 10		     2	       int 10h
 30EE			     2	??016E: 
 30EE  8D 1E 3057 R	     2		   lea bx,??0169
 30F2  FF E3		     2	       jmp bx
 30F4			     2	??016F:
 30F4  B4 0C		     2	       mov ah,0ch
 30F6  A0 0131 R	     2	       mov al,colo
 30F9  B7 00		     2	       mov bh,0
 30FB  8B 0E 0017 R	     2	       mov cx,pos_lastx-17
 30FF  8B 16 002A R	     2	       mov dx,pos_lasty
 3103  CD 10		     2	       int 10h
 3105  8B 0E 0039 R	     2	       mov cx,pos_lastx+17
 3109  8B 16 002A R	     2	       mov dx,pos_lasty
 310D  CD 10		     2	       int 10h
 310F  8B 0E 0028 R	     2	       mov cx,pos_lastx
 3113  8B 16 0019 R	     2	       mov dx,pos_lasty-17
 3117  CD 10		     2	       int 10h
 3119  8B 0E 0028 R	     2	       mov cx,pos_lastx
 311D  8B 16 003B R	     2	       mov dx,pos_lasty+17
 3121  CD 10		     2	       int 10h
 3123  5D		     2	       pop bp
 3124  5F		     2	       pop di
 3125  5E		     2	       pop si
 3126  5A		     2	       pop dx
 3127  59		     2	       pop cx
 3128  5B		     2	       pop bx
 3129  58		     2	       pop ax
 312A  50		     2	       push ax
 312B  53		     2	       push bx
 312C  51		     2	       push cx
 312D  52		     2	       push dx
 312E  56		     2	       push si
 312F  57		     2	       push di
 3130  55		     2	       push bp
 3131  B4 0C		     2	       mov ah,0ch
 3133  A0 0131 R	     2	       mov al,colo
 3136  B7 00		     2	       mov bh,0
 3138  8B 0E 0028 R	     2	       mov cx,pos_lastx
 313C  8B 16 002A R	     2	       mov dx,pos_lasty
 3140  BE 0000		     2	       mov si,0         ;X
 3143  BF 0010		     2	       mov di,16    ;Y
 3146  BD FFF1		     2	       mov bp,1-16
 3149			     2	??0170: 
 3149  3B F7		     2		   cmp si,di
 314B  7C 06		     2	       jl ??0171
 314D  8D 1E 31E6 R	     2	       lea bx,??0176
 3151  FF E3		     2	       jmp bx
 3153			     2	??0171:
 3153  46		     2		   inc si
 3154			     2	??0172: 
 3154  83 FD 00		     2	       cmp bp,0
 3157  7D 09		     2	       jge ??0173
 3159  03 EE		     2	       add bp,si
 315B  03 EE		     2	       add bp,si
 315D  83 C5 01		     2	       add bp,1
 3160  EB 0C		     2	       jmp ??0174
 3162			     2	??0173: 
 3162  4F		     2		   dec di
 3163  03 EE		     2	       add bp,si
 3165  03 EE		     2	       add bp,si
 3167  2B EF		     2	       sub bp,di
 3169  2B EF		     2	       sub bp,di
 316B  83 C5 01		     2	       add bp,1
 316E			     2	??0174: 
 316E  B7 00		     2		   mov bh,0
 3170  8B 0E 0028 R	     2	       mov cx,pos_lastx
 3174  8B 16 002A R	     2	       mov dx,pos_lasty
 3178  03 CE		     2	       add cx,si
 317A  03 D7		     2	       add dx,di
 317C  CD 10		     2	       int 10h
 317E  8B 0E 0028 R	     2	       mov cx,pos_lastx
 3182  8B 16 002A R	     2	       mov dx,pos_lasty
 3186  2B CE		     2	       sub cx,si
 3188  03 D7		     2	       add dx,di
 318A  CD 10		     2	       int 10h
 318C  8B 0E 0028 R	     2	       mov cx,pos_lastx
 3190  8B 16 002A R	     2	       mov dx,pos_lasty
 3194  03 CE		     2	       add cx,si
 3196  2B D7		     2	       sub dx,di
 3198  CD 10		     2	       int 10h
 319A  8B 0E 0028 R	     2	       mov cx,pos_lastx
 319E  8B 16 002A R	     2	       mov dx,pos_lasty
 31A2  2B CE		     2	       sub cx,si
 31A4  2B D7		     2	       sub dx,di
 31A6  CD 10		     2	       int 10h
 31A8  8B 0E 0028 R	     2	       mov cx,pos_lastx
 31AC  8B 16 002A R	     2	       mov dx,pos_lasty
 31B0  03 CF		     2	       add cx,di
 31B2  03 D6		     2	       add dx,si
 31B4  CD 10		     2	       int 10h
 31B6  8B 0E 0028 R	     2	       mov cx,pos_lastx
 31BA  8B 16 002A R	     2	       mov dx,pos_lasty
 31BE  2B CF		     2	       sub cx,di
 31C0  03 D6		     2	       add dx,si
 31C2  CD 10		     2	       int 10h
 31C4  8B 0E 0028 R	     2	       mov cx,pos_lastx
 31C8  8B 16 002A R	     2	       mov dx,pos_lasty
 31CC  03 CF		     2	       add cx,di
 31CE  2B D6		     2	       sub dx,si
 31D0  CD 10		     2	       int 10h
 31D2  8B 0E 0028 R	     2	       mov cx,pos_lastx
 31D6  8B 16 002A R	     2	       mov dx,pos_lasty
 31DA  2B CF		     2	       sub cx,di
 31DC  2B D6		     2	       sub dx,si
 31DE  CD 10		     2	       int 10h
 31E0			     2	??0175: 
 31E0  8D 1E 3149 R	     2		   lea bx,??0170
 31E4  FF E3		     2	       jmp bx
 31E6			     2	??0176:
 31E6  B4 0C		     2	       mov ah,0ch
 31E8  A0 0131 R	     2	       mov al,colo
 31EB  B7 00		     2	       mov bh,0
 31ED  8B 0E 0018 R	     2	       mov cx,pos_lastx-16
 31F1  8B 16 002A R	     2	       mov dx,pos_lasty
 31F5  CD 10		     2	       int 10h
 31F7  8B 0E 0038 R	     2	       mov cx,pos_lastx+16
 31FB  8B 16 002A R	     2	       mov dx,pos_lasty
 31FF  CD 10		     2	       int 10h
 3201  8B 0E 0028 R	     2	       mov cx,pos_lastx
 3205  8B 16 001A R	     2	       mov dx,pos_lasty-16
 3209  CD 10		     2	       int 10h
 320B  8B 0E 0028 R	     2	       mov cx,pos_lastx
 320F  8B 16 003A R	     2	       mov dx,pos_lasty+16
 3213  CD 10		     2	       int 10h
 3215  5D		     2	       pop bp
 3216  5F		     2	       pop di
 3217  5E		     2	       pop si
 3218  5A		     2	       pop dx
 3219  59		     2	       pop cx
 321A  5B		     2	       pop bx
 321B  58		     2	       pop ax
 321C  50		     2	       push ax
 321D  53		     2	       push bx
 321E  51		     2	       push cx
 321F  52		     2	       push dx
 3220  56		     2	       push si
 3221  57		     2	       push di
 3222  55		     2	       push bp
 3223  B4 0C		     2	       mov ah,0ch
 3225  A0 0131 R	     2	       mov al,colo
 3228  B7 00		     2	       mov bh,0
 322A  8B 0E 0028 R	     2	       mov cx,pos_lastx
 322E  8B 16 002A R	     2	       mov dx,pos_lasty
 3232  BE 0000		     2	       mov si,0         ;X
 3235  BF 000F		     2	       mov di,15    ;Y
 3238  BD FFF2		     2	       mov bp,1-15
 323B			     2	??0177: 
 323B  3B F7		     2		   cmp si,di
 323D  7C 06		     2	       jl ??0178
 323F  8D 1E 32D8 R	     2	       lea bx,??017D
 3243  FF E3		     2	       jmp bx
 3245			     2	??0178:
 3245  46		     2		   inc si
 3246			     2	??0179: 
 3246  83 FD 00		     2	       cmp bp,0
 3249  7D 09		     2	       jge ??017A
 324B  03 EE		     2	       add bp,si
 324D  03 EE		     2	       add bp,si
 324F  83 C5 01		     2	       add bp,1
 3252  EB 0C		     2	       jmp ??017B
 3254			     2	??017A: 
 3254  4F		     2		   dec di
 3255  03 EE		     2	       add bp,si
 3257  03 EE		     2	       add bp,si
 3259  2B EF		     2	       sub bp,di
 325B  2B EF		     2	       sub bp,di
 325D  83 C5 01		     2	       add bp,1
 3260			     2	??017B: 
 3260  B7 00		     2		   mov bh,0
 3262  8B 0E 0028 R	     2	       mov cx,pos_lastx
 3266  8B 16 002A R	     2	       mov dx,pos_lasty
 326A  03 CE		     2	       add cx,si
 326C  03 D7		     2	       add dx,di
 326E  CD 10		     2	       int 10h
 3270  8B 0E 0028 R	     2	       mov cx,pos_lastx
 3274  8B 16 002A R	     2	       mov dx,pos_lasty
 3278  2B CE		     2	       sub cx,si
 327A  03 D7		     2	       add dx,di
 327C  CD 10		     2	       int 10h
 327E  8B 0E 0028 R	     2	       mov cx,pos_lastx
 3282  8B 16 002A R	     2	       mov dx,pos_lasty
 3286  03 CE		     2	       add cx,si
 3288  2B D7		     2	       sub dx,di
 328A  CD 10		     2	       int 10h
 328C  8B 0E 0028 R	     2	       mov cx,pos_lastx
 3290  8B 16 002A R	     2	       mov dx,pos_lasty
 3294  2B CE		     2	       sub cx,si
 3296  2B D7		     2	       sub dx,di
 3298  CD 10		     2	       int 10h
 329A  8B 0E 0028 R	     2	       mov cx,pos_lastx
 329E  8B 16 002A R	     2	       mov dx,pos_lasty
 32A2  03 CF		     2	       add cx,di
 32A4  03 D6		     2	       add dx,si
 32A6  CD 10		     2	       int 10h
 32A8  8B 0E 0028 R	     2	       mov cx,pos_lastx
 32AC  8B 16 002A R	     2	       mov dx,pos_lasty
 32B0  2B CF		     2	       sub cx,di
 32B2  03 D6		     2	       add dx,si
 32B4  CD 10		     2	       int 10h
 32B6  8B 0E 0028 R	     2	       mov cx,pos_lastx
 32BA  8B 16 002A R	     2	       mov dx,pos_lasty
 32BE  03 CF		     2	       add cx,di
 32C0  2B D6		     2	       sub dx,si
 32C2  CD 10		     2	       int 10h
 32C4  8B 0E 0028 R	     2	       mov cx,pos_lastx
 32C8  8B 16 002A R	     2	       mov dx,pos_lasty
 32CC  2B CF		     2	       sub cx,di
 32CE  2B D6		     2	       sub dx,si
 32D0  CD 10		     2	       int 10h
 32D2			     2	??017C: 
 32D2  8D 1E 323B R	     2		   lea bx,??0177
 32D6  FF E3		     2	       jmp bx
 32D8			     2	??017D:
 32D8  B4 0C		     2	       mov ah,0ch
 32DA  A0 0131 R	     2	       mov al,colo
 32DD  B7 00		     2	       mov bh,0
 32DF  8B 0E 0019 R	     2	       mov cx,pos_lastx-15
 32E3  8B 16 002A R	     2	       mov dx,pos_lasty
 32E7  CD 10		     2	       int 10h
 32E9  8B 0E 0037 R	     2	       mov cx,pos_lastx+15
 32ED  8B 16 002A R	     2	       mov dx,pos_lasty
 32F1  CD 10		     2	       int 10h
 32F3  8B 0E 0028 R	     2	       mov cx,pos_lastx
 32F7  8B 16 001B R	     2	       mov dx,pos_lasty-15
 32FB  CD 10		     2	       int 10h
 32FD  8B 0E 0028 R	     2	       mov cx,pos_lastx
 3301  8B 16 0039 R	     2	       mov dx,pos_lasty+15
 3305  CD 10		     2	       int 10h
 3307  5D		     2	       pop bp
 3308  5F		     2	       pop di
 3309  5E		     2	       pop si
 330A  5A		     2	       pop dx
 330B  59		     2	       pop cx
 330C  5B		     2	       pop bx
 330D  58		     2	       pop ax
 330E  50		     2	       push ax
 330F  53		     2	       push bx
 3310  51		     2	       push cx
 3311  52		     2	       push dx
 3312  56		     2	       push si
 3313  57		     2	       push di
 3314  55		     2	       push bp
 3315  B4 0C		     2	       mov ah,0ch
 3317  A0 0131 R	     2	       mov al,colo
 331A  B7 00		     2	       mov bh,0
 331C  8B 0E 0028 R	     2	       mov cx,pos_lastx
 3320  8B 16 002A R	     2	       mov dx,pos_lasty
 3324  BE 0000		     2	       mov si,0         ;X
 3327  BF 000E		     2	       mov di,14    ;Y
 332A  BD FFF3		     2	       mov bp,1-14
 332D			     2	??017E: 
 332D  3B F7		     2		   cmp si,di
 332F  7C 06		     2	       jl ??017F
 3331  8D 1E 33CA R	     2	       lea bx,??0184
 3335  FF E3		     2	       jmp bx
 3337			     2	??017F:
 3337  46		     2		   inc si
 3338			     2	??0180: 
 3338  83 FD 00		     2	       cmp bp,0
 333B  7D 09		     2	       jge ??0181
 333D  03 EE		     2	       add bp,si
 333F  03 EE		     2	       add bp,si
 3341  83 C5 01		     2	       add bp,1
 3344  EB 0C		     2	       jmp ??0182
 3346			     2	??0181: 
 3346  4F		     2		   dec di
 3347  03 EE		     2	       add bp,si
 3349  03 EE		     2	       add bp,si
 334B  2B EF		     2	       sub bp,di
 334D  2B EF		     2	       sub bp,di
 334F  83 C5 01		     2	       add bp,1
 3352			     2	??0182: 
 3352  B7 00		     2		   mov bh,0
 3354  8B 0E 0028 R	     2	       mov cx,pos_lastx
 3358  8B 16 002A R	     2	       mov dx,pos_lasty
 335C  03 CE		     2	       add cx,si
 335E  03 D7		     2	       add dx,di
 3360  CD 10		     2	       int 10h
 3362  8B 0E 0028 R	     2	       mov cx,pos_lastx
 3366  8B 16 002A R	     2	       mov dx,pos_lasty
 336A  2B CE		     2	       sub cx,si
 336C  03 D7		     2	       add dx,di
 336E  CD 10		     2	       int 10h
 3370  8B 0E 0028 R	     2	       mov cx,pos_lastx
 3374  8B 16 002A R	     2	       mov dx,pos_lasty
 3378  03 CE		     2	       add cx,si
 337A  2B D7		     2	       sub dx,di
 337C  CD 10		     2	       int 10h
 337E  8B 0E 0028 R	     2	       mov cx,pos_lastx
 3382  8B 16 002A R	     2	       mov dx,pos_lasty
 3386  2B CE		     2	       sub cx,si
 3388  2B D7		     2	       sub dx,di
 338A  CD 10		     2	       int 10h
 338C  8B 0E 0028 R	     2	       mov cx,pos_lastx
 3390  8B 16 002A R	     2	       mov dx,pos_lasty
 3394  03 CF		     2	       add cx,di
 3396  03 D6		     2	       add dx,si
 3398  CD 10		     2	       int 10h
 339A  8B 0E 0028 R	     2	       mov cx,pos_lastx
 339E  8B 16 002A R	     2	       mov dx,pos_lasty
 33A2  2B CF		     2	       sub cx,di
 33A4  03 D6		     2	       add dx,si
 33A6  CD 10		     2	       int 10h
 33A8  8B 0E 0028 R	     2	       mov cx,pos_lastx
 33AC  8B 16 002A R	     2	       mov dx,pos_lasty
 33B0  03 CF		     2	       add cx,di
 33B2  2B D6		     2	       sub dx,si
 33B4  CD 10		     2	       int 10h
 33B6  8B 0E 0028 R	     2	       mov cx,pos_lastx
 33BA  8B 16 002A R	     2	       mov dx,pos_lasty
 33BE  2B CF		     2	       sub cx,di
 33C0  2B D6		     2	       sub dx,si
 33C2  CD 10		     2	       int 10h
 33C4			     2	??0183: 
 33C4  8D 1E 332D R	     2		   lea bx,??017E
 33C8  FF E3		     2	       jmp bx
 33CA			     2	??0184:
 33CA  B4 0C		     2	       mov ah,0ch
 33CC  A0 0131 R	     2	       mov al,colo
 33CF  B7 00		     2	       mov bh,0
 33D1  8B 0E 001A R	     2	       mov cx,pos_lastx-14
 33D5  8B 16 002A R	     2	       mov dx,pos_lasty
 33D9  CD 10		     2	       int 10h
 33DB  8B 0E 0036 R	     2	       mov cx,pos_lastx+14
 33DF  8B 16 002A R	     2	       mov dx,pos_lasty
 33E3  CD 10		     2	       int 10h
 33E5  8B 0E 0028 R	     2	       mov cx,pos_lastx
 33E9  8B 16 001C R	     2	       mov dx,pos_lasty-14
 33ED  CD 10		     2	       int 10h
 33EF  8B 0E 0028 R	     2	       mov cx,pos_lastx
 33F3  8B 16 0038 R	     2	       mov dx,pos_lasty+14
 33F7  CD 10		     2	       int 10h
 33F9  5D		     2	       pop bp
 33FA  5F		     2	       pop di
 33FB  5E		     2	       pop si
 33FC  5A		     2	       pop dx
 33FD  59		     2	       pop cx
 33FE  5B		     2	       pop bx
 33FF  58		     2	       pop ax
 3400  50		     2	       push ax
 3401  53		     2	       push bx
 3402  51		     2	       push cx
 3403  52		     2	       push dx
 3404  56		     2	       push si
 3405  57		     2	       push di
 3406  55		     2	       push bp
 3407  B4 0C		     2	       mov ah,0ch
 3409  A0 0131 R	     2	       mov al,colo
 340C  B7 00		     2	       mov bh,0
 340E  8B 0E 0028 R	     2	       mov cx,pos_lastx
 3412  8B 16 002A R	     2	       mov dx,pos_lasty
 3416  BE 0000		     2	       mov si,0         ;X
 3419  BF 000D		     2	       mov di,13    ;Y
 341C  BD FFF4		     2	       mov bp,1-13
 341F			     2	??0185: 
 341F  3B F7		     2		   cmp si,di
 3421  7C 06		     2	       jl ??0186
 3423  8D 1E 34BC R	     2	       lea bx,??018B
 3427  FF E3		     2	       jmp bx
 3429			     2	??0186:
 3429  46		     2		   inc si
 342A			     2	??0187: 
 342A  83 FD 00		     2	       cmp bp,0
 342D  7D 09		     2	       jge ??0188
 342F  03 EE		     2	       add bp,si
 3431  03 EE		     2	       add bp,si
 3433  83 C5 01		     2	       add bp,1
 3436  EB 0C		     2	       jmp ??0189
 3438			     2	??0188: 
 3438  4F		     2		   dec di
 3439  03 EE		     2	       add bp,si
 343B  03 EE		     2	       add bp,si
 343D  2B EF		     2	       sub bp,di
 343F  2B EF		     2	       sub bp,di
 3441  83 C5 01		     2	       add bp,1
 3444			     2	??0189: 
 3444  B7 00		     2		   mov bh,0
 3446  8B 0E 0028 R	     2	       mov cx,pos_lastx
 344A  8B 16 002A R	     2	       mov dx,pos_lasty
 344E  03 CE		     2	       add cx,si
 3450  03 D7		     2	       add dx,di
 3452  CD 10		     2	       int 10h
 3454  8B 0E 0028 R	     2	       mov cx,pos_lastx
 3458  8B 16 002A R	     2	       mov dx,pos_lasty
 345C  2B CE		     2	       sub cx,si
 345E  03 D7		     2	       add dx,di
 3460  CD 10		     2	       int 10h
 3462  8B 0E 0028 R	     2	       mov cx,pos_lastx
 3466  8B 16 002A R	     2	       mov dx,pos_lasty
 346A  03 CE		     2	       add cx,si
 346C  2B D7		     2	       sub dx,di
 346E  CD 10		     2	       int 10h
 3470  8B 0E 0028 R	     2	       mov cx,pos_lastx
 3474  8B 16 002A R	     2	       mov dx,pos_lasty
 3478  2B CE		     2	       sub cx,si
 347A  2B D7		     2	       sub dx,di
 347C  CD 10		     2	       int 10h
 347E  8B 0E 0028 R	     2	       mov cx,pos_lastx
 3482  8B 16 002A R	     2	       mov dx,pos_lasty
 3486  03 CF		     2	       add cx,di
 3488  03 D6		     2	       add dx,si
 348A  CD 10		     2	       int 10h
 348C  8B 0E 0028 R	     2	       mov cx,pos_lastx
 3490  8B 16 002A R	     2	       mov dx,pos_lasty
 3494  2B CF		     2	       sub cx,di
 3496  03 D6		     2	       add dx,si
 3498  CD 10		     2	       int 10h
 349A  8B 0E 0028 R	     2	       mov cx,pos_lastx
 349E  8B 16 002A R	     2	       mov dx,pos_lasty
 34A2  03 CF		     2	       add cx,di
 34A4  2B D6		     2	       sub dx,si
 34A6  CD 10		     2	       int 10h
 34A8  8B 0E 0028 R	     2	       mov cx,pos_lastx
 34AC  8B 16 002A R	     2	       mov dx,pos_lasty
 34B0  2B CF		     2	       sub cx,di
 34B2  2B D6		     2	       sub dx,si
 34B4  CD 10		     2	       int 10h
 34B6			     2	??018A: 
 34B6  8D 1E 341F R	     2		   lea bx,??0185
 34BA  FF E3		     2	       jmp bx
 34BC			     2	??018B:
 34BC  B4 0C		     2	       mov ah,0ch
 34BE  A0 0131 R	     2	       mov al,colo
 34C1  B7 00		     2	       mov bh,0
 34C3  8B 0E 001B R	     2	       mov cx,pos_lastx-13
 34C7  8B 16 002A R	     2	       mov dx,pos_lasty
 34CB  CD 10		     2	       int 10h
 34CD  8B 0E 0035 R	     2	       mov cx,pos_lastx+13
 34D1  8B 16 002A R	     2	       mov dx,pos_lasty
 34D5  CD 10		     2	       int 10h
 34D7  8B 0E 0028 R	     2	       mov cx,pos_lastx
 34DB  8B 16 001D R	     2	       mov dx,pos_lasty-13
 34DF  CD 10		     2	       int 10h
 34E1  8B 0E 0028 R	     2	       mov cx,pos_lastx
 34E5  8B 16 0037 R	     2	       mov dx,pos_lasty+13
 34E9  CD 10		     2	       int 10h
 34EB  5D		     2	       pop bp
 34EC  5F		     2	       pop di
 34ED  5E		     2	       pop si
 34EE  5A		     2	       pop dx
 34EF  59		     2	       pop cx
 34F0  5B		     2	       pop bx
 34F1  58		     2	       pop ax
 34F2  50		     2	       push ax
 34F3  53		     2	       push bx
 34F4  51		     2	       push cx
 34F5  52		     2	       push dx
 34F6  56		     2	       push si
 34F7  57		     2	       push di
 34F8  55		     2	       push bp
 34F9  B4 0C		     2	       mov ah,0ch
 34FB  A0 0131 R	     2	       mov al,colo
 34FE  B7 00		     2	       mov bh,0
 3500  8B 0E 0028 R	     2	       mov cx,pos_lastx
 3504  8B 16 002A R	     2	       mov dx,pos_lasty
 3508  BE 0000		     2	       mov si,0         ;X
 350B  BF 000C		     2	       mov di,12    ;Y
 350E  BD FFF5		     2	       mov bp,1-12
 3511			     2	??018C: 
 3511  3B F7		     2		   cmp si,di
 3513  7C 06		     2	       jl ??018D
 3515  8D 1E 35AE R	     2	       lea bx,??0192
 3519  FF E3		     2	       jmp bx
 351B			     2	??018D:
 351B  46		     2		   inc si
 351C			     2	??018E: 
 351C  83 FD 00		     2	       cmp bp,0
 351F  7D 09		     2	       jge ??018F
 3521  03 EE		     2	       add bp,si
 3523  03 EE		     2	       add bp,si
 3525  83 C5 01		     2	       add bp,1
 3528  EB 0C		     2	       jmp ??0190
 352A			     2	??018F: 
 352A  4F		     2		   dec di
 352B  03 EE		     2	       add bp,si
 352D  03 EE		     2	       add bp,si
 352F  2B EF		     2	       sub bp,di
 3531  2B EF		     2	       sub bp,di
 3533  83 C5 01		     2	       add bp,1
 3536			     2	??0190: 
 3536  B7 00		     2		   mov bh,0
 3538  8B 0E 0028 R	     2	       mov cx,pos_lastx
 353C  8B 16 002A R	     2	       mov dx,pos_lasty
 3540  03 CE		     2	       add cx,si
 3542  03 D7		     2	       add dx,di
 3544  CD 10		     2	       int 10h
 3546  8B 0E 0028 R	     2	       mov cx,pos_lastx
 354A  8B 16 002A R	     2	       mov dx,pos_lasty
 354E  2B CE		     2	       sub cx,si
 3550  03 D7		     2	       add dx,di
 3552  CD 10		     2	       int 10h
 3554  8B 0E 0028 R	     2	       mov cx,pos_lastx
 3558  8B 16 002A R	     2	       mov dx,pos_lasty
 355C  03 CE		     2	       add cx,si
 355E  2B D7		     2	       sub dx,di
 3560  CD 10		     2	       int 10h
 3562  8B 0E 0028 R	     2	       mov cx,pos_lastx
 3566  8B 16 002A R	     2	       mov dx,pos_lasty
 356A  2B CE		     2	       sub cx,si
 356C  2B D7		     2	       sub dx,di
 356E  CD 10		     2	       int 10h
 3570  8B 0E 0028 R	     2	       mov cx,pos_lastx
 3574  8B 16 002A R	     2	       mov dx,pos_lasty
 3578  03 CF		     2	       add cx,di
 357A  03 D6		     2	       add dx,si
 357C  CD 10		     2	       int 10h
 357E  8B 0E 0028 R	     2	       mov cx,pos_lastx
 3582  8B 16 002A R	     2	       mov dx,pos_lasty
 3586  2B CF		     2	       sub cx,di
 3588  03 D6		     2	       add dx,si
 358A  CD 10		     2	       int 10h
 358C  8B 0E 0028 R	     2	       mov cx,pos_lastx
 3590  8B 16 002A R	     2	       mov dx,pos_lasty
 3594  03 CF		     2	       add cx,di
 3596  2B D6		     2	       sub dx,si
 3598  CD 10		     2	       int 10h
 359A  8B 0E 0028 R	     2	       mov cx,pos_lastx
 359E  8B 16 002A R	     2	       mov dx,pos_lasty
 35A2  2B CF		     2	       sub cx,di
 35A4  2B D6		     2	       sub dx,si
 35A6  CD 10		     2	       int 10h
 35A8			     2	??0191: 
 35A8  8D 1E 3511 R	     2		   lea bx,??018C
 35AC  FF E3		     2	       jmp bx
 35AE			     2	??0192:
 35AE  B4 0C		     2	       mov ah,0ch
 35B0  A0 0131 R	     2	       mov al,colo
 35B3  B7 00		     2	       mov bh,0
 35B5  8B 0E 001C R	     2	       mov cx,pos_lastx-12
 35B9  8B 16 002A R	     2	       mov dx,pos_lasty
 35BD  CD 10		     2	       int 10h
 35BF  8B 0E 0034 R	     2	       mov cx,pos_lastx+12
 35C3  8B 16 002A R	     2	       mov dx,pos_lasty
 35C7  CD 10		     2	       int 10h
 35C9  8B 0E 0028 R	     2	       mov cx,pos_lastx
 35CD  8B 16 001E R	     2	       mov dx,pos_lasty-12
 35D1  CD 10		     2	       int 10h
 35D3  8B 0E 0028 R	     2	       mov cx,pos_lastx
 35D7  8B 16 0036 R	     2	       mov dx,pos_lasty+12
 35DB  CD 10		     2	       int 10h
 35DD  5D		     2	       pop bp
 35DE  5F		     2	       pop di
 35DF  5E		     2	       pop si
 35E0  5A		     2	       pop dx
 35E1  59		     2	       pop cx
 35E2  5B		     2	       pop bx
 35E3  58		     2	       pop ax
 35E4  50		     2	       push ax
 35E5  53		     2	       push bx
 35E6  51		     2	       push cx
 35E7  52		     2	       push dx
 35E8  56		     2	       push si
 35E9  57		     2	       push di
 35EA  55		     2	       push bp
 35EB  B4 0C		     2	       mov ah,0ch
 35ED  A0 0131 R	     2	       mov al,colo
 35F0  B7 00		     2	       mov bh,0
 35F2  8B 0E 0028 R	     2	       mov cx,pos_lastx
 35F6  8B 16 002A R	     2	       mov dx,pos_lasty
 35FA  BE 0000		     2	       mov si,0         ;X
 35FD  BF 000B		     2	       mov di,11    ;Y
 3600  BD FFF6		     2	       mov bp,1-11
 3603			     2	??0193: 
 3603  3B F7		     2		   cmp si,di
 3605  7C 06		     2	       jl ??0194
 3607  8D 1E 36A0 R	     2	       lea bx,??0199
 360B  FF E3		     2	       jmp bx
 360D			     2	??0194:
 360D  46		     2		   inc si
 360E			     2	??0195: 
 360E  83 FD 00		     2	       cmp bp,0
 3611  7D 09		     2	       jge ??0196
 3613  03 EE		     2	       add bp,si
 3615  03 EE		     2	       add bp,si
 3617  83 C5 01		     2	       add bp,1
 361A  EB 0C		     2	       jmp ??0197
 361C			     2	??0196: 
 361C  4F		     2		   dec di
 361D  03 EE		     2	       add bp,si
 361F  03 EE		     2	       add bp,si
 3621  2B EF		     2	       sub bp,di
 3623  2B EF		     2	       sub bp,di
 3625  83 C5 01		     2	       add bp,1
 3628			     2	??0197: 
 3628  B7 00		     2		   mov bh,0
 362A  8B 0E 0028 R	     2	       mov cx,pos_lastx
 362E  8B 16 002A R	     2	       mov dx,pos_lasty
 3632  03 CE		     2	       add cx,si
 3634  03 D7		     2	       add dx,di
 3636  CD 10		     2	       int 10h
 3638  8B 0E 0028 R	     2	       mov cx,pos_lastx
 363C  8B 16 002A R	     2	       mov dx,pos_lasty
 3640  2B CE		     2	       sub cx,si
 3642  03 D7		     2	       add dx,di
 3644  CD 10		     2	       int 10h
 3646  8B 0E 0028 R	     2	       mov cx,pos_lastx
 364A  8B 16 002A R	     2	       mov dx,pos_lasty
 364E  03 CE		     2	       add cx,si
 3650  2B D7		     2	       sub dx,di
 3652  CD 10		     2	       int 10h
 3654  8B 0E 0028 R	     2	       mov cx,pos_lastx
 3658  8B 16 002A R	     2	       mov dx,pos_lasty
 365C  2B CE		     2	       sub cx,si
 365E  2B D7		     2	       sub dx,di
 3660  CD 10		     2	       int 10h
 3662  8B 0E 0028 R	     2	       mov cx,pos_lastx
 3666  8B 16 002A R	     2	       mov dx,pos_lasty
 366A  03 CF		     2	       add cx,di
 366C  03 D6		     2	       add dx,si
 366E  CD 10		     2	       int 10h
 3670  8B 0E 0028 R	     2	       mov cx,pos_lastx
 3674  8B 16 002A R	     2	       mov dx,pos_lasty
 3678  2B CF		     2	       sub cx,di
 367A  03 D6		     2	       add dx,si
 367C  CD 10		     2	       int 10h
 367E  8B 0E 0028 R	     2	       mov cx,pos_lastx
 3682  8B 16 002A R	     2	       mov dx,pos_lasty
 3686  03 CF		     2	       add cx,di
 3688  2B D6		     2	       sub dx,si
 368A  CD 10		     2	       int 10h
 368C  8B 0E 0028 R	     2	       mov cx,pos_lastx
 3690  8B 16 002A R	     2	       mov dx,pos_lasty
 3694  2B CF		     2	       sub cx,di
 3696  2B D6		     2	       sub dx,si
 3698  CD 10		     2	       int 10h
 369A			     2	??0198: 
 369A  8D 1E 3603 R	     2		   lea bx,??0193
 369E  FF E3		     2	       jmp bx
 36A0			     2	??0199:
 36A0  B4 0C		     2	       mov ah,0ch
 36A2  A0 0131 R	     2	       mov al,colo
 36A5  B7 00		     2	       mov bh,0
 36A7  8B 0E 001D R	     2	       mov cx,pos_lastx-11
 36AB  8B 16 002A R	     2	       mov dx,pos_lasty
 36AF  CD 10		     2	       int 10h
 36B1  8B 0E 0033 R	     2	       mov cx,pos_lastx+11
 36B5  8B 16 002A R	     2	       mov dx,pos_lasty
 36B9  CD 10		     2	       int 10h
 36BB  8B 0E 0028 R	     2	       mov cx,pos_lastx
 36BF  8B 16 001F R	     2	       mov dx,pos_lasty-11
 36C3  CD 10		     2	       int 10h
 36C5  8B 0E 0028 R	     2	       mov cx,pos_lastx
 36C9  8B 16 0035 R	     2	       mov dx,pos_lasty+11
 36CD  CD 10		     2	       int 10h
 36CF  5D		     2	       pop bp
 36D0  5F		     2	       pop di
 36D1  5E		     2	       pop si
 36D2  5A		     2	       pop dx
 36D3  59		     2	       pop cx
 36D4  5B		     2	       pop bx
 36D5  58		     2	       pop ax
 36D6  50		     2	       push ax
 36D7  53		     2	       push bx
 36D8  51		     2	       push cx
 36D9  52		     2	       push dx
 36DA  56		     2	       push si
 36DB  57		     2	       push di
 36DC  55		     2	       push bp
 36DD  B4 0C		     2	       mov ah,0ch
 36DF  A0 0131 R	     2	       mov al,colo
 36E2  B7 00		     2	       mov bh,0
 36E4  8B 0E 0028 R	     2	       mov cx,pos_lastx
 36E8  8B 16 002A R	     2	       mov dx,pos_lasty
 36EC  BE 0000		     2	       mov si,0         ;X
 36EF  BF 000A		     2	       mov di,10    ;Y
 36F2  BD FFF7		     2	       mov bp,1-10
 36F5			     2	??019A: 
 36F5  3B F7		     2		   cmp si,di
 36F7  7C 06		     2	       jl ??019B
 36F9  8D 1E 3792 R	     2	       lea bx,??01A0
 36FD  FF E3		     2	       jmp bx
 36FF			     2	??019B:
 36FF  46		     2		   inc si
 3700			     2	??019C: 
 3700  83 FD 00		     2	       cmp bp,0
 3703  7D 09		     2	       jge ??019D
 3705  03 EE		     2	       add bp,si
 3707  03 EE		     2	       add bp,si
 3709  83 C5 01		     2	       add bp,1
 370C  EB 0C		     2	       jmp ??019E
 370E			     2	??019D: 
 370E  4F		     2		   dec di
 370F  03 EE		     2	       add bp,si
 3711  03 EE		     2	       add bp,si
 3713  2B EF		     2	       sub bp,di
 3715  2B EF		     2	       sub bp,di
 3717  83 C5 01		     2	       add bp,1
 371A			     2	??019E: 
 371A  B7 00		     2		   mov bh,0
 371C  8B 0E 0028 R	     2	       mov cx,pos_lastx
 3720  8B 16 002A R	     2	       mov dx,pos_lasty
 3724  03 CE		     2	       add cx,si
 3726  03 D7		     2	       add dx,di
 3728  CD 10		     2	       int 10h
 372A  8B 0E 0028 R	     2	       mov cx,pos_lastx
 372E  8B 16 002A R	     2	       mov dx,pos_lasty
 3732  2B CE		     2	       sub cx,si
 3734  03 D7		     2	       add dx,di
 3736  CD 10		     2	       int 10h
 3738  8B 0E 0028 R	     2	       mov cx,pos_lastx
 373C  8B 16 002A R	     2	       mov dx,pos_lasty
 3740  03 CE		     2	       add cx,si
 3742  2B D7		     2	       sub dx,di
 3744  CD 10		     2	       int 10h
 3746  8B 0E 0028 R	     2	       mov cx,pos_lastx
 374A  8B 16 002A R	     2	       mov dx,pos_lasty
 374E  2B CE		     2	       sub cx,si
 3750  2B D7		     2	       sub dx,di
 3752  CD 10		     2	       int 10h
 3754  8B 0E 0028 R	     2	       mov cx,pos_lastx
 3758  8B 16 002A R	     2	       mov dx,pos_lasty
 375C  03 CF		     2	       add cx,di
 375E  03 D6		     2	       add dx,si
 3760  CD 10		     2	       int 10h
 3762  8B 0E 0028 R	     2	       mov cx,pos_lastx
 3766  8B 16 002A R	     2	       mov dx,pos_lasty
 376A  2B CF		     2	       sub cx,di
 376C  03 D6		     2	       add dx,si
 376E  CD 10		     2	       int 10h
 3770  8B 0E 0028 R	     2	       mov cx,pos_lastx
 3774  8B 16 002A R	     2	       mov dx,pos_lasty
 3778  03 CF		     2	       add cx,di
 377A  2B D6		     2	       sub dx,si
 377C  CD 10		     2	       int 10h
 377E  8B 0E 0028 R	     2	       mov cx,pos_lastx
 3782  8B 16 002A R	     2	       mov dx,pos_lasty
 3786  2B CF		     2	       sub cx,di
 3788  2B D6		     2	       sub dx,si
 378A  CD 10		     2	       int 10h
 378C			     2	??019F: 
 378C  8D 1E 36F5 R	     2		   lea bx,??019A
 3790  FF E3		     2	       jmp bx
 3792			     2	??01A0:
 3792  B4 0C		     2	       mov ah,0ch
 3794  A0 0131 R	     2	       mov al,colo
 3797  B7 00		     2	       mov bh,0
 3799  8B 0E 001E R	     2	       mov cx,pos_lastx-10
 379D  8B 16 002A R	     2	       mov dx,pos_lasty
 37A1  CD 10		     2	       int 10h
 37A3  8B 0E 0032 R	     2	       mov cx,pos_lastx+10
 37A7  8B 16 002A R	     2	       mov dx,pos_lasty
 37AB  CD 10		     2	       int 10h
 37AD  8B 0E 0028 R	     2	       mov cx,pos_lastx
 37B1  8B 16 0020 R	     2	       mov dx,pos_lasty-10
 37B5  CD 10		     2	       int 10h
 37B7  8B 0E 0028 R	     2	       mov cx,pos_lastx
 37BB  8B 16 0034 R	     2	       mov dx,pos_lasty+10
 37BF  CD 10		     2	       int 10h
 37C1  5D		     2	       pop bp
 37C2  5F		     2	       pop di
 37C3  5E		     2	       pop si
 37C4  5A		     2	       pop dx
 37C5  59		     2	       pop cx
 37C6  5B		     2	       pop bx
 37C7  58		     2	       pop ax
 37C8  50		     2	       push ax
 37C9  53		     2	       push bx
 37CA  51		     2	       push cx
 37CB  52		     2	       push dx
 37CC  56		     2	       push si
 37CD  57		     2	       push di
 37CE  55		     2	       push bp
 37CF  B4 0C		     2	       mov ah,0ch
 37D1  A0 0131 R	     2	       mov al,colo
 37D4  B7 00		     2	       mov bh,0
 37D6  8B 0E 0028 R	     2	       mov cx,pos_lastx
 37DA  8B 16 002A R	     2	       mov dx,pos_lasty
 37DE  BE 0000		     2	       mov si,0         ;X
 37E1  BF 0009		     2	       mov di,09    ;Y
 37E4  BD FFF8		     2	       mov bp,1-09
 37E7			     2	??01A1: 
 37E7  3B F7		     2		   cmp si,di
 37E9  7C 06		     2	       jl ??01A2
 37EB  8D 1E 3884 R	     2	       lea bx,??01A7
 37EF  FF E3		     2	       jmp bx
 37F1			     2	??01A2:
 37F1  46		     2		   inc si
 37F2			     2	??01A3: 
 37F2  83 FD 00		     2	       cmp bp,0
 37F5  7D 09		     2	       jge ??01A4
 37F7  03 EE		     2	       add bp,si
 37F9  03 EE		     2	       add bp,si
 37FB  83 C5 01		     2	       add bp,1
 37FE  EB 0C		     2	       jmp ??01A5
 3800			     2	??01A4: 
 3800  4F		     2		   dec di
 3801  03 EE		     2	       add bp,si
 3803  03 EE		     2	       add bp,si
 3805  2B EF		     2	       sub bp,di
 3807  2B EF		     2	       sub bp,di
 3809  83 C5 01		     2	       add bp,1
 380C			     2	??01A5: 
 380C  B7 00		     2		   mov bh,0
 380E  8B 0E 0028 R	     2	       mov cx,pos_lastx
 3812  8B 16 002A R	     2	       mov dx,pos_lasty
 3816  03 CE		     2	       add cx,si
 3818  03 D7		     2	       add dx,di
 381A  CD 10		     2	       int 10h
 381C  8B 0E 0028 R	     2	       mov cx,pos_lastx
 3820  8B 16 002A R	     2	       mov dx,pos_lasty
 3824  2B CE		     2	       sub cx,si
 3826  03 D7		     2	       add dx,di
 3828  CD 10		     2	       int 10h
 382A  8B 0E 0028 R	     2	       mov cx,pos_lastx
 382E  8B 16 002A R	     2	       mov dx,pos_lasty
 3832  03 CE		     2	       add cx,si
 3834  2B D7		     2	       sub dx,di
 3836  CD 10		     2	       int 10h
 3838  8B 0E 0028 R	     2	       mov cx,pos_lastx
 383C  8B 16 002A R	     2	       mov dx,pos_lasty
 3840  2B CE		     2	       sub cx,si
 3842  2B D7		     2	       sub dx,di
 3844  CD 10		     2	       int 10h
 3846  8B 0E 0028 R	     2	       mov cx,pos_lastx
 384A  8B 16 002A R	     2	       mov dx,pos_lasty
 384E  03 CF		     2	       add cx,di
 3850  03 D6		     2	       add dx,si
 3852  CD 10		     2	       int 10h
 3854  8B 0E 0028 R	     2	       mov cx,pos_lastx
 3858  8B 16 002A R	     2	       mov dx,pos_lasty
 385C  2B CF		     2	       sub cx,di
 385E  03 D6		     2	       add dx,si
 3860  CD 10		     2	       int 10h
 3862  8B 0E 0028 R	     2	       mov cx,pos_lastx
 3866  8B 16 002A R	     2	       mov dx,pos_lasty
 386A  03 CF		     2	       add cx,di
 386C  2B D6		     2	       sub dx,si
 386E  CD 10		     2	       int 10h
 3870  8B 0E 0028 R	     2	       mov cx,pos_lastx
 3874  8B 16 002A R	     2	       mov dx,pos_lasty
 3878  2B CF		     2	       sub cx,di
 387A  2B D6		     2	       sub dx,si
 387C  CD 10		     2	       int 10h
 387E			     2	??01A6: 
 387E  8D 1E 37E7 R	     2		   lea bx,??01A1
 3882  FF E3		     2	       jmp bx
 3884			     2	??01A7:
 3884  B4 0C		     2	       mov ah,0ch
 3886  A0 0131 R	     2	       mov al,colo
 3889  B7 00		     2	       mov bh,0
 388B  8B 0E 001F R	     2	       mov cx,pos_lastx-09
 388F  8B 16 002A R	     2	       mov dx,pos_lasty
 3893  CD 10		     2	       int 10h
 3895  8B 0E 0031 R	     2	       mov cx,pos_lastx+09
 3899  8B 16 002A R	     2	       mov dx,pos_lasty
 389D  CD 10		     2	       int 10h
 389F  8B 0E 0028 R	     2	       mov cx,pos_lastx
 38A3  8B 16 0021 R	     2	       mov dx,pos_lasty-09
 38A7  CD 10		     2	       int 10h
 38A9  8B 0E 0028 R	     2	       mov cx,pos_lastx
 38AD  8B 16 0033 R	     2	       mov dx,pos_lasty+09
 38B1  CD 10		     2	       int 10h
 38B3  5D		     2	       pop bp
 38B4  5F		     2	       pop di
 38B5  5E		     2	       pop si
 38B6  5A		     2	       pop dx
 38B7  59		     2	       pop cx
 38B8  5B		     2	       pop bx
 38B9  58		     2	       pop ax
 38BA  50		     2	       push ax
 38BB  53		     2	       push bx
 38BC  51		     2	       push cx
 38BD  52		     2	       push dx
 38BE  56		     2	       push si
 38BF  57		     2	       push di
 38C0  55		     2	       push bp
 38C1  B4 0C		     2	       mov ah,0ch
 38C3  A0 0131 R	     2	       mov al,colo
 38C6  B7 00		     2	       mov bh,0
 38C8  8B 0E 0028 R	     2	       mov cx,pos_lastx
 38CC  8B 16 002A R	     2	       mov dx,pos_lasty
 38D0  BE 0000		     2	       mov si,0         ;X
 38D3  BF 0008		     2	       mov di,08    ;Y
 38D6  BD FFF9		     2	       mov bp,1-08
 38D9			     2	??01A8: 
 38D9  3B F7		     2		   cmp si,di
 38DB  7C 06		     2	       jl ??01A9
 38DD  8D 1E 3976 R	     2	       lea bx,??01AE
 38E1  FF E3		     2	       jmp bx
 38E3			     2	??01A9:
 38E3  46		     2		   inc si
 38E4			     2	??01AA: 
 38E4  83 FD 00		     2	       cmp bp,0
 38E7  7D 09		     2	       jge ??01AB
 38E9  03 EE		     2	       add bp,si
 38EB  03 EE		     2	       add bp,si
 38ED  83 C5 01		     2	       add bp,1
 38F0  EB 0C		     2	       jmp ??01AC
 38F2			     2	??01AB: 
 38F2  4F		     2		   dec di
 38F3  03 EE		     2	       add bp,si
 38F5  03 EE		     2	       add bp,si
 38F7  2B EF		     2	       sub bp,di
 38F9  2B EF		     2	       sub bp,di
 38FB  83 C5 01		     2	       add bp,1
 38FE			     2	??01AC: 
 38FE  B7 00		     2		   mov bh,0
 3900  8B 0E 0028 R	     2	       mov cx,pos_lastx
 3904  8B 16 002A R	     2	       mov dx,pos_lasty
 3908  03 CE		     2	       add cx,si
 390A  03 D7		     2	       add dx,di
 390C  CD 10		     2	       int 10h
 390E  8B 0E 0028 R	     2	       mov cx,pos_lastx
 3912  8B 16 002A R	     2	       mov dx,pos_lasty
 3916  2B CE		     2	       sub cx,si
 3918  03 D7		     2	       add dx,di
 391A  CD 10		     2	       int 10h
 391C  8B 0E 0028 R	     2	       mov cx,pos_lastx
 3920  8B 16 002A R	     2	       mov dx,pos_lasty
 3924  03 CE		     2	       add cx,si
 3926  2B D7		     2	       sub dx,di
 3928  CD 10		     2	       int 10h
 392A  8B 0E 0028 R	     2	       mov cx,pos_lastx
 392E  8B 16 002A R	     2	       mov dx,pos_lasty
 3932  2B CE		     2	       sub cx,si
 3934  2B D7		     2	       sub dx,di
 3936  CD 10		     2	       int 10h
 3938  8B 0E 0028 R	     2	       mov cx,pos_lastx
 393C  8B 16 002A R	     2	       mov dx,pos_lasty
 3940  03 CF		     2	       add cx,di
 3942  03 D6		     2	       add dx,si
 3944  CD 10		     2	       int 10h
 3946  8B 0E 0028 R	     2	       mov cx,pos_lastx
 394A  8B 16 002A R	     2	       mov dx,pos_lasty
 394E  2B CF		     2	       sub cx,di
 3950  03 D6		     2	       add dx,si
 3952  CD 10		     2	       int 10h
 3954  8B 0E 0028 R	     2	       mov cx,pos_lastx
 3958  8B 16 002A R	     2	       mov dx,pos_lasty
 395C  03 CF		     2	       add cx,di
 395E  2B D6		     2	       sub dx,si
 3960  CD 10		     2	       int 10h
 3962  8B 0E 0028 R	     2	       mov cx,pos_lastx
 3966  8B 16 002A R	     2	       mov dx,pos_lasty
 396A  2B CF		     2	       sub cx,di
 396C  2B D6		     2	       sub dx,si
 396E  CD 10		     2	       int 10h
 3970			     2	??01AD: 
 3970  8D 1E 38D9 R	     2		   lea bx,??01A8
 3974  FF E3		     2	       jmp bx
 3976			     2	??01AE:
 3976  B4 0C		     2	       mov ah,0ch
 3978  A0 0131 R	     2	       mov al,colo
 397B  B7 00		     2	       mov bh,0
 397D  8B 0E 0020 R	     2	       mov cx,pos_lastx-08
 3981  8B 16 002A R	     2	       mov dx,pos_lasty
 3985  CD 10		     2	       int 10h
 3987  8B 0E 0030 R	     2	       mov cx,pos_lastx+08
 398B  8B 16 002A R	     2	       mov dx,pos_lasty
 398F  CD 10		     2	       int 10h
 3991  8B 0E 0028 R	     2	       mov cx,pos_lastx
 3995  8B 16 0022 R	     2	       mov dx,pos_lasty-08
 3999  CD 10		     2	       int 10h
 399B  8B 0E 0028 R	     2	       mov cx,pos_lastx
 399F  8B 16 0032 R	     2	       mov dx,pos_lasty+08
 39A3  CD 10		     2	       int 10h
 39A5  5D		     2	       pop bp
 39A6  5F		     2	       pop di
 39A7  5E		     2	       pop si
 39A8  5A		     2	       pop dx
 39A9  59		     2	       pop cx
 39AA  5B		     2	       pop bx
 39AB  58		     2	       pop ax
 39AC  50		     2	       push ax
 39AD  53		     2	       push bx
 39AE  51		     2	       push cx
 39AF  52		     2	       push dx
 39B0  56		     2	       push si
 39B1  57		     2	       push di
 39B2  55		     2	       push bp
 39B3  B4 0C		     2	       mov ah,0ch
 39B5  A0 0131 R	     2	       mov al,colo
 39B8  B7 00		     2	       mov bh,0
 39BA  8B 0E 0028 R	     2	       mov cx,pos_lastx
 39BE  8B 16 002A R	     2	       mov dx,pos_lasty
 39C2  BE 0000		     2	       mov si,0         ;X
 39C5  BF 0007		     2	       mov di,07    ;Y
 39C8  BD FFFA		     2	       mov bp,1-07
 39CB			     2	??01AF: 
 39CB  3B F7		     2		   cmp si,di
 39CD  7C 06		     2	       jl ??01B0
 39CF  8D 1E 3A68 R	     2	       lea bx,??01B5
 39D3  FF E3		     2	       jmp bx
 39D5			     2	??01B0:
 39D5  46		     2		   inc si
 39D6			     2	??01B1: 
 39D6  83 FD 00		     2	       cmp bp,0
 39D9  7D 09		     2	       jge ??01B2
 39DB  03 EE		     2	       add bp,si
 39DD  03 EE		     2	       add bp,si
 39DF  83 C5 01		     2	       add bp,1
 39E2  EB 0C		     2	       jmp ??01B3
 39E4			     2	??01B2: 
 39E4  4F		     2		   dec di
 39E5  03 EE		     2	       add bp,si
 39E7  03 EE		     2	       add bp,si
 39E9  2B EF		     2	       sub bp,di
 39EB  2B EF		     2	       sub bp,di
 39ED  83 C5 01		     2	       add bp,1
 39F0			     2	??01B3: 
 39F0  B7 00		     2		   mov bh,0
 39F2  8B 0E 0028 R	     2	       mov cx,pos_lastx
 39F6  8B 16 002A R	     2	       mov dx,pos_lasty
 39FA  03 CE		     2	       add cx,si
 39FC  03 D7		     2	       add dx,di
 39FE  CD 10		     2	       int 10h
 3A00  8B 0E 0028 R	     2	       mov cx,pos_lastx
 3A04  8B 16 002A R	     2	       mov dx,pos_lasty
 3A08  2B CE		     2	       sub cx,si
 3A0A  03 D7		     2	       add dx,di
 3A0C  CD 10		     2	       int 10h
 3A0E  8B 0E 0028 R	     2	       mov cx,pos_lastx
 3A12  8B 16 002A R	     2	       mov dx,pos_lasty
 3A16  03 CE		     2	       add cx,si
 3A18  2B D7		     2	       sub dx,di
 3A1A  CD 10		     2	       int 10h
 3A1C  8B 0E 0028 R	     2	       mov cx,pos_lastx
 3A20  8B 16 002A R	     2	       mov dx,pos_lasty
 3A24  2B CE		     2	       sub cx,si
 3A26  2B D7		     2	       sub dx,di
 3A28  CD 10		     2	       int 10h
 3A2A  8B 0E 0028 R	     2	       mov cx,pos_lastx
 3A2E  8B 16 002A R	     2	       mov dx,pos_lasty
 3A32  03 CF		     2	       add cx,di
 3A34  03 D6		     2	       add dx,si
 3A36  CD 10		     2	       int 10h
 3A38  8B 0E 0028 R	     2	       mov cx,pos_lastx
 3A3C  8B 16 002A R	     2	       mov dx,pos_lasty
 3A40  2B CF		     2	       sub cx,di
 3A42  03 D6		     2	       add dx,si
 3A44  CD 10		     2	       int 10h
 3A46  8B 0E 0028 R	     2	       mov cx,pos_lastx
 3A4A  8B 16 002A R	     2	       mov dx,pos_lasty
 3A4E  03 CF		     2	       add cx,di
 3A50  2B D6		     2	       sub dx,si
 3A52  CD 10		     2	       int 10h
 3A54  8B 0E 0028 R	     2	       mov cx,pos_lastx
 3A58  8B 16 002A R	     2	       mov dx,pos_lasty
 3A5C  2B CF		     2	       sub cx,di
 3A5E  2B D6		     2	       sub dx,si
 3A60  CD 10		     2	       int 10h
 3A62			     2	??01B4: 
 3A62  8D 1E 39CB R	     2		   lea bx,??01AF
 3A66  FF E3		     2	       jmp bx
 3A68			     2	??01B5:
 3A68  B4 0C		     2	       mov ah,0ch
 3A6A  A0 0131 R	     2	       mov al,colo
 3A6D  B7 00		     2	       mov bh,0
 3A6F  8B 0E 0021 R	     2	       mov cx,pos_lastx-07
 3A73  8B 16 002A R	     2	       mov dx,pos_lasty
 3A77  CD 10		     2	       int 10h
 3A79  8B 0E 002F R	     2	       mov cx,pos_lastx+07
 3A7D  8B 16 002A R	     2	       mov dx,pos_lasty
 3A81  CD 10		     2	       int 10h
 3A83  8B 0E 0028 R	     2	       mov cx,pos_lastx
 3A87  8B 16 0023 R	     2	       mov dx,pos_lasty-07
 3A8B  CD 10		     2	       int 10h
 3A8D  8B 0E 0028 R	     2	       mov cx,pos_lastx
 3A91  8B 16 0031 R	     2	       mov dx,pos_lasty+07
 3A95  CD 10		     2	       int 10h
 3A97  5D		     2	       pop bp
 3A98  5F		     2	       pop di
 3A99  5E		     2	       pop si
 3A9A  5A		     2	       pop dx
 3A9B  59		     2	       pop cx
 3A9C  5B		     2	       pop bx
 3A9D  58		     2	       pop ax
 3A9E  50		     2	       push ax
 3A9F  53		     2	       push bx
 3AA0  51		     2	       push cx
 3AA1  52		     2	       push dx
 3AA2  56		     2	       push si
 3AA3  57		     2	       push di
 3AA4  55		     2	       push bp
 3AA5  B4 0C		     2	       mov ah,0ch
 3AA7  A0 0131 R	     2	       mov al,colo
 3AAA  B7 00		     2	       mov bh,0
 3AAC  8B 0E 0028 R	     2	       mov cx,pos_lastx
 3AB0  8B 16 002A R	     2	       mov dx,pos_lasty
 3AB4  BE 0000		     2	       mov si,0         ;X
 3AB7  BF 0006		     2	       mov di,06    ;Y
 3ABA  BD FFFB		     2	       mov bp,1-06
 3ABD			     2	??01B6: 
 3ABD  3B F7		     2		   cmp si,di
 3ABF  7C 06		     2	       jl ??01B7
 3AC1  8D 1E 3B5A R	     2	       lea bx,??01BC
 3AC5  FF E3		     2	       jmp bx
 3AC7			     2	??01B7:
 3AC7  46		     2		   inc si
 3AC8			     2	??01B8: 
 3AC8  83 FD 00		     2	       cmp bp,0
 3ACB  7D 09		     2	       jge ??01B9
 3ACD  03 EE		     2	       add bp,si
 3ACF  03 EE		     2	       add bp,si
 3AD1  83 C5 01		     2	       add bp,1
 3AD4  EB 0C		     2	       jmp ??01BA
 3AD6			     2	??01B9: 
 3AD6  4F		     2		   dec di
 3AD7  03 EE		     2	       add bp,si
 3AD9  03 EE		     2	       add bp,si
 3ADB  2B EF		     2	       sub bp,di
 3ADD  2B EF		     2	       sub bp,di
 3ADF  83 C5 01		     2	       add bp,1
 3AE2			     2	??01BA: 
 3AE2  B7 00		     2		   mov bh,0
 3AE4  8B 0E 0028 R	     2	       mov cx,pos_lastx
 3AE8  8B 16 002A R	     2	       mov dx,pos_lasty
 3AEC  03 CE		     2	       add cx,si
 3AEE  03 D7		     2	       add dx,di
 3AF0  CD 10		     2	       int 10h
 3AF2  8B 0E 0028 R	     2	       mov cx,pos_lastx
 3AF6  8B 16 002A R	     2	       mov dx,pos_lasty
 3AFA  2B CE		     2	       sub cx,si
 3AFC  03 D7		     2	       add dx,di
 3AFE  CD 10		     2	       int 10h
 3B00  8B 0E 0028 R	     2	       mov cx,pos_lastx
 3B04  8B 16 002A R	     2	       mov dx,pos_lasty
 3B08  03 CE		     2	       add cx,si
 3B0A  2B D7		     2	       sub dx,di
 3B0C  CD 10		     2	       int 10h
 3B0E  8B 0E 0028 R	     2	       mov cx,pos_lastx
 3B12  8B 16 002A R	     2	       mov dx,pos_lasty
 3B16  2B CE		     2	       sub cx,si
 3B18  2B D7		     2	       sub dx,di
 3B1A  CD 10		     2	       int 10h
 3B1C  8B 0E 0028 R	     2	       mov cx,pos_lastx
 3B20  8B 16 002A R	     2	       mov dx,pos_lasty
 3B24  03 CF		     2	       add cx,di
 3B26  03 D6		     2	       add dx,si
 3B28  CD 10		     2	       int 10h
 3B2A  8B 0E 0028 R	     2	       mov cx,pos_lastx
 3B2E  8B 16 002A R	     2	       mov dx,pos_lasty
 3B32  2B CF		     2	       sub cx,di
 3B34  03 D6		     2	       add dx,si
 3B36  CD 10		     2	       int 10h
 3B38  8B 0E 0028 R	     2	       mov cx,pos_lastx
 3B3C  8B 16 002A R	     2	       mov dx,pos_lasty
 3B40  03 CF		     2	       add cx,di
 3B42  2B D6		     2	       sub dx,si
 3B44  CD 10		     2	       int 10h
 3B46  8B 0E 0028 R	     2	       mov cx,pos_lastx
 3B4A  8B 16 002A R	     2	       mov dx,pos_lasty
 3B4E  2B CF		     2	       sub cx,di
 3B50  2B D6		     2	       sub dx,si
 3B52  CD 10		     2	       int 10h
 3B54			     2	??01BB: 
 3B54  8D 1E 3ABD R	     2		   lea bx,??01B6
 3B58  FF E3		     2	       jmp bx
 3B5A			     2	??01BC:
 3B5A  B4 0C		     2	       mov ah,0ch
 3B5C  A0 0131 R	     2	       mov al,colo
 3B5F  B7 00		     2	       mov bh,0
 3B61  8B 0E 0022 R	     2	       mov cx,pos_lastx-06
 3B65  8B 16 002A R	     2	       mov dx,pos_lasty
 3B69  CD 10		     2	       int 10h
 3B6B  8B 0E 002E R	     2	       mov cx,pos_lastx+06
 3B6F  8B 16 002A R	     2	       mov dx,pos_lasty
 3B73  CD 10		     2	       int 10h
 3B75  8B 0E 0028 R	     2	       mov cx,pos_lastx
 3B79  8B 16 0024 R	     2	       mov dx,pos_lasty-06
 3B7D  CD 10		     2	       int 10h
 3B7F  8B 0E 0028 R	     2	       mov cx,pos_lastx
 3B83  8B 16 0030 R	     2	       mov dx,pos_lasty+06
 3B87  CD 10		     2	       int 10h
 3B89  5D		     2	       pop bp
 3B8A  5F		     2	       pop di
 3B8B  5E		     2	       pop si
 3B8C  5A		     2	       pop dx
 3B8D  59		     2	       pop cx
 3B8E  5B		     2	       pop bx
 3B8F  58		     2	       pop ax
 3B90  50		     2	       push ax
 3B91  53		     2	       push bx
 3B92  51		     2	       push cx
 3B93  52		     2	       push dx
 3B94  56		     2	       push si
 3B95  57		     2	       push di
 3B96  55		     2	       push bp
 3B97  B4 0C		     2	       mov ah,0ch
 3B99  A0 0131 R	     2	       mov al,colo
 3B9C  B7 00		     2	       mov bh,0
 3B9E  8B 0E 0028 R	     2	       mov cx,pos_lastx
 3BA2  8B 16 002A R	     2	       mov dx,pos_lasty
 3BA6  BE 0000		     2	       mov si,0         ;X
 3BA9  BF 0005		     2	       mov di,05    ;Y
 3BAC  BD FFFC		     2	       mov bp,1-05
 3BAF			     2	??01BD: 
 3BAF  3B F7		     2		   cmp si,di
 3BB1  7C 06		     2	       jl ??01BE
 3BB3  8D 1E 3C4C R	     2	       lea bx,??01C3
 3BB7  FF E3		     2	       jmp bx
 3BB9			     2	??01BE:
 3BB9  46		     2		   inc si
 3BBA			     2	??01BF: 
 3BBA  83 FD 00		     2	       cmp bp,0
 3BBD  7D 09		     2	       jge ??01C0
 3BBF  03 EE		     2	       add bp,si
 3BC1  03 EE		     2	       add bp,si
 3BC3  83 C5 01		     2	       add bp,1
 3BC6  EB 0C		     2	       jmp ??01C1
 3BC8			     2	??01C0: 
 3BC8  4F		     2		   dec di
 3BC9  03 EE		     2	       add bp,si
 3BCB  03 EE		     2	       add bp,si
 3BCD  2B EF		     2	       sub bp,di
 3BCF  2B EF		     2	       sub bp,di
 3BD1  83 C5 01		     2	       add bp,1
 3BD4			     2	??01C1: 
 3BD4  B7 00		     2		   mov bh,0
 3BD6  8B 0E 0028 R	     2	       mov cx,pos_lastx
 3BDA  8B 16 002A R	     2	       mov dx,pos_lasty
 3BDE  03 CE		     2	       add cx,si
 3BE0  03 D7		     2	       add dx,di
 3BE2  CD 10		     2	       int 10h
 3BE4  8B 0E 0028 R	     2	       mov cx,pos_lastx
 3BE8  8B 16 002A R	     2	       mov dx,pos_lasty
 3BEC  2B CE		     2	       sub cx,si
 3BEE  03 D7		     2	       add dx,di
 3BF0  CD 10		     2	       int 10h
 3BF2  8B 0E 0028 R	     2	       mov cx,pos_lastx
 3BF6  8B 16 002A R	     2	       mov dx,pos_lasty
 3BFA  03 CE		     2	       add cx,si
 3BFC  2B D7		     2	       sub dx,di
 3BFE  CD 10		     2	       int 10h
 3C00  8B 0E 0028 R	     2	       mov cx,pos_lastx
 3C04  8B 16 002A R	     2	       mov dx,pos_lasty
 3C08  2B CE		     2	       sub cx,si
 3C0A  2B D7		     2	       sub dx,di
 3C0C  CD 10		     2	       int 10h
 3C0E  8B 0E 0028 R	     2	       mov cx,pos_lastx
 3C12  8B 16 002A R	     2	       mov dx,pos_lasty
 3C16  03 CF		     2	       add cx,di
 3C18  03 D6		     2	       add dx,si
 3C1A  CD 10		     2	       int 10h
 3C1C  8B 0E 0028 R	     2	       mov cx,pos_lastx
 3C20  8B 16 002A R	     2	       mov dx,pos_lasty
 3C24  2B CF		     2	       sub cx,di
 3C26  03 D6		     2	       add dx,si
 3C28  CD 10		     2	       int 10h
 3C2A  8B 0E 0028 R	     2	       mov cx,pos_lastx
 3C2E  8B 16 002A R	     2	       mov dx,pos_lasty
 3C32  03 CF		     2	       add cx,di
 3C34  2B D6		     2	       sub dx,si
 3C36  CD 10		     2	       int 10h
 3C38  8B 0E 0028 R	     2	       mov cx,pos_lastx
 3C3C  8B 16 002A R	     2	       mov dx,pos_lasty
 3C40  2B CF		     2	       sub cx,di
 3C42  2B D6		     2	       sub dx,si
 3C44  CD 10		     2	       int 10h
 3C46			     2	??01C2: 
 3C46  8D 1E 3BAF R	     2		   lea bx,??01BD
 3C4A  FF E3		     2	       jmp bx
 3C4C			     2	??01C3:
 3C4C  B4 0C		     2	       mov ah,0ch
 3C4E  A0 0131 R	     2	       mov al,colo
 3C51  B7 00		     2	       mov bh,0
 3C53  8B 0E 0023 R	     2	       mov cx,pos_lastx-05
 3C57  8B 16 002A R	     2	       mov dx,pos_lasty
 3C5B  CD 10		     2	       int 10h
 3C5D  8B 0E 002D R	     2	       mov cx,pos_lastx+05
 3C61  8B 16 002A R	     2	       mov dx,pos_lasty
 3C65  CD 10		     2	       int 10h
 3C67  8B 0E 0028 R	     2	       mov cx,pos_lastx
 3C6B  8B 16 0025 R	     2	       mov dx,pos_lasty-05
 3C6F  CD 10		     2	       int 10h
 3C71  8B 0E 0028 R	     2	       mov cx,pos_lastx
 3C75  8B 16 002F R	     2	       mov dx,pos_lasty+05
 3C79  CD 10		     2	       int 10h
 3C7B  5D		     2	       pop bp
 3C7C  5F		     2	       pop di
 3C7D  5E		     2	       pop si
 3C7E  5A		     2	       pop dx
 3C7F  59		     2	       pop cx
 3C80  5B		     2	       pop bx
 3C81  58		     2	       pop ax
 3C82  50		     2	       push ax
 3C83  53		     2	       push bx
 3C84  51		     2	       push cx
 3C85  52		     2	       push dx
 3C86  56		     2	       push si
 3C87  57		     2	       push di
 3C88  55		     2	       push bp
 3C89  B4 0C		     2	       mov ah,0ch
 3C8B  A0 0131 R	     2	       mov al,colo
 3C8E  B7 00		     2	       mov bh,0
 3C90  8B 0E 0028 R	     2	       mov cx,pos_lastx
 3C94  8B 16 002A R	     2	       mov dx,pos_lasty
 3C98  BE 0000		     2	       mov si,0         ;X
 3C9B  BF 0004		     2	       mov di,04    ;Y
 3C9E  BD FFFD		     2	       mov bp,1-04
 3CA1			     2	??01C4: 
 3CA1  3B F7		     2		   cmp si,di
 3CA3  7C 06		     2	       jl ??01C5
 3CA5  8D 1E 3D3E R	     2	       lea bx,??01CA
 3CA9  FF E3		     2	       jmp bx
 3CAB			     2	??01C5:
 3CAB  46		     2		   inc si
 3CAC			     2	??01C6: 
 3CAC  83 FD 00		     2	       cmp bp,0
 3CAF  7D 09		     2	       jge ??01C7
 3CB1  03 EE		     2	       add bp,si
 3CB3  03 EE		     2	       add bp,si
 3CB5  83 C5 01		     2	       add bp,1
 3CB8  EB 0C		     2	       jmp ??01C8
 3CBA			     2	??01C7: 
 3CBA  4F		     2		   dec di
 3CBB  03 EE		     2	       add bp,si
 3CBD  03 EE		     2	       add bp,si
 3CBF  2B EF		     2	       sub bp,di
 3CC1  2B EF		     2	       sub bp,di
 3CC3  83 C5 01		     2	       add bp,1
 3CC6			     2	??01C8: 
 3CC6  B7 00		     2		   mov bh,0
 3CC8  8B 0E 0028 R	     2	       mov cx,pos_lastx
 3CCC  8B 16 002A R	     2	       mov dx,pos_lasty
 3CD0  03 CE		     2	       add cx,si
 3CD2  03 D7		     2	       add dx,di
 3CD4  CD 10		     2	       int 10h
 3CD6  8B 0E 0028 R	     2	       mov cx,pos_lastx
 3CDA  8B 16 002A R	     2	       mov dx,pos_lasty
 3CDE  2B CE		     2	       sub cx,si
 3CE0  03 D7		     2	       add dx,di
 3CE2  CD 10		     2	       int 10h
 3CE4  8B 0E 0028 R	     2	       mov cx,pos_lastx
 3CE8  8B 16 002A R	     2	       mov dx,pos_lasty
 3CEC  03 CE		     2	       add cx,si
 3CEE  2B D7		     2	       sub dx,di
 3CF0  CD 10		     2	       int 10h
 3CF2  8B 0E 0028 R	     2	       mov cx,pos_lastx
 3CF6  8B 16 002A R	     2	       mov dx,pos_lasty
 3CFA  2B CE		     2	       sub cx,si
 3CFC  2B D7		     2	       sub dx,di
 3CFE  CD 10		     2	       int 10h
 3D00  8B 0E 0028 R	     2	       mov cx,pos_lastx
 3D04  8B 16 002A R	     2	       mov dx,pos_lasty
 3D08  03 CF		     2	       add cx,di
 3D0A  03 D6		     2	       add dx,si
 3D0C  CD 10		     2	       int 10h
 3D0E  8B 0E 0028 R	     2	       mov cx,pos_lastx
 3D12  8B 16 002A R	     2	       mov dx,pos_lasty
 3D16  2B CF		     2	       sub cx,di
 3D18  03 D6		     2	       add dx,si
 3D1A  CD 10		     2	       int 10h
 3D1C  8B 0E 0028 R	     2	       mov cx,pos_lastx
 3D20  8B 16 002A R	     2	       mov dx,pos_lasty
 3D24  03 CF		     2	       add cx,di
 3D26  2B D6		     2	       sub dx,si
 3D28  CD 10		     2	       int 10h
 3D2A  8B 0E 0028 R	     2	       mov cx,pos_lastx
 3D2E  8B 16 002A R	     2	       mov dx,pos_lasty
 3D32  2B CF		     2	       sub cx,di
 3D34  2B D6		     2	       sub dx,si
 3D36  CD 10		     2	       int 10h
 3D38			     2	??01C9: 
 3D38  8D 1E 3CA1 R	     2		   lea bx,??01C4
 3D3C  FF E3		     2	       jmp bx
 3D3E			     2	??01CA:
 3D3E  B4 0C		     2	       mov ah,0ch
 3D40  A0 0131 R	     2	       mov al,colo
 3D43  B7 00		     2	       mov bh,0
 3D45  8B 0E 0024 R	     2	       mov cx,pos_lastx-04
 3D49  8B 16 002A R	     2	       mov dx,pos_lasty
 3D4D  CD 10		     2	       int 10h
 3D4F  8B 0E 002C R	     2	       mov cx,pos_lastx+04
 3D53  8B 16 002A R	     2	       mov dx,pos_lasty
 3D57  CD 10		     2	       int 10h
 3D59  8B 0E 0028 R	     2	       mov cx,pos_lastx
 3D5D  8B 16 0026 R	     2	       mov dx,pos_lasty-04
 3D61  CD 10		     2	       int 10h
 3D63  8B 0E 0028 R	     2	       mov cx,pos_lastx
 3D67  8B 16 002E R	     2	       mov dx,pos_lasty+04
 3D6B  CD 10		     2	       int 10h
 3D6D  5D		     2	       pop bp
 3D6E  5F		     2	       pop di
 3D6F  5E		     2	       pop si
 3D70  5A		     2	       pop dx
 3D71  59		     2	       pop cx
 3D72  5B		     2	       pop bx
 3D73  58		     2	       pop ax
 3D74  50		     2	       push ax
 3D75  53		     2	       push bx
 3D76  51		     2	       push cx
 3D77  52		     2	       push dx
 3D78  56		     2	       push si
 3D79  57		     2	       push di
 3D7A  55		     2	       push bp
 3D7B  B4 0C		     2	       mov ah,0ch
 3D7D  A0 0131 R	     2	       mov al,colo
 3D80  B7 00		     2	       mov bh,0
 3D82  8B 0E 0028 R	     2	       mov cx,pos_lastx
 3D86  8B 16 002A R	     2	       mov dx,pos_lasty
 3D8A  BE 0000		     2	       mov si,0         ;X
 3D8D  BF 0003		     2	       mov di,03    ;Y
 3D90  BD FFFE		     2	       mov bp,1-03
 3D93			     2	??01CB: 
 3D93  3B F7		     2		   cmp si,di
 3D95  7C 06		     2	       jl ??01CC
 3D97  8D 1E 3E30 R	     2	       lea bx,??01D1
 3D9B  FF E3		     2	       jmp bx
 3D9D			     2	??01CC:
 3D9D  46		     2		   inc si
 3D9E			     2	??01CD: 
 3D9E  83 FD 00		     2	       cmp bp,0
 3DA1  7D 09		     2	       jge ??01CE
 3DA3  03 EE		     2	       add bp,si
 3DA5  03 EE		     2	       add bp,si
 3DA7  83 C5 01		     2	       add bp,1
 3DAA  EB 0C		     2	       jmp ??01CF
 3DAC			     2	??01CE: 
 3DAC  4F		     2		   dec di
 3DAD  03 EE		     2	       add bp,si
 3DAF  03 EE		     2	       add bp,si
 3DB1  2B EF		     2	       sub bp,di
 3DB3  2B EF		     2	       sub bp,di
 3DB5  83 C5 01		     2	       add bp,1
 3DB8			     2	??01CF: 
 3DB8  B7 00		     2		   mov bh,0
 3DBA  8B 0E 0028 R	     2	       mov cx,pos_lastx
 3DBE  8B 16 002A R	     2	       mov dx,pos_lasty
 3DC2  03 CE		     2	       add cx,si
 3DC4  03 D7		     2	       add dx,di
 3DC6  CD 10		     2	       int 10h
 3DC8  8B 0E 0028 R	     2	       mov cx,pos_lastx
 3DCC  8B 16 002A R	     2	       mov dx,pos_lasty
 3DD0  2B CE		     2	       sub cx,si
 3DD2  03 D7		     2	       add dx,di
 3DD4  CD 10		     2	       int 10h
 3DD6  8B 0E 0028 R	     2	       mov cx,pos_lastx
 3DDA  8B 16 002A R	     2	       mov dx,pos_lasty
 3DDE  03 CE		     2	       add cx,si
 3DE0  2B D7		     2	       sub dx,di
 3DE2  CD 10		     2	       int 10h
 3DE4  8B 0E 0028 R	     2	       mov cx,pos_lastx
 3DE8  8B 16 002A R	     2	       mov dx,pos_lasty
 3DEC  2B CE		     2	       sub cx,si
 3DEE  2B D7		     2	       sub dx,di
 3DF0  CD 10		     2	       int 10h
 3DF2  8B 0E 0028 R	     2	       mov cx,pos_lastx
 3DF6  8B 16 002A R	     2	       mov dx,pos_lasty
 3DFA  03 CF		     2	       add cx,di
 3DFC  03 D6		     2	       add dx,si
 3DFE  CD 10		     2	       int 10h
 3E00  8B 0E 0028 R	     2	       mov cx,pos_lastx
 3E04  8B 16 002A R	     2	       mov dx,pos_lasty
 3E08  2B CF		     2	       sub cx,di
 3E0A  03 D6		     2	       add dx,si
 3E0C  CD 10		     2	       int 10h
 3E0E  8B 0E 0028 R	     2	       mov cx,pos_lastx
 3E12  8B 16 002A R	     2	       mov dx,pos_lasty
 3E16  03 CF		     2	       add cx,di
 3E18  2B D6		     2	       sub dx,si
 3E1A  CD 10		     2	       int 10h
 3E1C  8B 0E 0028 R	     2	       mov cx,pos_lastx
 3E20  8B 16 002A R	     2	       mov dx,pos_lasty
 3E24  2B CF		     2	       sub cx,di
 3E26  2B D6		     2	       sub dx,si
 3E28  CD 10		     2	       int 10h
 3E2A			     2	??01D0: 
 3E2A  8D 1E 3D93 R	     2		   lea bx,??01CB
 3E2E  FF E3		     2	       jmp bx
 3E30			     2	??01D1:
 3E30  B4 0C		     2	       mov ah,0ch
 3E32  A0 0131 R	     2	       mov al,colo
 3E35  B7 00		     2	       mov bh,0
 3E37  8B 0E 0025 R	     2	       mov cx,pos_lastx-03
 3E3B  8B 16 002A R	     2	       mov dx,pos_lasty
 3E3F  CD 10		     2	       int 10h
 3E41  8B 0E 002B R	     2	       mov cx,pos_lastx+03
 3E45  8B 16 002A R	     2	       mov dx,pos_lasty
 3E49  CD 10		     2	       int 10h
 3E4B  8B 0E 0028 R	     2	       mov cx,pos_lastx
 3E4F  8B 16 0027 R	     2	       mov dx,pos_lasty-03
 3E53  CD 10		     2	       int 10h
 3E55  8B 0E 0028 R	     2	       mov cx,pos_lastx
 3E59  8B 16 002D R	     2	       mov dx,pos_lasty+03
 3E5D  CD 10		     2	       int 10h
 3E5F  5D		     2	       pop bp
 3E60  5F		     2	       pop di
 3E61  5E		     2	       pop si
 3E62  5A		     2	       pop dx
 3E63  59		     2	       pop cx
 3E64  5B		     2	       pop bx
 3E65  58		     2	       pop ax
 3E66  50		     2	       push ax
 3E67  53		     2	       push bx
 3E68  51		     2	       push cx
 3E69  52		     2	       push dx
 3E6A  56		     2	       push si
 3E6B  57		     2	       push di
 3E6C  55		     2	       push bp
 3E6D  B4 0C		     2	       mov ah,0ch
 3E6F  A0 0131 R	     2	       mov al,colo
 3E72  B7 00		     2	       mov bh,0
 3E74  8B 0E 0028 R	     2	       mov cx,pos_lastx
 3E78  8B 16 002A R	     2	       mov dx,pos_lasty
 3E7C  BE 0000		     2	       mov si,0         ;X
 3E7F  BF 0002		     2	       mov di,02    ;Y
 3E82  BD FFFF		     2	       mov bp,1-02
 3E85			     2	??01D2: 
 3E85  3B F7		     2		   cmp si,di
 3E87  7C 06		     2	       jl ??01D3
 3E89  8D 1E 3F22 R	     2	       lea bx,??01D8
 3E8D  FF E3		     2	       jmp bx
 3E8F			     2	??01D3:
 3E8F  46		     2		   inc si
 3E90			     2	??01D4: 
 3E90  83 FD 00		     2	       cmp bp,0
 3E93  7D 09		     2	       jge ??01D5
 3E95  03 EE		     2	       add bp,si
 3E97  03 EE		     2	       add bp,si
 3E99  83 C5 01		     2	       add bp,1
 3E9C  EB 0C		     2	       jmp ??01D6
 3E9E			     2	??01D5: 
 3E9E  4F		     2		   dec di
 3E9F  03 EE		     2	       add bp,si
 3EA1  03 EE		     2	       add bp,si
 3EA3  2B EF		     2	       sub bp,di
 3EA5  2B EF		     2	       sub bp,di
 3EA7  83 C5 01		     2	       add bp,1
 3EAA			     2	??01D6: 
 3EAA  B7 00		     2		   mov bh,0
 3EAC  8B 0E 0028 R	     2	       mov cx,pos_lastx
 3EB0  8B 16 002A R	     2	       mov dx,pos_lasty
 3EB4  03 CE		     2	       add cx,si
 3EB6  03 D7		     2	       add dx,di
 3EB8  CD 10		     2	       int 10h
 3EBA  8B 0E 0028 R	     2	       mov cx,pos_lastx
 3EBE  8B 16 002A R	     2	       mov dx,pos_lasty
 3EC2  2B CE		     2	       sub cx,si
 3EC4  03 D7		     2	       add dx,di
 3EC6  CD 10		     2	       int 10h
 3EC8  8B 0E 0028 R	     2	       mov cx,pos_lastx
 3ECC  8B 16 002A R	     2	       mov dx,pos_lasty
 3ED0  03 CE		     2	       add cx,si
 3ED2  2B D7		     2	       sub dx,di
 3ED4  CD 10		     2	       int 10h
 3ED6  8B 0E 0028 R	     2	       mov cx,pos_lastx
 3EDA  8B 16 002A R	     2	       mov dx,pos_lasty
 3EDE  2B CE		     2	       sub cx,si
 3EE0  2B D7		     2	       sub dx,di
 3EE2  CD 10		     2	       int 10h
 3EE4  8B 0E 0028 R	     2	       mov cx,pos_lastx
 3EE8  8B 16 002A R	     2	       mov dx,pos_lasty
 3EEC  03 CF		     2	       add cx,di
 3EEE  03 D6		     2	       add dx,si
 3EF0  CD 10		     2	       int 10h
 3EF2  8B 0E 0028 R	     2	       mov cx,pos_lastx
 3EF6  8B 16 002A R	     2	       mov dx,pos_lasty
 3EFA  2B CF		     2	       sub cx,di
 3EFC  03 D6		     2	       add dx,si
 3EFE  CD 10		     2	       int 10h
 3F00  8B 0E 0028 R	     2	       mov cx,pos_lastx
 3F04  8B 16 002A R	     2	       mov dx,pos_lasty
 3F08  03 CF		     2	       add cx,di
 3F0A  2B D6		     2	       sub dx,si
 3F0C  CD 10		     2	       int 10h
 3F0E  8B 0E 0028 R	     2	       mov cx,pos_lastx
 3F12  8B 16 002A R	     2	       mov dx,pos_lasty
 3F16  2B CF		     2	       sub cx,di
 3F18  2B D6		     2	       sub dx,si
 3F1A  CD 10		     2	       int 10h
 3F1C			     2	??01D7: 
 3F1C  8D 1E 3E85 R	     2		   lea bx,??01D2
 3F20  FF E3		     2	       jmp bx
 3F22			     2	??01D8:
 3F22  B4 0C		     2	       mov ah,0ch
 3F24  A0 0131 R	     2	       mov al,colo
 3F27  B7 00		     2	       mov bh,0
 3F29  8B 0E 0026 R	     2	       mov cx,pos_lastx-02
 3F2D  8B 16 002A R	     2	       mov dx,pos_lasty
 3F31  CD 10		     2	       int 10h
 3F33  8B 0E 002A R	     2	       mov cx,pos_lastx+02
 3F37  8B 16 002A R	     2	       mov dx,pos_lasty
 3F3B  CD 10		     2	       int 10h
 3F3D  8B 0E 0028 R	     2	       mov cx,pos_lastx
 3F41  8B 16 0028 R	     2	       mov dx,pos_lasty-02
 3F45  CD 10		     2	       int 10h
 3F47  8B 0E 0028 R	     2	       mov cx,pos_lastx
 3F4B  8B 16 002C R	     2	       mov dx,pos_lasty+02
 3F4F  CD 10		     2	       int 10h
 3F51  5D		     2	       pop bp
 3F52  5F		     2	       pop di
 3F53  5E		     2	       pop si
 3F54  5A		     2	       pop dx
 3F55  59		     2	       pop cx
 3F56  5B		     2	       pop bx
 3F57  58		     2	       pop ax
 3F58  50		     2	       push ax
 3F59  53		     2	       push bx
 3F5A  51		     2	       push cx
 3F5B  52		     2	       push dx
 3F5C  56		     2	       push si
 3F5D  57		     2	       push di
 3F5E  55		     2	       push bp
 3F5F  B4 0C		     2	       mov ah,0ch
 3F61  A0 0131 R	     2	       mov al,colo
 3F64  B7 00		     2	       mov bh,0
 3F66  8B 0E 0028 R	     2	       mov cx,pos_lastx
 3F6A  8B 16 002A R	     2	       mov dx,pos_lasty
 3F6E  BE 0000		     2	       mov si,0         ;X
 3F71  BF 0001		     2	       mov di,01    ;Y
 3F74  BD 0000		     2	       mov bp,1-01
 3F77			     2	??01D9: 
 3F77  3B F7		     2		   cmp si,di
 3F79  7C 06		     2	       jl ??01DA
 3F7B  8D 1E 4014 R	     2	       lea bx,??01DF
 3F7F  FF E3		     2	       jmp bx
 3F81			     2	??01DA:
 3F81  46		     2		   inc si
 3F82			     2	??01DB: 
 3F82  83 FD 00		     2	       cmp bp,0
 3F85  7D 09		     2	       jge ??01DC
 3F87  03 EE		     2	       add bp,si
 3F89  03 EE		     2	       add bp,si
 3F8B  83 C5 01		     2	       add bp,1
 3F8E  EB 0C		     2	       jmp ??01DD
 3F90			     2	??01DC: 
 3F90  4F		     2		   dec di
 3F91  03 EE		     2	       add bp,si
 3F93  03 EE		     2	       add bp,si
 3F95  2B EF		     2	       sub bp,di
 3F97  2B EF		     2	       sub bp,di
 3F99  83 C5 01		     2	       add bp,1
 3F9C			     2	??01DD: 
 3F9C  B7 00		     2		   mov bh,0
 3F9E  8B 0E 0028 R	     2	       mov cx,pos_lastx
 3FA2  8B 16 002A R	     2	       mov dx,pos_lasty
 3FA6  03 CE		     2	       add cx,si
 3FA8  03 D7		     2	       add dx,di
 3FAA  CD 10		     2	       int 10h
 3FAC  8B 0E 0028 R	     2	       mov cx,pos_lastx
 3FB0  8B 16 002A R	     2	       mov dx,pos_lasty
 3FB4  2B CE		     2	       sub cx,si
 3FB6  03 D7		     2	       add dx,di
 3FB8  CD 10		     2	       int 10h
 3FBA  8B 0E 0028 R	     2	       mov cx,pos_lastx
 3FBE  8B 16 002A R	     2	       mov dx,pos_lasty
 3FC2  03 CE		     2	       add cx,si
 3FC4  2B D7		     2	       sub dx,di
 3FC6  CD 10		     2	       int 10h
 3FC8  8B 0E 0028 R	     2	       mov cx,pos_lastx
 3FCC  8B 16 002A R	     2	       mov dx,pos_lasty
 3FD0  2B CE		     2	       sub cx,si
 3FD2  2B D7		     2	       sub dx,di
 3FD4  CD 10		     2	       int 10h
 3FD6  8B 0E 0028 R	     2	       mov cx,pos_lastx
 3FDA  8B 16 002A R	     2	       mov dx,pos_lasty
 3FDE  03 CF		     2	       add cx,di
 3FE0  03 D6		     2	       add dx,si
 3FE2  CD 10		     2	       int 10h
 3FE4  8B 0E 0028 R	     2	       mov cx,pos_lastx
 3FE8  8B 16 002A R	     2	       mov dx,pos_lasty
 3FEC  2B CF		     2	       sub cx,di
 3FEE  03 D6		     2	       add dx,si
 3FF0  CD 10		     2	       int 10h
 3FF2  8B 0E 0028 R	     2	       mov cx,pos_lastx
 3FF6  8B 16 002A R	     2	       mov dx,pos_lasty
 3FFA  03 CF		     2	       add cx,di
 3FFC  2B D6		     2	       sub dx,si
 3FFE  CD 10		     2	       int 10h
 4000  8B 0E 0028 R	     2	       mov cx,pos_lastx
 4004  8B 16 002A R	     2	       mov dx,pos_lasty
 4008  2B CF		     2	       sub cx,di
 400A  2B D6		     2	       sub dx,si
 400C  CD 10		     2	       int 10h
 400E			     2	??01DE: 
 400E  8D 1E 3F77 R	     2		   lea bx,??01D9
 4012  FF E3		     2	       jmp bx
 4014			     2	??01DF:
 4014  B4 0C		     2	       mov ah,0ch
 4016  A0 0131 R	     2	       mov al,colo
 4019  B7 00		     2	       mov bh,0
 401B  8B 0E 0027 R	     2	       mov cx,pos_lastx-01
 401F  8B 16 002A R	     2	       mov dx,pos_lasty
 4023  CD 10		     2	       int 10h
 4025  8B 0E 0029 R	     2	       mov cx,pos_lastx+01
 4029  8B 16 002A R	     2	       mov dx,pos_lasty
 402D  CD 10		     2	       int 10h
 402F  8B 0E 0028 R	     2	       mov cx,pos_lastx
 4033  8B 16 0029 R	     2	       mov dx,pos_lasty-01
 4037  CD 10		     2	       int 10h
 4039  8B 0E 0028 R	     2	       mov cx,pos_lastx
 403D  8B 16 002B R	     2	       mov dx,pos_lasty+01
 4041  CD 10		     2	       int 10h
 4043  5D		     2	       pop bp
 4044  5F		     2	       pop di
 4045  5E		     2	       pop si
 4046  5A		     2	       pop dx
 4047  59		     2	       pop cx
 4048  5B		     2	       pop bx
 4049  58		     2	       pop ax
					;DRAW_CURSOR pos_cenx,pos_ceny,colo
					DRAW_CURSOR pos_lastx,pos_lasty,colo
 404A  50		     1		push ax
 404B  53		     1		push bx
 404C  51		     1		push cx
 404D  52		     1		push dx
 404E  A1 0028 R	     1		mov ax,pos_lastx
 4051  8B 1E 002A R	     1		mov bx,pos_lasty
 4055  50		     1		push ax
 4056  53		     1		push bx
 4057  83 E8 14		     1		sub ax,20
 405A  83 EB 05		     1		sub bx,5
 405D  50		     2		push ax
 405E  53		     2		push bx
 405F  51		     2		push cx
 4060  52		     2		push dx
 4061  8B C8		     2		mov cx,ax
 4063  8B D3		     2		mov dx,bx
 4065  8B C1		     2		mov ax,cx
 4067  83 C0 0F		     2		add ax,15
 406A			     2		??01E0:
 406A  50		     2			push ax
 406B  B7 00		     2			mov bh,0
 406D  B4 0C		     2			mov ah,0ch
 406F  A0 0131 R	     2			mov al,colo
 4072  CD 10		     2			int 10h
 4074  58		     2			pop ax
 4075  41		     2			inc cx
 4076  3B C8		     2			cmp cx,ax
 4078  75 F0		     2			jnz ??01E0
 407A  5A		     2		pop dx
 407B  59		     2		pop cx
 407C  5B		     2		pop bx
 407D  58		     2		pop ax
 407E  5B		     1		pop bx
 407F  58		     1		pop ax
 4080  50		     1		push ax
 4081  53		     1		push bx
 4082  83 E8 05		     1		sub ax,5
 4085  83 EB 14		     1		sub bx,20
 4088  50		     2		push ax
 4089  53		     2		push bx
 408A  51		     2		push cx
 408B  52		     2		push dx
 408C  8B C8		     2		mov cx,ax
 408E  8B D3		     2		mov dx,bx
 4090  8B C2		     2		mov ax,dx
 4092  83 C0 0F		     2		add ax,15
 4095			     2		??01E1:
 4095  50		     2			push ax
 4096  B7 00		     2			mov bh,0
 4098  B4 0C		     2			mov ah,0ch
 409A  A0 0131 R	     2			mov al,colo
 409D  CD 10		     2			int 10h
 409F  58		     2			pop ax
 40A0  42		     2			inc dx
 40A1  3B D0		     2			cmp dx,ax
 40A3  75 F0		     2			jnz ??01E1
 40A5  5A		     2		pop dx
 40A6  59		     2		pop cx
 40A7  5B		     2		pop bx
 40A8  58		     2		pop ax
 40A9  5B		     1		pop bx
 40AA  58		     1		pop ax
 40AB  50		     1		push ax
 40AC  53		     1		push bx
 40AD  83 E8 14		     1		sub ax,20
 40B0  83 C3 05		     1		add bx,5
 40B3  50		     2		push ax
 40B4  53		     2		push bx
 40B5  51		     2		push cx
 40B6  52		     2		push dx
 40B7  8B C8		     2		mov cx,ax
 40B9  8B D3		     2		mov dx,bx
 40BB  8B C1		     2		mov ax,cx
 40BD  83 C0 0F		     2		add ax,15
 40C0			     2		??01E2:
 40C0  50		     2			push ax
 40C1  B7 00		     2			mov bh,0
 40C3  B4 0C		     2			mov ah,0ch
 40C5  A0 0131 R	     2			mov al,colo
 40C8  CD 10		     2			int 10h
 40CA  58		     2			pop ax
 40CB  41		     2			inc cx
 40CC  3B C8		     2			cmp cx,ax
 40CE  75 F0		     2			jnz ??01E2
 40D0  5A		     2		pop dx
 40D1  59		     2		pop cx
 40D2  5B		     2		pop bx
 40D3  58		     2		pop ax
 40D4  5B		     1		pop bx
 40D5  58		     1		pop ax
 40D6  50		     1		push ax
 40D7  53		     1		push bx
 40D8  83 E8 05		     1		sub ax,5
 40DB  83 C3 05		     1		add bx,5
 40DE  50		     2		push ax
 40DF  53		     2		push bx
 40E0  51		     2		push cx
 40E1  52		     2		push dx
 40E2  8B C8		     2		mov cx,ax
 40E4  8B D3		     2		mov dx,bx
 40E6  8B C2		     2		mov ax,dx
 40E8  83 C0 0F		     2		add ax,15
 40EB			     2		??01E3:
 40EB  50		     2			push ax
 40EC  B7 00		     2			mov bh,0
 40EE  B4 0C		     2			mov ah,0ch
 40F0  A0 0131 R	     2			mov al,colo
 40F3  CD 10		     2			int 10h
 40F5  58		     2			pop ax
 40F6  42		     2			inc dx
 40F7  3B D0		     2			cmp dx,ax
 40F9  75 F0		     2			jnz ??01E3
 40FB  5A		     2		pop dx
 40FC  59		     2		pop cx
 40FD  5B		     2		pop bx
 40FE  58		     2		pop ax
 40FF  5B		     1		pop bx
 4100  58		     1		pop ax
 4101  50		     1		push ax
 4102  53		     1		push bx
 4103  83 C0 05		     1		add ax,5
 4106  83 EB 14		     1		sub bx,20
 4109  50		     2		push ax
 410A  53		     2		push bx
 410B  51		     2		push cx
 410C  52		     2		push dx
 410D  8B C8		     2		mov cx,ax
 410F  8B D3		     2		mov dx,bx
 4111  8B C2		     2		mov ax,dx
 4113  83 C0 0F		     2		add ax,15
 4116			     2		??01E4:
 4116  50		     2			push ax
 4117  B7 00		     2			mov bh,0
 4119  B4 0C		     2			mov ah,0ch
 411B  A0 0131 R	     2			mov al,colo
 411E  CD 10		     2			int 10h
 4120  58		     2			pop ax
 4121  42		     2			inc dx
 4122  3B D0		     2			cmp dx,ax
 4124  75 F0		     2			jnz ??01E4
 4126  5A		     2		pop dx
 4127  59		     2		pop cx
 4128  5B		     2		pop bx
 4129  58		     2		pop ax
 412A  5B		     1		pop bx
 412B  58		     1		pop ax
 412C  50		     1		push ax
 412D  53		     1		push bx
 412E  83 C0 05		     1		add ax,5
 4131  83 EB 05		     1		sub bx,5
 4134  50		     2		push ax
 4135  53		     2		push bx
 4136  51		     2		push cx
 4137  52		     2		push dx
 4138  8B C8		     2		mov cx,ax
 413A  8B D3		     2		mov dx,bx
 413C  8B C1		     2		mov ax,cx
 413E  83 C0 0F		     2		add ax,15
 4141			     2		??01E5:
 4141  50		     2			push ax
 4142  B7 00		     2			mov bh,0
 4144  B4 0C		     2			mov ah,0ch
 4146  A0 0131 R	     2			mov al,colo
 4149  CD 10		     2			int 10h
 414B  58		     2			pop ax
 414C  41		     2			inc cx
 414D  3B C8		     2			cmp cx,ax
 414F  75 F0		     2			jnz ??01E5
 4151  5A		     2		pop dx
 4152  59		     2		pop cx
 4153  5B		     2		pop bx
 4154  58		     2		pop ax
 4155  5B		     1		pop bx
 4156  58		     1		pop ax
 4157  50		     1		push ax
 4158  53		     1		push bx
 4159  83 C0 05		     1		add ax,5
 415C  83 C3 05		     1		add bx,5
 415F  50		     2		push ax
 4160  53		     2		push bx
 4161  51		     2		push cx
 4162  52		     2		push dx
 4163  8B C8		     2		mov cx,ax
 4165  8B D3		     2		mov dx,bx
 4167  8B C2		     2		mov ax,dx
 4169  83 C0 0F		     2		add ax,15
 416C			     2		??01E6:
 416C  50		     2			push ax
 416D  B7 00		     2			mov bh,0
 416F  B4 0C		     2			mov ah,0ch
 4171  A0 0131 R	     2			mov al,colo
 4174  CD 10		     2			int 10h
 4176  58		     2			pop ax
 4177  42		     2			inc dx
 4178  3B D0		     2			cmp dx,ax
 417A  75 F0		     2			jnz ??01E6
 417C  5A		     2		pop dx
 417D  59		     2		pop cx
 417E  5B		     2		pop bx
 417F  58		     2		pop ax
 4180  5B		     1		pop bx
 4181  58		     1		pop ax
 4182  50		     1		push ax
 4183  53		     1		push bx
 4184  83 C0 05		     1		add ax,5
 4187  83 C3 05		     1		add bx,5
 418A  50		     2		push ax
 418B  53		     2		push bx
 418C  51		     2		push cx
 418D  52		     2		push dx
 418E  8B C8		     2		mov cx,ax
 4190  8B D3		     2		mov dx,bx
 4192  8B C1		     2		mov ax,cx
 4194  83 C0 0F		     2		add ax,15
 4197			     2		??01E7:
 4197  50		     2			push ax
 4198  B7 00		     2			mov bh,0
 419A  B4 0C		     2			mov ah,0ch
 419C  A0 0131 R	     2			mov al,colo
 419F  CD 10		     2			int 10h
 41A1  58		     2			pop ax
 41A2  41		     2			inc cx
 41A3  3B C8		     2			cmp cx,ax
 41A5  75 F0		     2			jnz ??01E7
 41A7  5A		     2		pop dx
 41A8  59		     2		pop cx
 41A9  5B		     2		pop bx
 41AA  58		     2		pop ax
 41AB  5B		     1		pop bx
 41AC  58		     1		pop ax
 41AD  5A		     1		pop dx
 41AE  59		     1		pop cx
 41AF  5B		     1		pop bx
 41B0  58		     1		pop ax
 41B1  A1 0024 R			mov ax,pos_cenx
 41B4  A3 0028 R			mov pos_lastx,ax
 41B7  A1 0026 R			mov ax,pos_ceny
 41BA  A3 002A R			mov pos_lasty,ax
					
					;交换棋手
 41BD  A0 0130 R			mov al,state
 41C0  3C 01				cmp al,1
 41C2  74 04				jz black
 41C4  3C 02				cmp al,2
 41C6  74 0D				jz white
 41C8				black:
 41C8  C6 06 0131 R 08			mov colo,08
 41CD  C6 06 0130 R 02			mov state,2
					;DRAWCIR 540,120,colo
 41D2  E9 BF70				jmp again
 41D5				white:
 41D5  C6 06 0131 R 0F			mov colo,15
 41DA  C6 06 0130 R 01			mov state,1
					;DRAWCIR 540,120,colo
 41DF  E9 BF63				jmp again
				;next:
				;	cmp judg,0
				;	jz again


 41E2				exitgame:
 41E2  9A ---- 0000 E			CALL BEEP
 41E7  C3				ret
					;将上一次鼠标位置画为背景色（即隐藏），然后重新获得鼠标位置	
 41E8				loop3:
					DRAW_CURSOR pos_lastx,pos_lasty,14
 41E8  50		     1		push ax
 41E9  53		     1		push bx
 41EA  51		     1		push cx
 41EB  52		     1		push dx
 41EC  A1 0028 R	     1		mov ax,pos_lastx
 41EF  8B 1E 002A R	     1		mov bx,pos_lasty
 41F3  50		     1		push ax
 41F4  53		     1		push bx
 41F5  83 E8 14		     1		sub ax,20
 41F8  83 EB 05		     1		sub bx,5
 41FB  50		     2		push ax
 41FC  53		     2		push bx
 41FD  51		     2		push cx
 41FE  52		     2		push dx
 41FF  8B C8		     2		mov cx,ax
 4201  8B D3		     2		mov dx,bx
 4203  8B C1		     2		mov ax,cx
 4205  83 C0 0F		     2		add ax,15
 4208			     2		??01E8:
 4208  50		     2			push ax
 4209  B7 00		     2			mov bh,0
 420B  B4 0C		     2			mov ah,0ch
 420D  B0 0E		     2			mov al,14
 420F  CD 10		     2			int 10h
 4211  58		     2			pop ax
 4212  41		     2			inc cx
 4213  3B C8		     2			cmp cx,ax
 4215  75 F1		     2			jnz ??01E8
 4217  5A		     2		pop dx
 4218  59		     2		pop cx
 4219  5B		     2		pop bx
 421A  58		     2		pop ax
 421B  5B		     1		pop bx
 421C  58		     1		pop ax
 421D  50		     1		push ax
 421E  53		     1		push bx
 421F  83 E8 05		     1		sub ax,5
 4222  83 EB 14		     1		sub bx,20
 4225  50		     2		push ax
 4226  53		     2		push bx
 4227  51		     2		push cx
 4228  52		     2		push dx
 4229  8B C8		     2		mov cx,ax
 422B  8B D3		     2		mov dx,bx
 422D  8B C2		     2		mov ax,dx
 422F  83 C0 0F		     2		add ax,15
 4232			     2		??01E9:
 4232  50		     2			push ax
 4233  B7 00		     2			mov bh,0
 4235  B4 0C		     2			mov ah,0ch
 4237  B0 0E		     2			mov al,14
 4239  CD 10		     2			int 10h
 423B  58		     2			pop ax
 423C  42		     2			inc dx
 423D  3B D0		     2			cmp dx,ax
 423F  75 F1		     2			jnz ??01E9
 4241  5A		     2		pop dx
 4242  59		     2		pop cx
 4243  5B		     2		pop bx
 4244  58		     2		pop ax
 4245  5B		     1		pop bx
 4246  58		     1		pop ax
 4247  50		     1		push ax
 4248  53		     1		push bx
 4249  83 E8 14		     1		sub ax,20
 424C  83 C3 05		     1		add bx,5
 424F  50		     2		push ax
 4250  53		     2		push bx
 4251  51		     2		push cx
 4252  52		     2		push dx
 4253  8B C8		     2		mov cx,ax
 4255  8B D3		     2		mov dx,bx
 4257  8B C1		     2		mov ax,cx
 4259  83 C0 0F		     2		add ax,15
 425C			     2		??01EA:
 425C  50		     2			push ax
 425D  B7 00		     2			mov bh,0
 425F  B4 0C		     2			mov ah,0ch
 4261  B0 0E		     2			mov al,14
 4263  CD 10		     2			int 10h
 4265  58		     2			pop ax
 4266  41		     2			inc cx
 4267  3B C8		     2			cmp cx,ax
 4269  75 F1		     2			jnz ??01EA
 426B  5A		     2		pop dx
 426C  59		     2		pop cx
 426D  5B		     2		pop bx
 426E  58		     2		pop ax
 426F  5B		     1		pop bx
 4270  58		     1		pop ax
 4271  50		     1		push ax
 4272  53		     1		push bx
 4273  83 E8 05		     1		sub ax,5
 4276  83 C3 05		     1		add bx,5
 4279  50		     2		push ax
 427A  53		     2		push bx
 427B  51		     2		push cx
 427C  52		     2		push dx
 427D  8B C8		     2		mov cx,ax
 427F  8B D3		     2		mov dx,bx
 4281  8B C2		     2		mov ax,dx
 4283  83 C0 0F		     2		add ax,15
 4286			     2		??01EB:
 4286  50		     2			push ax
 4287  B7 00		     2			mov bh,0
 4289  B4 0C		     2			mov ah,0ch
 428B  B0 0E		     2			mov al,14
 428D  CD 10		     2			int 10h
 428F  58		     2			pop ax
 4290  42		     2			inc dx
 4291  3B D0		     2			cmp dx,ax
 4293  75 F1		     2			jnz ??01EB
 4295  5A		     2		pop dx
 4296  59		     2		pop cx
 4297  5B		     2		pop bx
 4298  58		     2		pop ax
 4299  5B		     1		pop bx
 429A  58		     1		pop ax
 429B  50		     1		push ax
 429C  53		     1		push bx
 429D  83 C0 05		     1		add ax,5
 42A0  83 EB 14		     1		sub bx,20
 42A3  50		     2		push ax
 42A4  53		     2		push bx
 42A5  51		     2		push cx
 42A6  52		     2		push dx
 42A7  8B C8		     2		mov cx,ax
 42A9  8B D3		     2		mov dx,bx
 42AB  8B C2		     2		mov ax,dx
 42AD  83 C0 0F		     2		add ax,15
 42B0			     2		??01EC:
 42B0  50		     2			push ax
 42B1  B7 00		     2			mov bh,0
 42B3  B4 0C		     2			mov ah,0ch
 42B5  B0 0E		     2			mov al,14
 42B7  CD 10		     2			int 10h
 42B9  58		     2			pop ax
 42BA  42		     2			inc dx
 42BB  3B D0		     2			cmp dx,ax
 42BD  75 F1		     2			jnz ??01EC
 42BF  5A		     2		pop dx
 42C0  59		     2		pop cx
 42C1  5B		     2		pop bx
 42C2  58		     2		pop ax
 42C3  5B		     1		pop bx
 42C4  58		     1		pop ax
 42C5  50		     1		push ax
 42C6  53		     1		push bx
 42C7  83 C0 05		     1		add ax,5
 42CA  83 EB 05		     1		sub bx,5
 42CD  50		     2		push ax
 42CE  53		     2		push bx
 42CF  51		     2		push cx
 42D0  52		     2		push dx
 42D1  8B C8		     2		mov cx,ax
 42D3  8B D3		     2		mov dx,bx
 42D5  8B C1		     2		mov ax,cx
 42D7  83 C0 0F		     2		add ax,15
 42DA			     2		??01ED:
 42DA  50		     2			push ax
 42DB  B7 00		     2			mov bh,0
 42DD  B4 0C		     2			mov ah,0ch
 42DF  B0 0E		     2			mov al,14
 42E1  CD 10		     2			int 10h
 42E3  58		     2			pop ax
 42E4  41		     2			inc cx
 42E5  3B C8		     2			cmp cx,ax
 42E7  75 F1		     2			jnz ??01ED
 42E9  5A		     2		pop dx
 42EA  59		     2		pop cx
 42EB  5B		     2		pop bx
 42EC  58		     2		pop ax
 42ED  5B		     1		pop bx
 42EE  58		     1		pop ax
 42EF  50		     1		push ax
 42F0  53		     1		push bx
 42F1  83 C0 05		     1		add ax,5
 42F4  83 C3 05		     1		add bx,5
 42F7  50		     2		push ax
 42F8  53		     2		push bx
 42F9  51		     2		push cx
 42FA  52		     2		push dx
 42FB  8B C8		     2		mov cx,ax
 42FD  8B D3		     2		mov dx,bx
 42FF  8B C2		     2		mov ax,dx
 4301  83 C0 0F		     2		add ax,15
 4304			     2		??01EE:
 4304  50		     2			push ax
 4305  B7 00		     2			mov bh,0
 4307  B4 0C		     2			mov ah,0ch
 4309  B0 0E		     2			mov al,14
 430B  CD 10		     2			int 10h
 430D  58		     2			pop ax
 430E  42		     2			inc dx
 430F  3B D0		     2			cmp dx,ax
 4311  75 F1		     2			jnz ??01EE
 4313  5A		     2		pop dx
 4314  59		     2		pop cx
 4315  5B		     2		pop bx
 4316  58		     2		pop ax
 4317  5B		     1		pop bx
 4318  58		     1		pop ax
 4319  50		     1		push ax
 431A  53		     1		push bx
 431B  83 C0 05		     1		add ax,5
 431E  83 C3 05		     1		add bx,5
 4321  50		     2		push ax
 4322  53		     2		push bx
 4323  51		     2		push cx
 4324  52		     2		push dx
 4325  8B C8		     2		mov cx,ax
 4327  8B D3		     2		mov dx,bx
 4329  8B C1		     2		mov ax,cx
 432B  83 C0 0F		     2		add ax,15
 432E			     2		??01EF:
 432E  50		     2			push ax
 432F  B7 00		     2			mov bh,0
 4331  B4 0C		     2			mov ah,0ch
 4333  B0 0E		     2			mov al,14
 4335  CD 10		     2			int 10h
 4337  58		     2			pop ax
 4338  41		     2			inc cx
 4339  3B C8		     2			cmp cx,ax
 433B  75 F1		     2			jnz ??01EF
 433D  5A		     2		pop dx
 433E  59		     2		pop cx
 433F  5B		     2		pop bx
 4340  58		     2		pop ax
 4341  5B		     1		pop bx
 4342  58		     1		pop ax
 4343  5A		     1		pop dx
 4344  59		     1		pop cx
 4345  5B		     1		pop bx
 4346  58		     1		pop ax
 4347  E9 BDFB				jmp again
					
 434A  C3				ret
 434B				mouse endp

				;===========================================================
				;延迟函数，用来解决改变棋子颜色时太过灵敏问题
				;===========================================================
 434B				delay proc
 434B  B9 FFFF				mov cx,65535
 434E  50				push ax
 434F				wait1:
 434F  E4 61				in al,61h
 4351  24 10				and al,10h
 4353  38 E0				cmp al,ah
 4355  74 F8				je wait1
 4357  8A E0				mov ah,al
 4359  E2 F4				loop wait1
 435B  58				pop ax
 435C  C3				ret
 435D				delay endp


 435D				initdata proc
 435D  C7 06 0020 R 0000		mov pos_x,0
 4363  C7 06 0022 R 0000	    mov pos_y,0
 4369  C7 06 0024 R 0000	    mov pos_cenx,0
 436F  C7 06 0026 R 0000	    mov pos_ceny,0
 4375  C7 06 0028 R 005F	    mov pos_lastx,95
 437B  C7 06 002A R 005F	    mov pos_lasty,95

 4381  BF 0030 R		    mov di,offset map0
 4384  B9 0121			    mov cx,289
 4387				inneloop:
 4387  B8 0000				mov ax,0
 438A  89 05				mov [di],ax
 438C  47				inc di
 438D  E2 F8				loop inneloop
				    
 438F  C7 06 0151 R 0000	    mov rowy,0
 4395  C7 06 0153 R 0000	    mov colx,0
				    
 439B  C7 06 0155 R 0000	    mov jrowy,0
 43A1  C7 06 0157 R 0000	    mov jcolx,0
				    
				    ;表示能不能落子
 43A7  C6 06 0120 R 01		    mov jud1,1;0表示不能，1表示能
				    ;表示相对于首地址的偏移
 43AC  C7 06 0121 R 0000	    mov pianyi,0
				    ;判断游戏是否结束
 43B2  C6 06 0123 R 00		    mov judg,0
				    
				    ;org 130h
				    ;记录当前棋手和颜色
 43B7  C6 06 0130 R 01		    mov state,1
 43BC  C6 06 0131 R 0F		    mov colo,15
				    
 43C1  C6 06 0132 R 00		    mov qizinum,0
				    
 43C6  C6 06 0140 R 00		    mov lianzigeshu,0
 43CB  C7 06 0141 R 0000		mov maxscore,0
 43D1  C7 06 0143 R 0000	    mov tempscore,0
 43D7  C7 06 0145 R 0000	    mov aicenx,0
 43DD  C7 06 0147 R 0000	    mov aiceny,0
 43E3  C7 06 0149 R 0000	    mov tmpaicenx,0
 43E9  C7 06 014B R 0000	   	mov tmpaiceny,0
					
 43EF  C3				ret
 43F0				initdata endp


 43F0				computer proc
					
					
					;初始化并显示鼠标
 43F0  B8 0000				mov ax,0
 43F3  CD 33				int 33h
 43F5  B8 0001				mov ax,01
 43F8  CD 33				int 33h
					
 43FA				again:

					DRAWCIR 540,120,colo
 43FA  50		     2	       push ax
 43FB  53		     2	       push bx
 43FC  51		     2	       push cx
 43FD  52		     2	       push dx
 43FE  56		     2	       push si
 43FF  57		     2	       push di
 4400  55		     2	       push bp
 4401  B4 0C		     2	       mov ah,0ch
 4403  A0 0131 R	     2	       mov al,colo
 4406  B7 00		     2	       mov bh,0
 4408  B9 021C		     2	       mov cx,540
 440B  BA 0078		     2	       mov dx,120
 440E  BE 0000		     2	       mov si,0         ;X
 4411  BF 0014		     2	       mov di,20    ;Y
 4414  BD FFED		     2	       mov bp,1-20
 4417			     2	??01F0: 
 4417  3B F7		     2		   cmp si,di
 4419  7C 06		     2	       jl ??01F1
 441B  8D 1E 44A4 R	     2	       lea bx,??01F6
 441F  FF E3		     2	       jmp bx
 4421			     2	??01F1:
 4421  46		     2		   inc si
 4422			     2	??01F2: 
 4422  83 FD 00		     2	       cmp bp,0
 4425  7D 09		     2	       jge ??01F3
 4427  03 EE		     2	       add bp,si
 4429  03 EE		     2	       add bp,si
 442B  83 C5 01		     2	       add bp,1
 442E  EB 0C		     2	       jmp ??01F4
 4430			     2	??01F3: 
 4430  4F		     2		   dec di
 4431  03 EE		     2	       add bp,si
 4433  03 EE		     2	       add bp,si
 4435  2B EF		     2	       sub bp,di
 4437  2B EF		     2	       sub bp,di
 4439  83 C5 01		     2	       add bp,1
 443C			     2	??01F4: 
 443C  B7 00		     2		   mov bh,0
 443E  B9 021C		     2	       mov cx,540
 4441  BA 0078		     2	       mov dx,120
 4444  03 CE		     2	       add cx,si
 4446  03 D7		     2	       add dx,di
 4448  CD 10		     2	       int 10h
 444A  B9 021C		     2	       mov cx,540
 444D  BA 0078		     2	       mov dx,120
 4450  2B CE		     2	       sub cx,si
 4452  03 D7		     2	       add dx,di
 4454  CD 10		     2	       int 10h
 4456  B9 021C		     2	       mov cx,540
 4459  BA 0078		     2	       mov dx,120
 445C  03 CE		     2	       add cx,si
 445E  2B D7		     2	       sub dx,di
 4460  CD 10		     2	       int 10h
 4462  B9 021C		     2	       mov cx,540
 4465  BA 0078		     2	       mov dx,120
 4468  2B CE		     2	       sub cx,si
 446A  2B D7		     2	       sub dx,di
 446C  CD 10		     2	       int 10h
 446E  B9 021C		     2	       mov cx,540
 4471  BA 0078		     2	       mov dx,120
 4474  03 CF		     2	       add cx,di
 4476  03 D6		     2	       add dx,si
 4478  CD 10		     2	       int 10h
 447A  B9 021C		     2	       mov cx,540
 447D  BA 0078		     2	       mov dx,120
 4480  2B CF		     2	       sub cx,di
 4482  03 D6		     2	       add dx,si
 4484  CD 10		     2	       int 10h
 4486  B9 021C		     2	       mov cx,540
 4489  BA 0078		     2	       mov dx,120
 448C  03 CF		     2	       add cx,di
 448E  2B D6		     2	       sub dx,si
 4490  CD 10		     2	       int 10h
 4492  B9 021C		     2	       mov cx,540
 4495  BA 0078		     2	       mov dx,120
 4498  2B CF		     2	       sub cx,di
 449A  2B D6		     2	       sub dx,si
 449C  CD 10		     2	       int 10h
 449E			     2	??01F5: 
 449E  8D 1E 4417 R	     2		   lea bx,??01F0
 44A2  FF E3		     2	       jmp bx
 44A4			     2	??01F6:
 44A4  B4 0C		     2	       mov ah,0ch
 44A6  A0 0131 R	     2	       mov al,colo
 44A9  B7 00		     2	       mov bh,0
 44AB  B9 0208		     2	       mov cx,540-20
 44AE  BA 0078		     2	       mov dx,120
 44B1  CD 10		     2	       int 10h
 44B3  B9 0230		     2	       mov cx,540+20
 44B6  BA 0078		     2	       mov dx,120
 44B9  CD 10		     2	       int 10h
 44BB  B9 021C		     2	       mov cx,540
 44BE  BA 0064		     2	       mov dx,120-20
 44C1  CD 10		     2	       int 10h
 44C3  B9 021C		     2	       mov cx,540
 44C6  BA 008C		     2	       mov dx,120+20
 44C9  CD 10		     2	       int 10h
 44CB  5D		     2	       pop bp
 44CC  5F		     2	       pop di
 44CD  5E		     2	       pop si
 44CE  5A		     2	       pop dx
 44CF  59		     2	       pop cx
 44D0  5B		     2	       pop bx
 44D1  58		     2	       pop ax
 44D2  50		     2	       push ax
 44D3  53		     2	       push bx
 44D4  51		     2	       push cx
 44D5  52		     2	       push dx
 44D6  56		     2	       push si
 44D7  57		     2	       push di
 44D8  55		     2	       push bp
 44D9  B4 0C		     2	       mov ah,0ch
 44DB  A0 0131 R	     2	       mov al,colo
 44DE  B7 00		     2	       mov bh,0
 44E0  B9 021C		     2	       mov cx,540
 44E3  BA 0078		     2	       mov dx,120
 44E6  BE 0000		     2	       mov si,0         ;X
 44E9  BF 0013		     2	       mov di,19    ;Y
 44EC  BD FFEE		     2	       mov bp,1-19
 44EF			     2	??01F7: 
 44EF  3B F7		     2		   cmp si,di
 44F1  7C 06		     2	       jl ??01F8
 44F3  8D 1E 457C R	     2	       lea bx,??01FD
 44F7  FF E3		     2	       jmp bx
 44F9			     2	??01F8:
 44F9  46		     2		   inc si
 44FA			     2	??01F9: 
 44FA  83 FD 00		     2	       cmp bp,0
 44FD  7D 09		     2	       jge ??01FA
 44FF  03 EE		     2	       add bp,si
 4501  03 EE		     2	       add bp,si
 4503  83 C5 01		     2	       add bp,1
 4506  EB 0C		     2	       jmp ??01FB
 4508			     2	??01FA: 
 4508  4F		     2		   dec di
 4509  03 EE		     2	       add bp,si
 450B  03 EE		     2	       add bp,si
 450D  2B EF		     2	       sub bp,di
 450F  2B EF		     2	       sub bp,di
 4511  83 C5 01		     2	       add bp,1
 4514			     2	??01FB: 
 4514  B7 00		     2		   mov bh,0
 4516  B9 021C		     2	       mov cx,540
 4519  BA 0078		     2	       mov dx,120
 451C  03 CE		     2	       add cx,si
 451E  03 D7		     2	       add dx,di
 4520  CD 10		     2	       int 10h
 4522  B9 021C		     2	       mov cx,540
 4525  BA 0078		     2	       mov dx,120
 4528  2B CE		     2	       sub cx,si
 452A  03 D7		     2	       add dx,di
 452C  CD 10		     2	       int 10h
 452E  B9 021C		     2	       mov cx,540
 4531  BA 0078		     2	       mov dx,120
 4534  03 CE		     2	       add cx,si
 4536  2B D7		     2	       sub dx,di
 4538  CD 10		     2	       int 10h
 453A  B9 021C		     2	       mov cx,540
 453D  BA 0078		     2	       mov dx,120
 4540  2B CE		     2	       sub cx,si
 4542  2B D7		     2	       sub dx,di
 4544  CD 10		     2	       int 10h
 4546  B9 021C		     2	       mov cx,540
 4549  BA 0078		     2	       mov dx,120
 454C  03 CF		     2	       add cx,di
 454E  03 D6		     2	       add dx,si
 4550  CD 10		     2	       int 10h
 4552  B9 021C		     2	       mov cx,540
 4555  BA 0078		     2	       mov dx,120
 4558  2B CF		     2	       sub cx,di
 455A  03 D6		     2	       add dx,si
 455C  CD 10		     2	       int 10h
 455E  B9 021C		     2	       mov cx,540
 4561  BA 0078		     2	       mov dx,120
 4564  03 CF		     2	       add cx,di
 4566  2B D6		     2	       sub dx,si
 4568  CD 10		     2	       int 10h
 456A  B9 021C		     2	       mov cx,540
 456D  BA 0078		     2	       mov dx,120
 4570  2B CF		     2	       sub cx,di
 4572  2B D6		     2	       sub dx,si
 4574  CD 10		     2	       int 10h
 4576			     2	??01FC: 
 4576  8D 1E 44EF R	     2		   lea bx,??01F7
 457A  FF E3		     2	       jmp bx
 457C			     2	??01FD:
 457C  B4 0C		     2	       mov ah,0ch
 457E  A0 0131 R	     2	       mov al,colo
 4581  B7 00		     2	       mov bh,0
 4583  B9 0209		     2	       mov cx,540-19
 4586  BA 0078		     2	       mov dx,120
 4589  CD 10		     2	       int 10h
 458B  B9 022F		     2	       mov cx,540+19
 458E  BA 0078		     2	       mov dx,120
 4591  CD 10		     2	       int 10h
 4593  B9 021C		     2	       mov cx,540
 4596  BA 0065		     2	       mov dx,120-19
 4599  CD 10		     2	       int 10h
 459B  B9 021C		     2	       mov cx,540
 459E  BA 008B		     2	       mov dx,120+19
 45A1  CD 10		     2	       int 10h
 45A3  5D		     2	       pop bp
 45A4  5F		     2	       pop di
 45A5  5E		     2	       pop si
 45A6  5A		     2	       pop dx
 45A7  59		     2	       pop cx
 45A8  5B		     2	       pop bx
 45A9  58		     2	       pop ax
 45AA  50		     2	       push ax
 45AB  53		     2	       push bx
 45AC  51		     2	       push cx
 45AD  52		     2	       push dx
 45AE  56		     2	       push si
 45AF  57		     2	       push di
 45B0  55		     2	       push bp
 45B1  B4 0C		     2	       mov ah,0ch
 45B3  A0 0131 R	     2	       mov al,colo
 45B6  B7 00		     2	       mov bh,0
 45B8  B9 021C		     2	       mov cx,540
 45BB  BA 0078		     2	       mov dx,120
 45BE  BE 0000		     2	       mov si,0         ;X
 45C1  BF 0012		     2	       mov di,18    ;Y
 45C4  BD FFEF		     2	       mov bp,1-18
 45C7			     2	??01FE: 
 45C7  3B F7		     2		   cmp si,di
 45C9  7C 06		     2	       jl ??01FF
 45CB  8D 1E 4654 R	     2	       lea bx,??0204
 45CF  FF E3		     2	       jmp bx
 45D1			     2	??01FF:
 45D1  46		     2		   inc si
 45D2			     2	??0200: 
 45D2  83 FD 00		     2	       cmp bp,0
 45D5  7D 09		     2	       jge ??0201
 45D7  03 EE		     2	       add bp,si
 45D9  03 EE		     2	       add bp,si
 45DB  83 C5 01		     2	       add bp,1
 45DE  EB 0C		     2	       jmp ??0202
 45E0			     2	??0201: 
 45E0  4F		     2		   dec di
 45E1  03 EE		     2	       add bp,si
 45E3  03 EE		     2	       add bp,si
 45E5  2B EF		     2	       sub bp,di
 45E7  2B EF		     2	       sub bp,di
 45E9  83 C5 01		     2	       add bp,1
 45EC			     2	??0202: 
 45EC  B7 00		     2		   mov bh,0
 45EE  B9 021C		     2	       mov cx,540
 45F1  BA 0078		     2	       mov dx,120
 45F4  03 CE		     2	       add cx,si
 45F6  03 D7		     2	       add dx,di
 45F8  CD 10		     2	       int 10h
 45FA  B9 021C		     2	       mov cx,540
 45FD  BA 0078		     2	       mov dx,120
 4600  2B CE		     2	       sub cx,si
 4602  03 D7		     2	       add dx,di
 4604  CD 10		     2	       int 10h
 4606  B9 021C		     2	       mov cx,540
 4609  BA 0078		     2	       mov dx,120
 460C  03 CE		     2	       add cx,si
 460E  2B D7		     2	       sub dx,di
 4610  CD 10		     2	       int 10h
 4612  B9 021C		     2	       mov cx,540
 4615  BA 0078		     2	       mov dx,120
 4618  2B CE		     2	       sub cx,si
 461A  2B D7		     2	       sub dx,di
 461C  CD 10		     2	       int 10h
 461E  B9 021C		     2	       mov cx,540
 4621  BA 0078		     2	       mov dx,120
 4624  03 CF		     2	       add cx,di
 4626  03 D6		     2	       add dx,si
 4628  CD 10		     2	       int 10h
 462A  B9 021C		     2	       mov cx,540
 462D  BA 0078		     2	       mov dx,120
 4630  2B CF		     2	       sub cx,di
 4632  03 D6		     2	       add dx,si
 4634  CD 10		     2	       int 10h
 4636  B9 021C		     2	       mov cx,540
 4639  BA 0078		     2	       mov dx,120
 463C  03 CF		     2	       add cx,di
 463E  2B D6		     2	       sub dx,si
 4640  CD 10		     2	       int 10h
 4642  B9 021C		     2	       mov cx,540
 4645  BA 0078		     2	       mov dx,120
 4648  2B CF		     2	       sub cx,di
 464A  2B D6		     2	       sub dx,si
 464C  CD 10		     2	       int 10h
 464E			     2	??0203: 
 464E  8D 1E 45C7 R	     2		   lea bx,??01FE
 4652  FF E3		     2	       jmp bx
 4654			     2	??0204:
 4654  B4 0C		     2	       mov ah,0ch
 4656  A0 0131 R	     2	       mov al,colo
 4659  B7 00		     2	       mov bh,0
 465B  B9 020A		     2	       mov cx,540-18
 465E  BA 0078		     2	       mov dx,120
 4661  CD 10		     2	       int 10h
 4663  B9 022E		     2	       mov cx,540+18
 4666  BA 0078		     2	       mov dx,120
 4669  CD 10		     2	       int 10h
 466B  B9 021C		     2	       mov cx,540
 466E  BA 0066		     2	       mov dx,120-18
 4671  CD 10		     2	       int 10h
 4673  B9 021C		     2	       mov cx,540
 4676  BA 008A		     2	       mov dx,120+18
 4679  CD 10		     2	       int 10h
 467B  5D		     2	       pop bp
 467C  5F		     2	       pop di
 467D  5E		     2	       pop si
 467E  5A		     2	       pop dx
 467F  59		     2	       pop cx
 4680  5B		     2	       pop bx
 4681  58		     2	       pop ax
 4682  50		     2	       push ax
 4683  53		     2	       push bx
 4684  51		     2	       push cx
 4685  52		     2	       push dx
 4686  56		     2	       push si
 4687  57		     2	       push di
 4688  55		     2	       push bp
 4689  B4 0C		     2	       mov ah,0ch
 468B  A0 0131 R	     2	       mov al,colo
 468E  B7 00		     2	       mov bh,0
 4690  B9 021C		     2	       mov cx,540
 4693  BA 0078		     2	       mov dx,120
 4696  BE 0000		     2	       mov si,0         ;X
 4699  BF 0011		     2	       mov di,17    ;Y
 469C  BD FFF0		     2	       mov bp,1-17
 469F			     2	??0205: 
 469F  3B F7		     2		   cmp si,di
 46A1  7C 06		     2	       jl ??0206
 46A3  8D 1E 472C R	     2	       lea bx,??020B
 46A7  FF E3		     2	       jmp bx
 46A9			     2	??0206:
 46A9  46		     2		   inc si
 46AA			     2	??0207: 
 46AA  83 FD 00		     2	       cmp bp,0
 46AD  7D 09		     2	       jge ??0208
 46AF  03 EE		     2	       add bp,si
 46B1  03 EE		     2	       add bp,si
 46B3  83 C5 01		     2	       add bp,1
 46B6  EB 0C		     2	       jmp ??0209
 46B8			     2	??0208: 
 46B8  4F		     2		   dec di
 46B9  03 EE		     2	       add bp,si
 46BB  03 EE		     2	       add bp,si
 46BD  2B EF		     2	       sub bp,di
 46BF  2B EF		     2	       sub bp,di
 46C1  83 C5 01		     2	       add bp,1
 46C4			     2	??0209: 
 46C4  B7 00		     2		   mov bh,0
 46C6  B9 021C		     2	       mov cx,540
 46C9  BA 0078		     2	       mov dx,120
 46CC  03 CE		     2	       add cx,si
 46CE  03 D7		     2	       add dx,di
 46D0  CD 10		     2	       int 10h
 46D2  B9 021C		     2	       mov cx,540
 46D5  BA 0078		     2	       mov dx,120
 46D8  2B CE		     2	       sub cx,si
 46DA  03 D7		     2	       add dx,di
 46DC  CD 10		     2	       int 10h
 46DE  B9 021C		     2	       mov cx,540
 46E1  BA 0078		     2	       mov dx,120
 46E4  03 CE		     2	       add cx,si
 46E6  2B D7		     2	       sub dx,di
 46E8  CD 10		     2	       int 10h
 46EA  B9 021C		     2	       mov cx,540
 46ED  BA 0078		     2	       mov dx,120
 46F0  2B CE		     2	       sub cx,si
 46F2  2B D7		     2	       sub dx,di
 46F4  CD 10		     2	       int 10h
 46F6  B9 021C		     2	       mov cx,540
 46F9  BA 0078		     2	       mov dx,120
 46FC  03 CF		     2	       add cx,di
 46FE  03 D6		     2	       add dx,si
 4700  CD 10		     2	       int 10h
 4702  B9 021C		     2	       mov cx,540
 4705  BA 0078		     2	       mov dx,120
 4708  2B CF		     2	       sub cx,di
 470A  03 D6		     2	       add dx,si
 470C  CD 10		     2	       int 10h
 470E  B9 021C		     2	       mov cx,540
 4711  BA 0078		     2	       mov dx,120
 4714  03 CF		     2	       add cx,di
 4716  2B D6		     2	       sub dx,si
 4718  CD 10		     2	       int 10h
 471A  B9 021C		     2	       mov cx,540
 471D  BA 0078		     2	       mov dx,120
 4720  2B CF		     2	       sub cx,di
 4722  2B D6		     2	       sub dx,si
 4724  CD 10		     2	       int 10h
 4726			     2	??020A: 
 4726  8D 1E 469F R	     2		   lea bx,??0205
 472A  FF E3		     2	       jmp bx
 472C			     2	??020B:
 472C  B4 0C		     2	       mov ah,0ch
 472E  A0 0131 R	     2	       mov al,colo
 4731  B7 00		     2	       mov bh,0
 4733  B9 020B		     2	       mov cx,540-17
 4736  BA 0078		     2	       mov dx,120
 4739  CD 10		     2	       int 10h
 473B  B9 022D		     2	       mov cx,540+17
 473E  BA 0078		     2	       mov dx,120
 4741  CD 10		     2	       int 10h
 4743  B9 021C		     2	       mov cx,540
 4746  BA 0067		     2	       mov dx,120-17
 4749  CD 10		     2	       int 10h
 474B  B9 021C		     2	       mov cx,540
 474E  BA 0089		     2	       mov dx,120+17
 4751  CD 10		     2	       int 10h
 4753  5D		     2	       pop bp
 4754  5F		     2	       pop di
 4755  5E		     2	       pop si
 4756  5A		     2	       pop dx
 4757  59		     2	       pop cx
 4758  5B		     2	       pop bx
 4759  58		     2	       pop ax
 475A  50		     2	       push ax
 475B  53		     2	       push bx
 475C  51		     2	       push cx
 475D  52		     2	       push dx
 475E  56		     2	       push si
 475F  57		     2	       push di
 4760  55		     2	       push bp
 4761  B4 0C		     2	       mov ah,0ch
 4763  A0 0131 R	     2	       mov al,colo
 4766  B7 00		     2	       mov bh,0
 4768  B9 021C		     2	       mov cx,540
 476B  BA 0078		     2	       mov dx,120
 476E  BE 0000		     2	       mov si,0         ;X
 4771  BF 0010		     2	       mov di,16    ;Y
 4774  BD FFF1		     2	       mov bp,1-16
 4777			     2	??020C: 
 4777  3B F7		     2		   cmp si,di
 4779  7C 06		     2	       jl ??020D
 477B  8D 1E 4804 R	     2	       lea bx,??0212
 477F  FF E3		     2	       jmp bx
 4781			     2	??020D:
 4781  46		     2		   inc si
 4782			     2	??020E: 
 4782  83 FD 00		     2	       cmp bp,0
 4785  7D 09		     2	       jge ??020F
 4787  03 EE		     2	       add bp,si
 4789  03 EE		     2	       add bp,si
 478B  83 C5 01		     2	       add bp,1
 478E  EB 0C		     2	       jmp ??0210
 4790			     2	??020F: 
 4790  4F		     2		   dec di
 4791  03 EE		     2	       add bp,si
 4793  03 EE		     2	       add bp,si
 4795  2B EF		     2	       sub bp,di
 4797  2B EF		     2	       sub bp,di
 4799  83 C5 01		     2	       add bp,1
 479C			     2	??0210: 
 479C  B7 00		     2		   mov bh,0
 479E  B9 021C		     2	       mov cx,540
 47A1  BA 0078		     2	       mov dx,120
 47A4  03 CE		     2	       add cx,si
 47A6  03 D7		     2	       add dx,di
 47A8  CD 10		     2	       int 10h
 47AA  B9 021C		     2	       mov cx,540
 47AD  BA 0078		     2	       mov dx,120
 47B0  2B CE		     2	       sub cx,si
 47B2  03 D7		     2	       add dx,di
 47B4  CD 10		     2	       int 10h
 47B6  B9 021C		     2	       mov cx,540
 47B9  BA 0078		     2	       mov dx,120
 47BC  03 CE		     2	       add cx,si
 47BE  2B D7		     2	       sub dx,di
 47C0  CD 10		     2	       int 10h
 47C2  B9 021C		     2	       mov cx,540
 47C5  BA 0078		     2	       mov dx,120
 47C8  2B CE		     2	       sub cx,si
 47CA  2B D7		     2	       sub dx,di
 47CC  CD 10		     2	       int 10h
 47CE  B9 021C		     2	       mov cx,540
 47D1  BA 0078		     2	       mov dx,120
 47D4  03 CF		     2	       add cx,di
 47D6  03 D6		     2	       add dx,si
 47D8  CD 10		     2	       int 10h
 47DA  B9 021C		     2	       mov cx,540
 47DD  BA 0078		     2	       mov dx,120
 47E0  2B CF		     2	       sub cx,di
 47E2  03 D6		     2	       add dx,si
 47E4  CD 10		     2	       int 10h
 47E6  B9 021C		     2	       mov cx,540
 47E9  BA 0078		     2	       mov dx,120
 47EC  03 CF		     2	       add cx,di
 47EE  2B D6		     2	       sub dx,si
 47F0  CD 10		     2	       int 10h
 47F2  B9 021C		     2	       mov cx,540
 47F5  BA 0078		     2	       mov dx,120
 47F8  2B CF		     2	       sub cx,di
 47FA  2B D6		     2	       sub dx,si
 47FC  CD 10		     2	       int 10h
 47FE			     2	??0211: 
 47FE  8D 1E 4777 R	     2		   lea bx,??020C
 4802  FF E3		     2	       jmp bx
 4804			     2	??0212:
 4804  B4 0C		     2	       mov ah,0ch
 4806  A0 0131 R	     2	       mov al,colo
 4809  B7 00		     2	       mov bh,0
 480B  B9 020C		     2	       mov cx,540-16
 480E  BA 0078		     2	       mov dx,120
 4811  CD 10		     2	       int 10h
 4813  B9 022C		     2	       mov cx,540+16
 4816  BA 0078		     2	       mov dx,120
 4819  CD 10		     2	       int 10h
 481B  B9 021C		     2	       mov cx,540
 481E  BA 0068		     2	       mov dx,120-16
 4821  CD 10		     2	       int 10h
 4823  B9 021C		     2	       mov cx,540
 4826  BA 0088		     2	       mov dx,120+16
 4829  CD 10		     2	       int 10h
 482B  5D		     2	       pop bp
 482C  5F		     2	       pop di
 482D  5E		     2	       pop si
 482E  5A		     2	       pop dx
 482F  59		     2	       pop cx
 4830  5B		     2	       pop bx
 4831  58		     2	       pop ax
 4832  50		     2	       push ax
 4833  53		     2	       push bx
 4834  51		     2	       push cx
 4835  52		     2	       push dx
 4836  56		     2	       push si
 4837  57		     2	       push di
 4838  55		     2	       push bp
 4839  B4 0C		     2	       mov ah,0ch
 483B  A0 0131 R	     2	       mov al,colo
 483E  B7 00		     2	       mov bh,0
 4840  B9 021C		     2	       mov cx,540
 4843  BA 0078		     2	       mov dx,120
 4846  BE 0000		     2	       mov si,0         ;X
 4849  BF 000F		     2	       mov di,15    ;Y
 484C  BD FFF2		     2	       mov bp,1-15
 484F			     2	??0213: 
 484F  3B F7		     2		   cmp si,di
 4851  7C 06		     2	       jl ??0214
 4853  8D 1E 48DC R	     2	       lea bx,??0219
 4857  FF E3		     2	       jmp bx
 4859			     2	??0214:
 4859  46		     2		   inc si
 485A			     2	??0215: 
 485A  83 FD 00		     2	       cmp bp,0
 485D  7D 09		     2	       jge ??0216
 485F  03 EE		     2	       add bp,si
 4861  03 EE		     2	       add bp,si
 4863  83 C5 01		     2	       add bp,1
 4866  EB 0C		     2	       jmp ??0217
 4868			     2	??0216: 
 4868  4F		     2		   dec di
 4869  03 EE		     2	       add bp,si
 486B  03 EE		     2	       add bp,si
 486D  2B EF		     2	       sub bp,di
 486F  2B EF		     2	       sub bp,di
 4871  83 C5 01		     2	       add bp,1
 4874			     2	??0217: 
 4874  B7 00		     2		   mov bh,0
 4876  B9 021C		     2	       mov cx,540
 4879  BA 0078		     2	       mov dx,120
 487C  03 CE		     2	       add cx,si
 487E  03 D7		     2	       add dx,di
 4880  CD 10		     2	       int 10h
 4882  B9 021C		     2	       mov cx,540
 4885  BA 0078		     2	       mov dx,120
 4888  2B CE		     2	       sub cx,si
 488A  03 D7		     2	       add dx,di
 488C  CD 10		     2	       int 10h
 488E  B9 021C		     2	       mov cx,540
 4891  BA 0078		     2	       mov dx,120
 4894  03 CE		     2	       add cx,si
 4896  2B D7		     2	       sub dx,di
 4898  CD 10		     2	       int 10h
 489A  B9 021C		     2	       mov cx,540
 489D  BA 0078		     2	       mov dx,120
 48A0  2B CE		     2	       sub cx,si
 48A2  2B D7		     2	       sub dx,di
 48A4  CD 10		     2	       int 10h
 48A6  B9 021C		     2	       mov cx,540
 48A9  BA 0078		     2	       mov dx,120
 48AC  03 CF		     2	       add cx,di
 48AE  03 D6		     2	       add dx,si
 48B0  CD 10		     2	       int 10h
 48B2  B9 021C		     2	       mov cx,540
 48B5  BA 0078		     2	       mov dx,120
 48B8  2B CF		     2	       sub cx,di
 48BA  03 D6		     2	       add dx,si
 48BC  CD 10		     2	       int 10h
 48BE  B9 021C		     2	       mov cx,540
 48C1  BA 0078		     2	       mov dx,120
 48C4  03 CF		     2	       add cx,di
 48C6  2B D6		     2	       sub dx,si
 48C8  CD 10		     2	       int 10h
 48CA  B9 021C		     2	       mov cx,540
 48CD  BA 0078		     2	       mov dx,120
 48D0  2B CF		     2	       sub cx,di
 48D2  2B D6		     2	       sub dx,si
 48D4  CD 10		     2	       int 10h
 48D6			     2	??0218: 
 48D6  8D 1E 484F R	     2		   lea bx,??0213
 48DA  FF E3		     2	       jmp bx
 48DC			     2	??0219:
 48DC  B4 0C		     2	       mov ah,0ch
 48DE  A0 0131 R	     2	       mov al,colo
 48E1  B7 00		     2	       mov bh,0
 48E3  B9 020D		     2	       mov cx,540-15
 48E6  BA 0078		     2	       mov dx,120
 48E9  CD 10		     2	       int 10h
 48EB  B9 022B		     2	       mov cx,540+15
 48EE  BA 0078		     2	       mov dx,120
 48F1  CD 10		     2	       int 10h
 48F3  B9 021C		     2	       mov cx,540
 48F6  BA 0069		     2	       mov dx,120-15
 48F9  CD 10		     2	       int 10h
 48FB  B9 021C		     2	       mov cx,540
 48FE  BA 0087		     2	       mov dx,120+15
 4901  CD 10		     2	       int 10h
 4903  5D		     2	       pop bp
 4904  5F		     2	       pop di
 4905  5E		     2	       pop si
 4906  5A		     2	       pop dx
 4907  59		     2	       pop cx
 4908  5B		     2	       pop bx
 4909  58		     2	       pop ax
 490A  50		     2	       push ax
 490B  53		     2	       push bx
 490C  51		     2	       push cx
 490D  52		     2	       push dx
 490E  56		     2	       push si
 490F  57		     2	       push di
 4910  55		     2	       push bp
 4911  B4 0C		     2	       mov ah,0ch
 4913  A0 0131 R	     2	       mov al,colo
 4916  B7 00		     2	       mov bh,0
 4918  B9 021C		     2	       mov cx,540
 491B  BA 0078		     2	       mov dx,120
 491E  BE 0000		     2	       mov si,0         ;X
 4921  BF 000E		     2	       mov di,14    ;Y
 4924  BD FFF3		     2	       mov bp,1-14
 4927			     2	??021A: 
 4927  3B F7		     2		   cmp si,di
 4929  7C 06		     2	       jl ??021B
 492B  8D 1E 49B4 R	     2	       lea bx,??0220
 492F  FF E3		     2	       jmp bx
 4931			     2	??021B:
 4931  46		     2		   inc si
 4932			     2	??021C: 
 4932  83 FD 00		     2	       cmp bp,0
 4935  7D 09		     2	       jge ??021D
 4937  03 EE		     2	       add bp,si
 4939  03 EE		     2	       add bp,si
 493B  83 C5 01		     2	       add bp,1
 493E  EB 0C		     2	       jmp ??021E
 4940			     2	??021D: 
 4940  4F		     2		   dec di
 4941  03 EE		     2	       add bp,si
 4943  03 EE		     2	       add bp,si
 4945  2B EF		     2	       sub bp,di
 4947  2B EF		     2	       sub bp,di
 4949  83 C5 01		     2	       add bp,1
 494C			     2	??021E: 
 494C  B7 00		     2		   mov bh,0
 494E  B9 021C		     2	       mov cx,540
 4951  BA 0078		     2	       mov dx,120
 4954  03 CE		     2	       add cx,si
 4956  03 D7		     2	       add dx,di
 4958  CD 10		     2	       int 10h
 495A  B9 021C		     2	       mov cx,540
 495D  BA 0078		     2	       mov dx,120
 4960  2B CE		     2	       sub cx,si
 4962  03 D7		     2	       add dx,di
 4964  CD 10		     2	       int 10h
 4966  B9 021C		     2	       mov cx,540
 4969  BA 0078		     2	       mov dx,120
 496C  03 CE		     2	       add cx,si
 496E  2B D7		     2	       sub dx,di
 4970  CD 10		     2	       int 10h
 4972  B9 021C		     2	       mov cx,540
 4975  BA 0078		     2	       mov dx,120
 4978  2B CE		     2	       sub cx,si
 497A  2B D7		     2	       sub dx,di
 497C  CD 10		     2	       int 10h
 497E  B9 021C		     2	       mov cx,540
 4981  BA 0078		     2	       mov dx,120
 4984  03 CF		     2	       add cx,di
 4986  03 D6		     2	       add dx,si
 4988  CD 10		     2	       int 10h
 498A  B9 021C		     2	       mov cx,540
 498D  BA 0078		     2	       mov dx,120
 4990  2B CF		     2	       sub cx,di
 4992  03 D6		     2	       add dx,si
 4994  CD 10		     2	       int 10h
 4996  B9 021C		     2	       mov cx,540
 4999  BA 0078		     2	       mov dx,120
 499C  03 CF		     2	       add cx,di
 499E  2B D6		     2	       sub dx,si
 49A0  CD 10		     2	       int 10h
 49A2  B9 021C		     2	       mov cx,540
 49A5  BA 0078		     2	       mov dx,120
 49A8  2B CF		     2	       sub cx,di
 49AA  2B D6		     2	       sub dx,si
 49AC  CD 10		     2	       int 10h
 49AE			     2	??021F: 
 49AE  8D 1E 4927 R	     2		   lea bx,??021A
 49B2  FF E3		     2	       jmp bx
 49B4			     2	??0220:
 49B4  B4 0C		     2	       mov ah,0ch
 49B6  A0 0131 R	     2	       mov al,colo
 49B9  B7 00		     2	       mov bh,0
 49BB  B9 020E		     2	       mov cx,540-14
 49BE  BA 0078		     2	       mov dx,120
 49C1  CD 10		     2	       int 10h
 49C3  B9 022A		     2	       mov cx,540+14
 49C6  BA 0078		     2	       mov dx,120
 49C9  CD 10		     2	       int 10h
 49CB  B9 021C		     2	       mov cx,540
 49CE  BA 006A		     2	       mov dx,120-14
 49D1  CD 10		     2	       int 10h
 49D3  B9 021C		     2	       mov cx,540
 49D6  BA 0086		     2	       mov dx,120+14
 49D9  CD 10		     2	       int 10h
 49DB  5D		     2	       pop bp
 49DC  5F		     2	       pop di
 49DD  5E		     2	       pop si
 49DE  5A		     2	       pop dx
 49DF  59		     2	       pop cx
 49E0  5B		     2	       pop bx
 49E1  58		     2	       pop ax
 49E2  50		     2	       push ax
 49E3  53		     2	       push bx
 49E4  51		     2	       push cx
 49E5  52		     2	       push dx
 49E6  56		     2	       push si
 49E7  57		     2	       push di
 49E8  55		     2	       push bp
 49E9  B4 0C		     2	       mov ah,0ch
 49EB  A0 0131 R	     2	       mov al,colo
 49EE  B7 00		     2	       mov bh,0
 49F0  B9 021C		     2	       mov cx,540
 49F3  BA 0078		     2	       mov dx,120
 49F6  BE 0000		     2	       mov si,0         ;X
 49F9  BF 000D		     2	       mov di,13    ;Y
 49FC  BD FFF4		     2	       mov bp,1-13
 49FF			     2	??0221: 
 49FF  3B F7		     2		   cmp si,di
 4A01  7C 06		     2	       jl ??0222
 4A03  8D 1E 4A8C R	     2	       lea bx,??0227
 4A07  FF E3		     2	       jmp bx
 4A09			     2	??0222:
 4A09  46		     2		   inc si
 4A0A			     2	??0223: 
 4A0A  83 FD 00		     2	       cmp bp,0
 4A0D  7D 09		     2	       jge ??0224
 4A0F  03 EE		     2	       add bp,si
 4A11  03 EE		     2	       add bp,si
 4A13  83 C5 01		     2	       add bp,1
 4A16  EB 0C		     2	       jmp ??0225
 4A18			     2	??0224: 
 4A18  4F		     2		   dec di
 4A19  03 EE		     2	       add bp,si
 4A1B  03 EE		     2	       add bp,si
 4A1D  2B EF		     2	       sub bp,di
 4A1F  2B EF		     2	       sub bp,di
 4A21  83 C5 01		     2	       add bp,1
 4A24			     2	??0225: 
 4A24  B7 00		     2		   mov bh,0
 4A26  B9 021C		     2	       mov cx,540
 4A29  BA 0078		     2	       mov dx,120
 4A2C  03 CE		     2	       add cx,si
 4A2E  03 D7		     2	       add dx,di
 4A30  CD 10		     2	       int 10h
 4A32  B9 021C		     2	       mov cx,540
 4A35  BA 0078		     2	       mov dx,120
 4A38  2B CE		     2	       sub cx,si
 4A3A  03 D7		     2	       add dx,di
 4A3C  CD 10		     2	       int 10h
 4A3E  B9 021C		     2	       mov cx,540
 4A41  BA 0078		     2	       mov dx,120
 4A44  03 CE		     2	       add cx,si
 4A46  2B D7		     2	       sub dx,di
 4A48  CD 10		     2	       int 10h
 4A4A  B9 021C		     2	       mov cx,540
 4A4D  BA 0078		     2	       mov dx,120
 4A50  2B CE		     2	       sub cx,si
 4A52  2B D7		     2	       sub dx,di
 4A54  CD 10		     2	       int 10h
 4A56  B9 021C		     2	       mov cx,540
 4A59  BA 0078		     2	       mov dx,120
 4A5C  03 CF		     2	       add cx,di
 4A5E  03 D6		     2	       add dx,si
 4A60  CD 10		     2	       int 10h
 4A62  B9 021C		     2	       mov cx,540
 4A65  BA 0078		     2	       mov dx,120
 4A68  2B CF		     2	       sub cx,di
 4A6A  03 D6		     2	       add dx,si
 4A6C  CD 10		     2	       int 10h
 4A6E  B9 021C		     2	       mov cx,540
 4A71  BA 0078		     2	       mov dx,120
 4A74  03 CF		     2	       add cx,di
 4A76  2B D6		     2	       sub dx,si
 4A78  CD 10		     2	       int 10h
 4A7A  B9 021C		     2	       mov cx,540
 4A7D  BA 0078		     2	       mov dx,120
 4A80  2B CF		     2	       sub cx,di
 4A82  2B D6		     2	       sub dx,si
 4A84  CD 10		     2	       int 10h
 4A86			     2	??0226: 
 4A86  8D 1E 49FF R	     2		   lea bx,??0221
 4A8A  FF E3		     2	       jmp bx
 4A8C			     2	??0227:
 4A8C  B4 0C		     2	       mov ah,0ch
 4A8E  A0 0131 R	     2	       mov al,colo
 4A91  B7 00		     2	       mov bh,0
 4A93  B9 020F		     2	       mov cx,540-13
 4A96  BA 0078		     2	       mov dx,120
 4A99  CD 10		     2	       int 10h
 4A9B  B9 0229		     2	       mov cx,540+13
 4A9E  BA 0078		     2	       mov dx,120
 4AA1  CD 10		     2	       int 10h
 4AA3  B9 021C		     2	       mov cx,540
 4AA6  BA 006B		     2	       mov dx,120-13
 4AA9  CD 10		     2	       int 10h
 4AAB  B9 021C		     2	       mov cx,540
 4AAE  BA 0085		     2	       mov dx,120+13
 4AB1  CD 10		     2	       int 10h
 4AB3  5D		     2	       pop bp
 4AB4  5F		     2	       pop di
 4AB5  5E		     2	       pop si
 4AB6  5A		     2	       pop dx
 4AB7  59		     2	       pop cx
 4AB8  5B		     2	       pop bx
 4AB9  58		     2	       pop ax
 4ABA  50		     2	       push ax
 4ABB  53		     2	       push bx
 4ABC  51		     2	       push cx
 4ABD  52		     2	       push dx
 4ABE  56		     2	       push si
 4ABF  57		     2	       push di
 4AC0  55		     2	       push bp
 4AC1  B4 0C		     2	       mov ah,0ch
 4AC3  A0 0131 R	     2	       mov al,colo
 4AC6  B7 00		     2	       mov bh,0
 4AC8  B9 021C		     2	       mov cx,540
 4ACB  BA 0078		     2	       mov dx,120
 4ACE  BE 0000		     2	       mov si,0         ;X
 4AD1  BF 000C		     2	       mov di,12    ;Y
 4AD4  BD FFF5		     2	       mov bp,1-12
 4AD7			     2	??0228: 
 4AD7  3B F7		     2		   cmp si,di
 4AD9  7C 06		     2	       jl ??0229
 4ADB  8D 1E 4B64 R	     2	       lea bx,??022E
 4ADF  FF E3		     2	       jmp bx
 4AE1			     2	??0229:
 4AE1  46		     2		   inc si
 4AE2			     2	??022A: 
 4AE2  83 FD 00		     2	       cmp bp,0
 4AE5  7D 09		     2	       jge ??022B
 4AE7  03 EE		     2	       add bp,si
 4AE9  03 EE		     2	       add bp,si
 4AEB  83 C5 01		     2	       add bp,1
 4AEE  EB 0C		     2	       jmp ??022C
 4AF0			     2	??022B: 
 4AF0  4F		     2		   dec di
 4AF1  03 EE		     2	       add bp,si
 4AF3  03 EE		     2	       add bp,si
 4AF5  2B EF		     2	       sub bp,di
 4AF7  2B EF		     2	       sub bp,di
 4AF9  83 C5 01		     2	       add bp,1
 4AFC			     2	??022C: 
 4AFC  B7 00		     2		   mov bh,0
 4AFE  B9 021C		     2	       mov cx,540
 4B01  BA 0078		     2	       mov dx,120
 4B04  03 CE		     2	       add cx,si
 4B06  03 D7		     2	       add dx,di
 4B08  CD 10		     2	       int 10h
 4B0A  B9 021C		     2	       mov cx,540
 4B0D  BA 0078		     2	       mov dx,120
 4B10  2B CE		     2	       sub cx,si
 4B12  03 D7		     2	       add dx,di
 4B14  CD 10		     2	       int 10h
 4B16  B9 021C		     2	       mov cx,540
 4B19  BA 0078		     2	       mov dx,120
 4B1C  03 CE		     2	       add cx,si
 4B1E  2B D7		     2	       sub dx,di
 4B20  CD 10		     2	       int 10h
 4B22  B9 021C		     2	       mov cx,540
 4B25  BA 0078		     2	       mov dx,120
 4B28  2B CE		     2	       sub cx,si
 4B2A  2B D7		     2	       sub dx,di
 4B2C  CD 10		     2	       int 10h
 4B2E  B9 021C		     2	       mov cx,540
 4B31  BA 0078		     2	       mov dx,120
 4B34  03 CF		     2	       add cx,di
 4B36  03 D6		     2	       add dx,si
 4B38  CD 10		     2	       int 10h
 4B3A  B9 021C		     2	       mov cx,540
 4B3D  BA 0078		     2	       mov dx,120
 4B40  2B CF		     2	       sub cx,di
 4B42  03 D6		     2	       add dx,si
 4B44  CD 10		     2	       int 10h
 4B46  B9 021C		     2	       mov cx,540
 4B49  BA 0078		     2	       mov dx,120
 4B4C  03 CF		     2	       add cx,di
 4B4E  2B D6		     2	       sub dx,si
 4B50  CD 10		     2	       int 10h
 4B52  B9 021C		     2	       mov cx,540
 4B55  BA 0078		     2	       mov dx,120
 4B58  2B CF		     2	       sub cx,di
 4B5A  2B D6		     2	       sub dx,si
 4B5C  CD 10		     2	       int 10h
 4B5E			     2	??022D: 
 4B5E  8D 1E 4AD7 R	     2		   lea bx,??0228
 4B62  FF E3		     2	       jmp bx
 4B64			     2	??022E:
 4B64  B4 0C		     2	       mov ah,0ch
 4B66  A0 0131 R	     2	       mov al,colo
 4B69  B7 00		     2	       mov bh,0
 4B6B  B9 0210		     2	       mov cx,540-12
 4B6E  BA 0078		     2	       mov dx,120
 4B71  CD 10		     2	       int 10h
 4B73  B9 0228		     2	       mov cx,540+12
 4B76  BA 0078		     2	       mov dx,120
 4B79  CD 10		     2	       int 10h
 4B7B  B9 021C		     2	       mov cx,540
 4B7E  BA 006C		     2	       mov dx,120-12
 4B81  CD 10		     2	       int 10h
 4B83  B9 021C		     2	       mov cx,540
 4B86  BA 0084		     2	       mov dx,120+12
 4B89  CD 10		     2	       int 10h
 4B8B  5D		     2	       pop bp
 4B8C  5F		     2	       pop di
 4B8D  5E		     2	       pop si
 4B8E  5A		     2	       pop dx
 4B8F  59		     2	       pop cx
 4B90  5B		     2	       pop bx
 4B91  58		     2	       pop ax
 4B92  50		     2	       push ax
 4B93  53		     2	       push bx
 4B94  51		     2	       push cx
 4B95  52		     2	       push dx
 4B96  56		     2	       push si
 4B97  57		     2	       push di
 4B98  55		     2	       push bp
 4B99  B4 0C		     2	       mov ah,0ch
 4B9B  A0 0131 R	     2	       mov al,colo
 4B9E  B7 00		     2	       mov bh,0
 4BA0  B9 021C		     2	       mov cx,540
 4BA3  BA 0078		     2	       mov dx,120
 4BA6  BE 0000		     2	       mov si,0         ;X
 4BA9  BF 000B		     2	       mov di,11    ;Y
 4BAC  BD FFF6		     2	       mov bp,1-11
 4BAF			     2	??022F: 
 4BAF  3B F7		     2		   cmp si,di
 4BB1  7C 06		     2	       jl ??0230
 4BB3  8D 1E 4C3C R	     2	       lea bx,??0235
 4BB7  FF E3		     2	       jmp bx
 4BB9			     2	??0230:
 4BB9  46		     2		   inc si
 4BBA			     2	??0231: 
 4BBA  83 FD 00		     2	       cmp bp,0
 4BBD  7D 09		     2	       jge ??0232
 4BBF  03 EE		     2	       add bp,si
 4BC1  03 EE		     2	       add bp,si
 4BC3  83 C5 01		     2	       add bp,1
 4BC6  EB 0C		     2	       jmp ??0233
 4BC8			     2	??0232: 
 4BC8  4F		     2		   dec di
 4BC9  03 EE		     2	       add bp,si
 4BCB  03 EE		     2	       add bp,si
 4BCD  2B EF		     2	       sub bp,di
 4BCF  2B EF		     2	       sub bp,di
 4BD1  83 C5 01		     2	       add bp,1
 4BD4			     2	??0233: 
 4BD4  B7 00		     2		   mov bh,0
 4BD6  B9 021C		     2	       mov cx,540
 4BD9  BA 0078		     2	       mov dx,120
 4BDC  03 CE		     2	       add cx,si
 4BDE  03 D7		     2	       add dx,di
 4BE0  CD 10		     2	       int 10h
 4BE2  B9 021C		     2	       mov cx,540
 4BE5  BA 0078		     2	       mov dx,120
 4BE8  2B CE		     2	       sub cx,si
 4BEA  03 D7		     2	       add dx,di
 4BEC  CD 10		     2	       int 10h
 4BEE  B9 021C		     2	       mov cx,540
 4BF1  BA 0078		     2	       mov dx,120
 4BF4  03 CE		     2	       add cx,si
 4BF6  2B D7		     2	       sub dx,di
 4BF8  CD 10		     2	       int 10h
 4BFA  B9 021C		     2	       mov cx,540
 4BFD  BA 0078		     2	       mov dx,120
 4C00  2B CE		     2	       sub cx,si
 4C02  2B D7		     2	       sub dx,di
 4C04  CD 10		     2	       int 10h
 4C06  B9 021C		     2	       mov cx,540
 4C09  BA 0078		     2	       mov dx,120
 4C0C  03 CF		     2	       add cx,di
 4C0E  03 D6		     2	       add dx,si
 4C10  CD 10		     2	       int 10h
 4C12  B9 021C		     2	       mov cx,540
 4C15  BA 0078		     2	       mov dx,120
 4C18  2B CF		     2	       sub cx,di
 4C1A  03 D6		     2	       add dx,si
 4C1C  CD 10		     2	       int 10h
 4C1E  B9 021C		     2	       mov cx,540
 4C21  BA 0078		     2	       mov dx,120
 4C24  03 CF		     2	       add cx,di
 4C26  2B D6		     2	       sub dx,si
 4C28  CD 10		     2	       int 10h
 4C2A  B9 021C		     2	       mov cx,540
 4C2D  BA 0078		     2	       mov dx,120
 4C30  2B CF		     2	       sub cx,di
 4C32  2B D6		     2	       sub dx,si
 4C34  CD 10		     2	       int 10h
 4C36			     2	??0234: 
 4C36  8D 1E 4BAF R	     2		   lea bx,??022F
 4C3A  FF E3		     2	       jmp bx
 4C3C			     2	??0235:
 4C3C  B4 0C		     2	       mov ah,0ch
 4C3E  A0 0131 R	     2	       mov al,colo
 4C41  B7 00		     2	       mov bh,0
 4C43  B9 0211		     2	       mov cx,540-11
 4C46  BA 0078		     2	       mov dx,120
 4C49  CD 10		     2	       int 10h
 4C4B  B9 0227		     2	       mov cx,540+11
 4C4E  BA 0078		     2	       mov dx,120
 4C51  CD 10		     2	       int 10h
 4C53  B9 021C		     2	       mov cx,540
 4C56  BA 006D		     2	       mov dx,120-11
 4C59  CD 10		     2	       int 10h
 4C5B  B9 021C		     2	       mov cx,540
 4C5E  BA 0083		     2	       mov dx,120+11
 4C61  CD 10		     2	       int 10h
 4C63  5D		     2	       pop bp
 4C64  5F		     2	       pop di
 4C65  5E		     2	       pop si
 4C66  5A		     2	       pop dx
 4C67  59		     2	       pop cx
 4C68  5B		     2	       pop bx
 4C69  58		     2	       pop ax
 4C6A  50		     2	       push ax
 4C6B  53		     2	       push bx
 4C6C  51		     2	       push cx
 4C6D  52		     2	       push dx
 4C6E  56		     2	       push si
 4C6F  57		     2	       push di
 4C70  55		     2	       push bp
 4C71  B4 0C		     2	       mov ah,0ch
 4C73  A0 0131 R	     2	       mov al,colo
 4C76  B7 00		     2	       mov bh,0
 4C78  B9 021C		     2	       mov cx,540
 4C7B  BA 0078		     2	       mov dx,120
 4C7E  BE 0000		     2	       mov si,0         ;X
 4C81  BF 000A		     2	       mov di,10    ;Y
 4C84  BD FFF7		     2	       mov bp,1-10
 4C87			     2	??0236: 
 4C87  3B F7		     2		   cmp si,di
 4C89  7C 06		     2	       jl ??0237
 4C8B  8D 1E 4D14 R	     2	       lea bx,??023C
 4C8F  FF E3		     2	       jmp bx
 4C91			     2	??0237:
 4C91  46		     2		   inc si
 4C92			     2	??0238: 
 4C92  83 FD 00		     2	       cmp bp,0
 4C95  7D 09		     2	       jge ??0239
 4C97  03 EE		     2	       add bp,si
 4C99  03 EE		     2	       add bp,si
 4C9B  83 C5 01		     2	       add bp,1
 4C9E  EB 0C		     2	       jmp ??023A
 4CA0			     2	??0239: 
 4CA0  4F		     2		   dec di
 4CA1  03 EE		     2	       add bp,si
 4CA3  03 EE		     2	       add bp,si
 4CA5  2B EF		     2	       sub bp,di
 4CA7  2B EF		     2	       sub bp,di
 4CA9  83 C5 01		     2	       add bp,1
 4CAC			     2	??023A: 
 4CAC  B7 00		     2		   mov bh,0
 4CAE  B9 021C		     2	       mov cx,540
 4CB1  BA 0078		     2	       mov dx,120
 4CB4  03 CE		     2	       add cx,si
 4CB6  03 D7		     2	       add dx,di
 4CB8  CD 10		     2	       int 10h
 4CBA  B9 021C		     2	       mov cx,540
 4CBD  BA 0078		     2	       mov dx,120
 4CC0  2B CE		     2	       sub cx,si
 4CC2  03 D7		     2	       add dx,di
 4CC4  CD 10		     2	       int 10h
 4CC6  B9 021C		     2	       mov cx,540
 4CC9  BA 0078		     2	       mov dx,120
 4CCC  03 CE		     2	       add cx,si
 4CCE  2B D7		     2	       sub dx,di
 4CD0  CD 10		     2	       int 10h
 4CD2  B9 021C		     2	       mov cx,540
 4CD5  BA 0078		     2	       mov dx,120
 4CD8  2B CE		     2	       sub cx,si
 4CDA  2B D7		     2	       sub dx,di
 4CDC  CD 10		     2	       int 10h
 4CDE  B9 021C		     2	       mov cx,540
 4CE1  BA 0078		     2	       mov dx,120
 4CE4  03 CF		     2	       add cx,di
 4CE6  03 D6		     2	       add dx,si
 4CE8  CD 10		     2	       int 10h
 4CEA  B9 021C		     2	       mov cx,540
 4CED  BA 0078		     2	       mov dx,120
 4CF0  2B CF		     2	       sub cx,di
 4CF2  03 D6		     2	       add dx,si
 4CF4  CD 10		     2	       int 10h
 4CF6  B9 021C		     2	       mov cx,540
 4CF9  BA 0078		     2	       mov dx,120
 4CFC  03 CF		     2	       add cx,di
 4CFE  2B D6		     2	       sub dx,si
 4D00  CD 10		     2	       int 10h
 4D02  B9 021C		     2	       mov cx,540
 4D05  BA 0078		     2	       mov dx,120
 4D08  2B CF		     2	       sub cx,di
 4D0A  2B D6		     2	       sub dx,si
 4D0C  CD 10		     2	       int 10h
 4D0E			     2	??023B: 
 4D0E  8D 1E 4C87 R	     2		   lea bx,??0236
 4D12  FF E3		     2	       jmp bx
 4D14			     2	??023C:
 4D14  B4 0C		     2	       mov ah,0ch
 4D16  A0 0131 R	     2	       mov al,colo
 4D19  B7 00		     2	       mov bh,0
 4D1B  B9 0212		     2	       mov cx,540-10
 4D1E  BA 0078		     2	       mov dx,120
 4D21  CD 10		     2	       int 10h
 4D23  B9 0226		     2	       mov cx,540+10
 4D26  BA 0078		     2	       mov dx,120
 4D29  CD 10		     2	       int 10h
 4D2B  B9 021C		     2	       mov cx,540
 4D2E  BA 006E		     2	       mov dx,120-10
 4D31  CD 10		     2	       int 10h
 4D33  B9 021C		     2	       mov cx,540
 4D36  BA 0082		     2	       mov dx,120+10
 4D39  CD 10		     2	       int 10h
 4D3B  5D		     2	       pop bp
 4D3C  5F		     2	       pop di
 4D3D  5E		     2	       pop si
 4D3E  5A		     2	       pop dx
 4D3F  59		     2	       pop cx
 4D40  5B		     2	       pop bx
 4D41  58		     2	       pop ax
 4D42  50		     2	       push ax
 4D43  53		     2	       push bx
 4D44  51		     2	       push cx
 4D45  52		     2	       push dx
 4D46  56		     2	       push si
 4D47  57		     2	       push di
 4D48  55		     2	       push bp
 4D49  B4 0C		     2	       mov ah,0ch
 4D4B  A0 0131 R	     2	       mov al,colo
 4D4E  B7 00		     2	       mov bh,0
 4D50  B9 021C		     2	       mov cx,540
 4D53  BA 0078		     2	       mov dx,120
 4D56  BE 0000		     2	       mov si,0         ;X
 4D59  BF 0009		     2	       mov di,09    ;Y
 4D5C  BD FFF8		     2	       mov bp,1-09
 4D5F			     2	??023D: 
 4D5F  3B F7		     2		   cmp si,di
 4D61  7C 06		     2	       jl ??023E
 4D63  8D 1E 4DEC R	     2	       lea bx,??0243
 4D67  FF E3		     2	       jmp bx
 4D69			     2	??023E:
 4D69  46		     2		   inc si
 4D6A			     2	??023F: 
 4D6A  83 FD 00		     2	       cmp bp,0
 4D6D  7D 09		     2	       jge ??0240
 4D6F  03 EE		     2	       add bp,si
 4D71  03 EE		     2	       add bp,si
 4D73  83 C5 01		     2	       add bp,1
 4D76  EB 0C		     2	       jmp ??0241
 4D78			     2	??0240: 
 4D78  4F		     2		   dec di
 4D79  03 EE		     2	       add bp,si
 4D7B  03 EE		     2	       add bp,si
 4D7D  2B EF		     2	       sub bp,di
 4D7F  2B EF		     2	       sub bp,di
 4D81  83 C5 01		     2	       add bp,1
 4D84			     2	??0241: 
 4D84  B7 00		     2		   mov bh,0
 4D86  B9 021C		     2	       mov cx,540
 4D89  BA 0078		     2	       mov dx,120
 4D8C  03 CE		     2	       add cx,si
 4D8E  03 D7		     2	       add dx,di
 4D90  CD 10		     2	       int 10h
 4D92  B9 021C		     2	       mov cx,540
 4D95  BA 0078		     2	       mov dx,120
 4D98  2B CE		     2	       sub cx,si
 4D9A  03 D7		     2	       add dx,di
 4D9C  CD 10		     2	       int 10h
 4D9E  B9 021C		     2	       mov cx,540
 4DA1  BA 0078		     2	       mov dx,120
 4DA4  03 CE		     2	       add cx,si
 4DA6  2B D7		     2	       sub dx,di
 4DA8  CD 10		     2	       int 10h
 4DAA  B9 021C		     2	       mov cx,540
 4DAD  BA 0078		     2	       mov dx,120
 4DB0  2B CE		     2	       sub cx,si
 4DB2  2B D7		     2	       sub dx,di
 4DB4  CD 10		     2	       int 10h
 4DB6  B9 021C		     2	       mov cx,540
 4DB9  BA 0078		     2	       mov dx,120
 4DBC  03 CF		     2	       add cx,di
 4DBE  03 D6		     2	       add dx,si
 4DC0  CD 10		     2	       int 10h
 4DC2  B9 021C		     2	       mov cx,540
 4DC5  BA 0078		     2	       mov dx,120
 4DC8  2B CF		     2	       sub cx,di
 4DCA  03 D6		     2	       add dx,si
 4DCC  CD 10		     2	       int 10h
 4DCE  B9 021C		     2	       mov cx,540
 4DD1  BA 0078		     2	       mov dx,120
 4DD4  03 CF		     2	       add cx,di
 4DD6  2B D6		     2	       sub dx,si
 4DD8  CD 10		     2	       int 10h
 4DDA  B9 021C		     2	       mov cx,540
 4DDD  BA 0078		     2	       mov dx,120
 4DE0  2B CF		     2	       sub cx,di
 4DE2  2B D6		     2	       sub dx,si
 4DE4  CD 10		     2	       int 10h
 4DE6			     2	??0242: 
 4DE6  8D 1E 4D5F R	     2		   lea bx,??023D
 4DEA  FF E3		     2	       jmp bx
 4DEC			     2	??0243:
 4DEC  B4 0C		     2	       mov ah,0ch
 4DEE  A0 0131 R	     2	       mov al,colo
 4DF1  B7 00		     2	       mov bh,0
 4DF3  B9 0213		     2	       mov cx,540-09
 4DF6  BA 0078		     2	       mov dx,120
 4DF9  CD 10		     2	       int 10h
 4DFB  B9 0225		     2	       mov cx,540+09
 4DFE  BA 0078		     2	       mov dx,120
 4E01  CD 10		     2	       int 10h
 4E03  B9 021C		     2	       mov cx,540
 4E06  BA 006F		     2	       mov dx,120-09
 4E09  CD 10		     2	       int 10h
 4E0B  B9 021C		     2	       mov cx,540
 4E0E  BA 0081		     2	       mov dx,120+09
 4E11  CD 10		     2	       int 10h
 4E13  5D		     2	       pop bp
 4E14  5F		     2	       pop di
 4E15  5E		     2	       pop si
 4E16  5A		     2	       pop dx
 4E17  59		     2	       pop cx
 4E18  5B		     2	       pop bx
 4E19  58		     2	       pop ax
 4E1A  50		     2	       push ax
 4E1B  53		     2	       push bx
 4E1C  51		     2	       push cx
 4E1D  52		     2	       push dx
 4E1E  56		     2	       push si
 4E1F  57		     2	       push di
 4E20  55		     2	       push bp
 4E21  B4 0C		     2	       mov ah,0ch
 4E23  A0 0131 R	     2	       mov al,colo
 4E26  B7 00		     2	       mov bh,0
 4E28  B9 021C		     2	       mov cx,540
 4E2B  BA 0078		     2	       mov dx,120
 4E2E  BE 0000		     2	       mov si,0         ;X
 4E31  BF 0008		     2	       mov di,08    ;Y
 4E34  BD FFF9		     2	       mov bp,1-08
 4E37			     2	??0244: 
 4E37  3B F7		     2		   cmp si,di
 4E39  7C 06		     2	       jl ??0245
 4E3B  8D 1E 4EC4 R	     2	       lea bx,??024A
 4E3F  FF E3		     2	       jmp bx
 4E41			     2	??0245:
 4E41  46		     2		   inc si
 4E42			     2	??0246: 
 4E42  83 FD 00		     2	       cmp bp,0
 4E45  7D 09		     2	       jge ??0247
 4E47  03 EE		     2	       add bp,si
 4E49  03 EE		     2	       add bp,si
 4E4B  83 C5 01		     2	       add bp,1
 4E4E  EB 0C		     2	       jmp ??0248
 4E50			     2	??0247: 
 4E50  4F		     2		   dec di
 4E51  03 EE		     2	       add bp,si
 4E53  03 EE		     2	       add bp,si
 4E55  2B EF		     2	       sub bp,di
 4E57  2B EF		     2	       sub bp,di
 4E59  83 C5 01		     2	       add bp,1
 4E5C			     2	??0248: 
 4E5C  B7 00		     2		   mov bh,0
 4E5E  B9 021C		     2	       mov cx,540
 4E61  BA 0078		     2	       mov dx,120
 4E64  03 CE		     2	       add cx,si
 4E66  03 D7		     2	       add dx,di
 4E68  CD 10		     2	       int 10h
 4E6A  B9 021C		     2	       mov cx,540
 4E6D  BA 0078		     2	       mov dx,120
 4E70  2B CE		     2	       sub cx,si
 4E72  03 D7		     2	       add dx,di
 4E74  CD 10		     2	       int 10h
 4E76  B9 021C		     2	       mov cx,540
 4E79  BA 0078		     2	       mov dx,120
 4E7C  03 CE		     2	       add cx,si
 4E7E  2B D7		     2	       sub dx,di
 4E80  CD 10		     2	       int 10h
 4E82  B9 021C		     2	       mov cx,540
 4E85  BA 0078		     2	       mov dx,120
 4E88  2B CE		     2	       sub cx,si
 4E8A  2B D7		     2	       sub dx,di
 4E8C  CD 10		     2	       int 10h
 4E8E  B9 021C		     2	       mov cx,540
 4E91  BA 0078		     2	       mov dx,120
 4E94  03 CF		     2	       add cx,di
 4E96  03 D6		     2	       add dx,si
 4E98  CD 10		     2	       int 10h
 4E9A  B9 021C		     2	       mov cx,540
 4E9D  BA 0078		     2	       mov dx,120
 4EA0  2B CF		     2	       sub cx,di
 4EA2  03 D6		     2	       add dx,si
 4EA4  CD 10		     2	       int 10h
 4EA6  B9 021C		     2	       mov cx,540
 4EA9  BA 0078		     2	       mov dx,120
 4EAC  03 CF		     2	       add cx,di
 4EAE  2B D6		     2	       sub dx,si
 4EB0  CD 10		     2	       int 10h
 4EB2  B9 021C		     2	       mov cx,540
 4EB5  BA 0078		     2	       mov dx,120
 4EB8  2B CF		     2	       sub cx,di
 4EBA  2B D6		     2	       sub dx,si
 4EBC  CD 10		     2	       int 10h
 4EBE			     2	??0249: 
 4EBE  8D 1E 4E37 R	     2		   lea bx,??0244
 4EC2  FF E3		     2	       jmp bx
 4EC4			     2	??024A:
 4EC4  B4 0C		     2	       mov ah,0ch
 4EC6  A0 0131 R	     2	       mov al,colo
 4EC9  B7 00		     2	       mov bh,0
 4ECB  B9 0214		     2	       mov cx,540-08
 4ECE  BA 0078		     2	       mov dx,120
 4ED1  CD 10		     2	       int 10h
 4ED3  B9 0224		     2	       mov cx,540+08
 4ED6  BA 0078		     2	       mov dx,120
 4ED9  CD 10		     2	       int 10h
 4EDB  B9 021C		     2	       mov cx,540
 4EDE  BA 0070		     2	       mov dx,120-08
 4EE1  CD 10		     2	       int 10h
 4EE3  B9 021C		     2	       mov cx,540
 4EE6  BA 0080		     2	       mov dx,120+08
 4EE9  CD 10		     2	       int 10h
 4EEB  5D		     2	       pop bp
 4EEC  5F		     2	       pop di
 4EED  5E		     2	       pop si
 4EEE  5A		     2	       pop dx
 4EEF  59		     2	       pop cx
 4EF0  5B		     2	       pop bx
 4EF1  58		     2	       pop ax
 4EF2  50		     2	       push ax
 4EF3  53		     2	       push bx
 4EF4  51		     2	       push cx
 4EF5  52		     2	       push dx
 4EF6  56		     2	       push si
 4EF7  57		     2	       push di
 4EF8  55		     2	       push bp
 4EF9  B4 0C		     2	       mov ah,0ch
 4EFB  A0 0131 R	     2	       mov al,colo
 4EFE  B7 00		     2	       mov bh,0
 4F00  B9 021C		     2	       mov cx,540
 4F03  BA 0078		     2	       mov dx,120
 4F06  BE 0000		     2	       mov si,0         ;X
 4F09  BF 0007		     2	       mov di,07    ;Y
 4F0C  BD FFFA		     2	       mov bp,1-07
 4F0F			     2	??024B: 
 4F0F  3B F7		     2		   cmp si,di
 4F11  7C 06		     2	       jl ??024C
 4F13  8D 1E 4F9C R	     2	       lea bx,??0251
 4F17  FF E3		     2	       jmp bx
 4F19			     2	??024C:
 4F19  46		     2		   inc si
 4F1A			     2	??024D: 
 4F1A  83 FD 00		     2	       cmp bp,0
 4F1D  7D 09		     2	       jge ??024E
 4F1F  03 EE		     2	       add bp,si
 4F21  03 EE		     2	       add bp,si
 4F23  83 C5 01		     2	       add bp,1
 4F26  EB 0C		     2	       jmp ??024F
 4F28			     2	??024E: 
 4F28  4F		     2		   dec di
 4F29  03 EE		     2	       add bp,si
 4F2B  03 EE		     2	       add bp,si
 4F2D  2B EF		     2	       sub bp,di
 4F2F  2B EF		     2	       sub bp,di
 4F31  83 C5 01		     2	       add bp,1
 4F34			     2	??024F: 
 4F34  B7 00		     2		   mov bh,0
 4F36  B9 021C		     2	       mov cx,540
 4F39  BA 0078		     2	       mov dx,120
 4F3C  03 CE		     2	       add cx,si
 4F3E  03 D7		     2	       add dx,di
 4F40  CD 10		     2	       int 10h
 4F42  B9 021C		     2	       mov cx,540
 4F45  BA 0078		     2	       mov dx,120
 4F48  2B CE		     2	       sub cx,si
 4F4A  03 D7		     2	       add dx,di
 4F4C  CD 10		     2	       int 10h
 4F4E  B9 021C		     2	       mov cx,540
 4F51  BA 0078		     2	       mov dx,120
 4F54  03 CE		     2	       add cx,si
 4F56  2B D7		     2	       sub dx,di
 4F58  CD 10		     2	       int 10h
 4F5A  B9 021C		     2	       mov cx,540
 4F5D  BA 0078		     2	       mov dx,120
 4F60  2B CE		     2	       sub cx,si
 4F62  2B D7		     2	       sub dx,di
 4F64  CD 10		     2	       int 10h
 4F66  B9 021C		     2	       mov cx,540
 4F69  BA 0078		     2	       mov dx,120
 4F6C  03 CF		     2	       add cx,di
 4F6E  03 D6		     2	       add dx,si
 4F70  CD 10		     2	       int 10h
 4F72  B9 021C		     2	       mov cx,540
 4F75  BA 0078		     2	       mov dx,120
 4F78  2B CF		     2	       sub cx,di
 4F7A  03 D6		     2	       add dx,si
 4F7C  CD 10		     2	       int 10h
 4F7E  B9 021C		     2	       mov cx,540
 4F81  BA 0078		     2	       mov dx,120
 4F84  03 CF		     2	       add cx,di
 4F86  2B D6		     2	       sub dx,si
 4F88  CD 10		     2	       int 10h
 4F8A  B9 021C		     2	       mov cx,540
 4F8D  BA 0078		     2	       mov dx,120
 4F90  2B CF		     2	       sub cx,di
 4F92  2B D6		     2	       sub dx,si
 4F94  CD 10		     2	       int 10h
 4F96			     2	??0250: 
 4F96  8D 1E 4F0F R	     2		   lea bx,??024B
 4F9A  FF E3		     2	       jmp bx
 4F9C			     2	??0251:
 4F9C  B4 0C		     2	       mov ah,0ch
 4F9E  A0 0131 R	     2	       mov al,colo
 4FA1  B7 00		     2	       mov bh,0
 4FA3  B9 0215		     2	       mov cx,540-07
 4FA6  BA 0078		     2	       mov dx,120
 4FA9  CD 10		     2	       int 10h
 4FAB  B9 0223		     2	       mov cx,540+07
 4FAE  BA 0078		     2	       mov dx,120
 4FB1  CD 10		     2	       int 10h
 4FB3  B9 021C		     2	       mov cx,540
 4FB6  BA 0071		     2	       mov dx,120-07
 4FB9  CD 10		     2	       int 10h
 4FBB  B9 021C		     2	       mov cx,540
 4FBE  BA 007F		     2	       mov dx,120+07
 4FC1  CD 10		     2	       int 10h
 4FC3  5D		     2	       pop bp
 4FC4  5F		     2	       pop di
 4FC5  5E		     2	       pop si
 4FC6  5A		     2	       pop dx
 4FC7  59		     2	       pop cx
 4FC8  5B		     2	       pop bx
 4FC9  58		     2	       pop ax
 4FCA  50		     2	       push ax
 4FCB  53		     2	       push bx
 4FCC  51		     2	       push cx
 4FCD  52		     2	       push dx
 4FCE  56		     2	       push si
 4FCF  57		     2	       push di
 4FD0  55		     2	       push bp
 4FD1  B4 0C		     2	       mov ah,0ch
 4FD3  A0 0131 R	     2	       mov al,colo
 4FD6  B7 00		     2	       mov bh,0
 4FD8  B9 021C		     2	       mov cx,540
 4FDB  BA 0078		     2	       mov dx,120
 4FDE  BE 0000		     2	       mov si,0         ;X
 4FE1  BF 0006		     2	       mov di,06    ;Y
 4FE4  BD FFFB		     2	       mov bp,1-06
 4FE7			     2	??0252: 
 4FE7  3B F7		     2		   cmp si,di
 4FE9  7C 06		     2	       jl ??0253
 4FEB  8D 1E 5074 R	     2	       lea bx,??0258
 4FEF  FF E3		     2	       jmp bx
 4FF1			     2	??0253:
 4FF1  46		     2		   inc si
 4FF2			     2	??0254: 
 4FF2  83 FD 00		     2	       cmp bp,0
 4FF5  7D 09		     2	       jge ??0255
 4FF7  03 EE		     2	       add bp,si
 4FF9  03 EE		     2	       add bp,si
 4FFB  83 C5 01		     2	       add bp,1
 4FFE  EB 0C		     2	       jmp ??0256
 5000			     2	??0255: 
 5000  4F		     2		   dec di
 5001  03 EE		     2	       add bp,si
 5003  03 EE		     2	       add bp,si
 5005  2B EF		     2	       sub bp,di
 5007  2B EF		     2	       sub bp,di
 5009  83 C5 01		     2	       add bp,1
 500C			     2	??0256: 
 500C  B7 00		     2		   mov bh,0
 500E  B9 021C		     2	       mov cx,540
 5011  BA 0078		     2	       mov dx,120
 5014  03 CE		     2	       add cx,si
 5016  03 D7		     2	       add dx,di
 5018  CD 10		     2	       int 10h
 501A  B9 021C		     2	       mov cx,540
 501D  BA 0078		     2	       mov dx,120
 5020  2B CE		     2	       sub cx,si
 5022  03 D7		     2	       add dx,di
 5024  CD 10		     2	       int 10h
 5026  B9 021C		     2	       mov cx,540
 5029  BA 0078		     2	       mov dx,120
 502C  03 CE		     2	       add cx,si
 502E  2B D7		     2	       sub dx,di
 5030  CD 10		     2	       int 10h
 5032  B9 021C		     2	       mov cx,540
 5035  BA 0078		     2	       mov dx,120
 5038  2B CE		     2	       sub cx,si
 503A  2B D7		     2	       sub dx,di
 503C  CD 10		     2	       int 10h
 503E  B9 021C		     2	       mov cx,540
 5041  BA 0078		     2	       mov dx,120
 5044  03 CF		     2	       add cx,di
 5046  03 D6		     2	       add dx,si
 5048  CD 10		     2	       int 10h
 504A  B9 021C		     2	       mov cx,540
 504D  BA 0078		     2	       mov dx,120
 5050  2B CF		     2	       sub cx,di
 5052  03 D6		     2	       add dx,si
 5054  CD 10		     2	       int 10h
 5056  B9 021C		     2	       mov cx,540
 5059  BA 0078		     2	       mov dx,120
 505C  03 CF		     2	       add cx,di
 505E  2B D6		     2	       sub dx,si
 5060  CD 10		     2	       int 10h
 5062  B9 021C		     2	       mov cx,540
 5065  BA 0078		     2	       mov dx,120
 5068  2B CF		     2	       sub cx,di
 506A  2B D6		     2	       sub dx,si
 506C  CD 10		     2	       int 10h
 506E			     2	??0257: 
 506E  8D 1E 4FE7 R	     2		   lea bx,??0252
 5072  FF E3		     2	       jmp bx
 5074			     2	??0258:
 5074  B4 0C		     2	       mov ah,0ch
 5076  A0 0131 R	     2	       mov al,colo
 5079  B7 00		     2	       mov bh,0
 507B  B9 0216		     2	       mov cx,540-06
 507E  BA 0078		     2	       mov dx,120
 5081  CD 10		     2	       int 10h
 5083  B9 0222		     2	       mov cx,540+06
 5086  BA 0078		     2	       mov dx,120
 5089  CD 10		     2	       int 10h
 508B  B9 021C		     2	       mov cx,540
 508E  BA 0072		     2	       mov dx,120-06
 5091  CD 10		     2	       int 10h
 5093  B9 021C		     2	       mov cx,540
 5096  BA 007E		     2	       mov dx,120+06
 5099  CD 10		     2	       int 10h
 509B  5D		     2	       pop bp
 509C  5F		     2	       pop di
 509D  5E		     2	       pop si
 509E  5A		     2	       pop dx
 509F  59		     2	       pop cx
 50A0  5B		     2	       pop bx
 50A1  58		     2	       pop ax
 50A2  50		     2	       push ax
 50A3  53		     2	       push bx
 50A4  51		     2	       push cx
 50A5  52		     2	       push dx
 50A6  56		     2	       push si
 50A7  57		     2	       push di
 50A8  55		     2	       push bp
 50A9  B4 0C		     2	       mov ah,0ch
 50AB  A0 0131 R	     2	       mov al,colo
 50AE  B7 00		     2	       mov bh,0
 50B0  B9 021C		     2	       mov cx,540
 50B3  BA 0078		     2	       mov dx,120
 50B6  BE 0000		     2	       mov si,0         ;X
 50B9  BF 0005		     2	       mov di,05    ;Y
 50BC  BD FFFC		     2	       mov bp,1-05
 50BF			     2	??0259: 
 50BF  3B F7		     2		   cmp si,di
 50C1  7C 06		     2	       jl ??025A
 50C3  8D 1E 514C R	     2	       lea bx,??025F
 50C7  FF E3		     2	       jmp bx
 50C9			     2	??025A:
 50C9  46		     2		   inc si
 50CA			     2	??025B: 
 50CA  83 FD 00		     2	       cmp bp,0
 50CD  7D 09		     2	       jge ??025C
 50CF  03 EE		     2	       add bp,si
 50D1  03 EE		     2	       add bp,si
 50D3  83 C5 01		     2	       add bp,1
 50D6  EB 0C		     2	       jmp ??025D
 50D8			     2	??025C: 
 50D8  4F		     2		   dec di
 50D9  03 EE		     2	       add bp,si
 50DB  03 EE		     2	       add bp,si
 50DD  2B EF		     2	       sub bp,di
 50DF  2B EF		     2	       sub bp,di
 50E1  83 C5 01		     2	       add bp,1
 50E4			     2	??025D: 
 50E4  B7 00		     2		   mov bh,0
 50E6  B9 021C		     2	       mov cx,540
 50E9  BA 0078		     2	       mov dx,120
 50EC  03 CE		     2	       add cx,si
 50EE  03 D7		     2	       add dx,di
 50F0  CD 10		     2	       int 10h
 50F2  B9 021C		     2	       mov cx,540
 50F5  BA 0078		     2	       mov dx,120
 50F8  2B CE		     2	       sub cx,si
 50FA  03 D7		     2	       add dx,di
 50FC  CD 10		     2	       int 10h
 50FE  B9 021C		     2	       mov cx,540
 5101  BA 0078		     2	       mov dx,120
 5104  03 CE		     2	       add cx,si
 5106  2B D7		     2	       sub dx,di
 5108  CD 10		     2	       int 10h
 510A  B9 021C		     2	       mov cx,540
 510D  BA 0078		     2	       mov dx,120
 5110  2B CE		     2	       sub cx,si
 5112  2B D7		     2	       sub dx,di
 5114  CD 10		     2	       int 10h
 5116  B9 021C		     2	       mov cx,540
 5119  BA 0078		     2	       mov dx,120
 511C  03 CF		     2	       add cx,di
 511E  03 D6		     2	       add dx,si
 5120  CD 10		     2	       int 10h
 5122  B9 021C		     2	       mov cx,540
 5125  BA 0078		     2	       mov dx,120
 5128  2B CF		     2	       sub cx,di
 512A  03 D6		     2	       add dx,si
 512C  CD 10		     2	       int 10h
 512E  B9 021C		     2	       mov cx,540
 5131  BA 0078		     2	       mov dx,120
 5134  03 CF		     2	       add cx,di
 5136  2B D6		     2	       sub dx,si
 5138  CD 10		     2	       int 10h
 513A  B9 021C		     2	       mov cx,540
 513D  BA 0078		     2	       mov dx,120
 5140  2B CF		     2	       sub cx,di
 5142  2B D6		     2	       sub dx,si
 5144  CD 10		     2	       int 10h
 5146			     2	??025E: 
 5146  8D 1E 50BF R	     2		   lea bx,??0259
 514A  FF E3		     2	       jmp bx
 514C			     2	??025F:
 514C  B4 0C		     2	       mov ah,0ch
 514E  A0 0131 R	     2	       mov al,colo
 5151  B7 00		     2	       mov bh,0
 5153  B9 0217		     2	       mov cx,540-05
 5156  BA 0078		     2	       mov dx,120
 5159  CD 10		     2	       int 10h
 515B  B9 0221		     2	       mov cx,540+05
 515E  BA 0078		     2	       mov dx,120
 5161  CD 10		     2	       int 10h
 5163  B9 021C		     2	       mov cx,540
 5166  BA 0073		     2	       mov dx,120-05
 5169  CD 10		     2	       int 10h
 516B  B9 021C		     2	       mov cx,540
 516E  BA 007D		     2	       mov dx,120+05
 5171  CD 10		     2	       int 10h
 5173  5D		     2	       pop bp
 5174  5F		     2	       pop di
 5175  5E		     2	       pop si
 5176  5A		     2	       pop dx
 5177  59		     2	       pop cx
 5178  5B		     2	       pop bx
 5179  58		     2	       pop ax
 517A  50		     2	       push ax
 517B  53		     2	       push bx
 517C  51		     2	       push cx
 517D  52		     2	       push dx
 517E  56		     2	       push si
 517F  57		     2	       push di
 5180  55		     2	       push bp
 5181  B4 0C		     2	       mov ah,0ch
 5183  A0 0131 R	     2	       mov al,colo
 5186  B7 00		     2	       mov bh,0
 5188  B9 021C		     2	       mov cx,540
 518B  BA 0078		     2	       mov dx,120
 518E  BE 0000		     2	       mov si,0         ;X
 5191  BF 0004		     2	       mov di,04    ;Y
 5194  BD FFFD		     2	       mov bp,1-04
 5197			     2	??0260: 
 5197  3B F7		     2		   cmp si,di
 5199  7C 06		     2	       jl ??0261
 519B  8D 1E 5224 R	     2	       lea bx,??0266
 519F  FF E3		     2	       jmp bx
 51A1			     2	??0261:
 51A1  46		     2		   inc si
 51A2			     2	??0262: 
 51A2  83 FD 00		     2	       cmp bp,0
 51A5  7D 09		     2	       jge ??0263
 51A7  03 EE		     2	       add bp,si
 51A9  03 EE		     2	       add bp,si
 51AB  83 C5 01		     2	       add bp,1
 51AE  EB 0C		     2	       jmp ??0264
 51B0			     2	??0263: 
 51B0  4F		     2		   dec di
 51B1  03 EE		     2	       add bp,si
 51B3  03 EE		     2	       add bp,si
 51B5  2B EF		     2	       sub bp,di
 51B7  2B EF		     2	       sub bp,di
 51B9  83 C5 01		     2	       add bp,1
 51BC			     2	??0264: 
 51BC  B7 00		     2		   mov bh,0
 51BE  B9 021C		     2	       mov cx,540
 51C1  BA 0078		     2	       mov dx,120
 51C4  03 CE		     2	       add cx,si
 51C6  03 D7		     2	       add dx,di
 51C8  CD 10		     2	       int 10h
 51CA  B9 021C		     2	       mov cx,540
 51CD  BA 0078		     2	       mov dx,120
 51D0  2B CE		     2	       sub cx,si
 51D2  03 D7		     2	       add dx,di
 51D4  CD 10		     2	       int 10h
 51D6  B9 021C		     2	       mov cx,540
 51D9  BA 0078		     2	       mov dx,120
 51DC  03 CE		     2	       add cx,si
 51DE  2B D7		     2	       sub dx,di
 51E0  CD 10		     2	       int 10h
 51E2  B9 021C		     2	       mov cx,540
 51E5  BA 0078		     2	       mov dx,120
 51E8  2B CE		     2	       sub cx,si
 51EA  2B D7		     2	       sub dx,di
 51EC  CD 10		     2	       int 10h
 51EE  B9 021C		     2	       mov cx,540
 51F1  BA 0078		     2	       mov dx,120
 51F4  03 CF		     2	       add cx,di
 51F6  03 D6		     2	       add dx,si
 51F8  CD 10		     2	       int 10h
 51FA  B9 021C		     2	       mov cx,540
 51FD  BA 0078		     2	       mov dx,120
 5200  2B CF		     2	       sub cx,di
 5202  03 D6		     2	       add dx,si
 5204  CD 10		     2	       int 10h
 5206  B9 021C		     2	       mov cx,540
 5209  BA 0078		     2	       mov dx,120
 520C  03 CF		     2	       add cx,di
 520E  2B D6		     2	       sub dx,si
 5210  CD 10		     2	       int 10h
 5212  B9 021C		     2	       mov cx,540
 5215  BA 0078		     2	       mov dx,120
 5218  2B CF		     2	       sub cx,di
 521A  2B D6		     2	       sub dx,si
 521C  CD 10		     2	       int 10h
 521E			     2	??0265: 
 521E  8D 1E 5197 R	     2		   lea bx,??0260
 5222  FF E3		     2	       jmp bx
 5224			     2	??0266:
 5224  B4 0C		     2	       mov ah,0ch
 5226  A0 0131 R	     2	       mov al,colo
 5229  B7 00		     2	       mov bh,0
 522B  B9 0218		     2	       mov cx,540-04
 522E  BA 0078		     2	       mov dx,120
 5231  CD 10		     2	       int 10h
 5233  B9 0220		     2	       mov cx,540+04
 5236  BA 0078		     2	       mov dx,120
 5239  CD 10		     2	       int 10h
 523B  B9 021C		     2	       mov cx,540
 523E  BA 0074		     2	       mov dx,120-04
 5241  CD 10		     2	       int 10h
 5243  B9 021C		     2	       mov cx,540
 5246  BA 007C		     2	       mov dx,120+04
 5249  CD 10		     2	       int 10h
 524B  5D		     2	       pop bp
 524C  5F		     2	       pop di
 524D  5E		     2	       pop si
 524E  5A		     2	       pop dx
 524F  59		     2	       pop cx
 5250  5B		     2	       pop bx
 5251  58		     2	       pop ax
 5252  50		     2	       push ax
 5253  53		     2	       push bx
 5254  51		     2	       push cx
 5255  52		     2	       push dx
 5256  56		     2	       push si
 5257  57		     2	       push di
 5258  55		     2	       push bp
 5259  B4 0C		     2	       mov ah,0ch
 525B  A0 0131 R	     2	       mov al,colo
 525E  B7 00		     2	       mov bh,0
 5260  B9 021C		     2	       mov cx,540
 5263  BA 0078		     2	       mov dx,120
 5266  BE 0000		     2	       mov si,0         ;X
 5269  BF 0003		     2	       mov di,03    ;Y
 526C  BD FFFE		     2	       mov bp,1-03
 526F			     2	??0267: 
 526F  3B F7		     2		   cmp si,di
 5271  7C 06		     2	       jl ??0268
 5273  8D 1E 52FC R	     2	       lea bx,??026D
 5277  FF E3		     2	       jmp bx
 5279			     2	??0268:
 5279  46		     2		   inc si
 527A			     2	??0269: 
 527A  83 FD 00		     2	       cmp bp,0
 527D  7D 09		     2	       jge ??026A
 527F  03 EE		     2	       add bp,si
 5281  03 EE		     2	       add bp,si
 5283  83 C5 01		     2	       add bp,1
 5286  EB 0C		     2	       jmp ??026B
 5288			     2	??026A: 
 5288  4F		     2		   dec di
 5289  03 EE		     2	       add bp,si
 528B  03 EE		     2	       add bp,si
 528D  2B EF		     2	       sub bp,di
 528F  2B EF		     2	       sub bp,di
 5291  83 C5 01		     2	       add bp,1
 5294			     2	??026B: 
 5294  B7 00		     2		   mov bh,0
 5296  B9 021C		     2	       mov cx,540
 5299  BA 0078		     2	       mov dx,120
 529C  03 CE		     2	       add cx,si
 529E  03 D7		     2	       add dx,di
 52A0  CD 10		     2	       int 10h
 52A2  B9 021C		     2	       mov cx,540
 52A5  BA 0078		     2	       mov dx,120
 52A8  2B CE		     2	       sub cx,si
 52AA  03 D7		     2	       add dx,di
 52AC  CD 10		     2	       int 10h
 52AE  B9 021C		     2	       mov cx,540
 52B1  BA 0078		     2	       mov dx,120
 52B4  03 CE		     2	       add cx,si
 52B6  2B D7		     2	       sub dx,di
 52B8  CD 10		     2	       int 10h
 52BA  B9 021C		     2	       mov cx,540
 52BD  BA 0078		     2	       mov dx,120
 52C0  2B CE		     2	       sub cx,si
 52C2  2B D7		     2	       sub dx,di
 52C4  CD 10		     2	       int 10h
 52C6  B9 021C		     2	       mov cx,540
 52C9  BA 0078		     2	       mov dx,120
 52CC  03 CF		     2	       add cx,di
 52CE  03 D6		     2	       add dx,si
 52D0  CD 10		     2	       int 10h
 52D2  B9 021C		     2	       mov cx,540
 52D5  BA 0078		     2	       mov dx,120
 52D8  2B CF		     2	       sub cx,di
 52DA  03 D6		     2	       add dx,si
 52DC  CD 10		     2	       int 10h
 52DE  B9 021C		     2	       mov cx,540
 52E1  BA 0078		     2	       mov dx,120
 52E4  03 CF		     2	       add cx,di
 52E6  2B D6		     2	       sub dx,si
 52E8  CD 10		     2	       int 10h
 52EA  B9 021C		     2	       mov cx,540
 52ED  BA 0078		     2	       mov dx,120
 52F0  2B CF		     2	       sub cx,di
 52F2  2B D6		     2	       sub dx,si
 52F4  CD 10		     2	       int 10h
 52F6			     2	??026C: 
 52F6  8D 1E 526F R	     2		   lea bx,??0267
 52FA  FF E3		     2	       jmp bx
 52FC			     2	??026D:
 52FC  B4 0C		     2	       mov ah,0ch
 52FE  A0 0131 R	     2	       mov al,colo
 5301  B7 00		     2	       mov bh,0
 5303  B9 0219		     2	       mov cx,540-03
 5306  BA 0078		     2	       mov dx,120
 5309  CD 10		     2	       int 10h
 530B  B9 021F		     2	       mov cx,540+03
 530E  BA 0078		     2	       mov dx,120
 5311  CD 10		     2	       int 10h
 5313  B9 021C		     2	       mov cx,540
 5316  BA 0075		     2	       mov dx,120-03
 5319  CD 10		     2	       int 10h
 531B  B9 021C		     2	       mov cx,540
 531E  BA 007B		     2	       mov dx,120+03
 5321  CD 10		     2	       int 10h
 5323  5D		     2	       pop bp
 5324  5F		     2	       pop di
 5325  5E		     2	       pop si
 5326  5A		     2	       pop dx
 5327  59		     2	       pop cx
 5328  5B		     2	       pop bx
 5329  58		     2	       pop ax
 532A  50		     2	       push ax
 532B  53		     2	       push bx
 532C  51		     2	       push cx
 532D  52		     2	       push dx
 532E  56		     2	       push si
 532F  57		     2	       push di
 5330  55		     2	       push bp
 5331  B4 0C		     2	       mov ah,0ch
 5333  A0 0131 R	     2	       mov al,colo
 5336  B7 00		     2	       mov bh,0
 5338  B9 021C		     2	       mov cx,540
 533B  BA 0078		     2	       mov dx,120
 533E  BE 0000		     2	       mov si,0         ;X
 5341  BF 0002		     2	       mov di,02    ;Y
 5344  BD FFFF		     2	       mov bp,1-02
 5347			     2	??026E: 
 5347  3B F7		     2		   cmp si,di
 5349  7C 06		     2	       jl ??026F
 534B  8D 1E 53D4 R	     2	       lea bx,??0274
 534F  FF E3		     2	       jmp bx
 5351			     2	??026F:
 5351  46		     2		   inc si
 5352			     2	??0270: 
 5352  83 FD 00		     2	       cmp bp,0
 5355  7D 09		     2	       jge ??0271
 5357  03 EE		     2	       add bp,si
 5359  03 EE		     2	       add bp,si
 535B  83 C5 01		     2	       add bp,1
 535E  EB 0C		     2	       jmp ??0272
 5360			     2	??0271: 
 5360  4F		     2		   dec di
 5361  03 EE		     2	       add bp,si
 5363  03 EE		     2	       add bp,si
 5365  2B EF		     2	       sub bp,di
 5367  2B EF		     2	       sub bp,di
 5369  83 C5 01		     2	       add bp,1
 536C			     2	??0272: 
 536C  B7 00		     2		   mov bh,0
 536E  B9 021C		     2	       mov cx,540
 5371  BA 0078		     2	       mov dx,120
 5374  03 CE		     2	       add cx,si
 5376  03 D7		     2	       add dx,di
 5378  CD 10		     2	       int 10h
 537A  B9 021C		     2	       mov cx,540
 537D  BA 0078		     2	       mov dx,120
 5380  2B CE		     2	       sub cx,si
 5382  03 D7		     2	       add dx,di
 5384  CD 10		     2	       int 10h
 5386  B9 021C		     2	       mov cx,540
 5389  BA 0078		     2	       mov dx,120
 538C  03 CE		     2	       add cx,si
 538E  2B D7		     2	       sub dx,di
 5390  CD 10		     2	       int 10h
 5392  B9 021C		     2	       mov cx,540
 5395  BA 0078		     2	       mov dx,120
 5398  2B CE		     2	       sub cx,si
 539A  2B D7		     2	       sub dx,di
 539C  CD 10		     2	       int 10h
 539E  B9 021C		     2	       mov cx,540
 53A1  BA 0078		     2	       mov dx,120
 53A4  03 CF		     2	       add cx,di
 53A6  03 D6		     2	       add dx,si
 53A8  CD 10		     2	       int 10h
 53AA  B9 021C		     2	       mov cx,540
 53AD  BA 0078		     2	       mov dx,120
 53B0  2B CF		     2	       sub cx,di
 53B2  03 D6		     2	       add dx,si
 53B4  CD 10		     2	       int 10h
 53B6  B9 021C		     2	       mov cx,540
 53B9  BA 0078		     2	       mov dx,120
 53BC  03 CF		     2	       add cx,di
 53BE  2B D6		     2	       sub dx,si
 53C0  CD 10		     2	       int 10h
 53C2  B9 021C		     2	       mov cx,540
 53C5  BA 0078		     2	       mov dx,120
 53C8  2B CF		     2	       sub cx,di
 53CA  2B D6		     2	       sub dx,si
 53CC  CD 10		     2	       int 10h
 53CE			     2	??0273: 
 53CE  8D 1E 5347 R	     2		   lea bx,??026E
 53D2  FF E3		     2	       jmp bx
 53D4			     2	??0274:
 53D4  B4 0C		     2	       mov ah,0ch
 53D6  A0 0131 R	     2	       mov al,colo
 53D9  B7 00		     2	       mov bh,0
 53DB  B9 021A		     2	       mov cx,540-02
 53DE  BA 0078		     2	       mov dx,120
 53E1  CD 10		     2	       int 10h
 53E3  B9 021E		     2	       mov cx,540+02
 53E6  BA 0078		     2	       mov dx,120
 53E9  CD 10		     2	       int 10h
 53EB  B9 021C		     2	       mov cx,540
 53EE  BA 0076		     2	       mov dx,120-02
 53F1  CD 10		     2	       int 10h
 53F3  B9 021C		     2	       mov cx,540
 53F6  BA 007A		     2	       mov dx,120+02
 53F9  CD 10		     2	       int 10h
 53FB  5D		     2	       pop bp
 53FC  5F		     2	       pop di
 53FD  5E		     2	       pop si
 53FE  5A		     2	       pop dx
 53FF  59		     2	       pop cx
 5400  5B		     2	       pop bx
 5401  58		     2	       pop ax
 5402  50		     2	       push ax
 5403  53		     2	       push bx
 5404  51		     2	       push cx
 5405  52		     2	       push dx
 5406  56		     2	       push si
 5407  57		     2	       push di
 5408  55		     2	       push bp
 5409  B4 0C		     2	       mov ah,0ch
 540B  A0 0131 R	     2	       mov al,colo
 540E  B7 00		     2	       mov bh,0
 5410  B9 021C		     2	       mov cx,540
 5413  BA 0078		     2	       mov dx,120
 5416  BE 0000		     2	       mov si,0         ;X
 5419  BF 0001		     2	       mov di,01    ;Y
 541C  BD 0000		     2	       mov bp,1-01
 541F			     2	??0275: 
 541F  3B F7		     2		   cmp si,di
 5421  7C 06		     2	       jl ??0276
 5423  8D 1E 54AC R	     2	       lea bx,??027B
 5427  FF E3		     2	       jmp bx
 5429			     2	??0276:
 5429  46		     2		   inc si
 542A			     2	??0277: 
 542A  83 FD 00		     2	       cmp bp,0
 542D  7D 09		     2	       jge ??0278
 542F  03 EE		     2	       add bp,si
 5431  03 EE		     2	       add bp,si
 5433  83 C5 01		     2	       add bp,1
 5436  EB 0C		     2	       jmp ??0279
 5438			     2	??0278: 
 5438  4F		     2		   dec di
 5439  03 EE		     2	       add bp,si
 543B  03 EE		     2	       add bp,si
 543D  2B EF		     2	       sub bp,di
 543F  2B EF		     2	       sub bp,di
 5441  83 C5 01		     2	       add bp,1
 5444			     2	??0279: 
 5444  B7 00		     2		   mov bh,0
 5446  B9 021C		     2	       mov cx,540
 5449  BA 0078		     2	       mov dx,120
 544C  03 CE		     2	       add cx,si
 544E  03 D7		     2	       add dx,di
 5450  CD 10		     2	       int 10h
 5452  B9 021C		     2	       mov cx,540
 5455  BA 0078		     2	       mov dx,120
 5458  2B CE		     2	       sub cx,si
 545A  03 D7		     2	       add dx,di
 545C  CD 10		     2	       int 10h
 545E  B9 021C		     2	       mov cx,540
 5461  BA 0078		     2	       mov dx,120
 5464  03 CE		     2	       add cx,si
 5466  2B D7		     2	       sub dx,di
 5468  CD 10		     2	       int 10h
 546A  B9 021C		     2	       mov cx,540
 546D  BA 0078		     2	       mov dx,120
 5470  2B CE		     2	       sub cx,si
 5472  2B D7		     2	       sub dx,di
 5474  CD 10		     2	       int 10h
 5476  B9 021C		     2	       mov cx,540
 5479  BA 0078		     2	       mov dx,120
 547C  03 CF		     2	       add cx,di
 547E  03 D6		     2	       add dx,si
 5480  CD 10		     2	       int 10h
 5482  B9 021C		     2	       mov cx,540
 5485  BA 0078		     2	       mov dx,120
 5488  2B CF		     2	       sub cx,di
 548A  03 D6		     2	       add dx,si
 548C  CD 10		     2	       int 10h
 548E  B9 021C		     2	       mov cx,540
 5491  BA 0078		     2	       mov dx,120
 5494  03 CF		     2	       add cx,di
 5496  2B D6		     2	       sub dx,si
 5498  CD 10		     2	       int 10h
 549A  B9 021C		     2	       mov cx,540
 549D  BA 0078		     2	       mov dx,120
 54A0  2B CF		     2	       sub cx,di
 54A2  2B D6		     2	       sub dx,si
 54A4  CD 10		     2	       int 10h
 54A6			     2	??027A: 
 54A6  8D 1E 541F R	     2		   lea bx,??0275
 54AA  FF E3		     2	       jmp bx
 54AC			     2	??027B:
 54AC  B4 0C		     2	       mov ah,0ch
 54AE  A0 0131 R	     2	       mov al,colo
 54B1  B7 00		     2	       mov bh,0
 54B3  B9 021B		     2	       mov cx,540-01
 54B6  BA 0078		     2	       mov dx,120
 54B9  CD 10		     2	       int 10h
 54BB  B9 021D		     2	       mov cx,540+01
 54BE  BA 0078		     2	       mov dx,120
 54C1  CD 10		     2	       int 10h
 54C3  B9 021C		     2	       mov cx,540
 54C6  BA 0077		     2	       mov dx,120-01
 54C9  CD 10		     2	       int 10h
 54CB  B9 021C		     2	       mov cx,540
 54CE  BA 0079		     2	       mov dx,120+01
 54D1  CD 10		     2	       int 10h
 54D3  5D		     2	       pop bp
 54D4  5F		     2	       pop di
 54D5  5E		     2	       pop si
 54D6  5A		     2	       pop dx
 54D7  59		     2	       pop cx
 54D8  5B		     2	       pop bx
 54D9  58		     2	       pop ax
 54DA  80 3E 0130 R 02			cmp state,2
 54DF  74 03				jz comai
 54E1  E9 1C1C				jmp people

 54E4				comai:
					
					GETNEXTPOINT
 54E4  50		     1		push ax
 54E5  53		     1		push bx
 54E6  51		     1		push cx
 54E7  52		     1		push dx
 54E8  C7 06 0141 R 0000     1		mov maxscore,0
 54EE  C7 06 0149 R 002D     1		mov tmpaicenx,45
 54F4  C7 06 014B R 002D     1		mov tmpaiceny,45
 54FA			     1	??027C:
 54FA  C7 06 0149 R 002D     1		mov tmpaicenx,45
 5500			     1	??027D:
 5500  50		     2		push ax
 5501  53		     2		push bx
 5502  51		     2		push cx
 5503  52		     2		push dx
 5504  A1 0149 R	     2		mov ax,tmpaicenx
 5507  83 E8 2D		     2		sub ax,45
 550A  2B D2		     2		sub dx,dx
 550C  BB 0032		     2		mov bx,50
 550F  F7 F3		     2		div bx
 5511  83 C0 04		     2		add ax,4
 5514  A3 0153 R	     2		mov colx,ax;第几列
 5517  A1 014B R	     2		mov ax,tmpaiceny
 551A  83 E8 2D		     2		sub ax,45
 551D  2B D2		     2		sub dx,dx
 551F  BB 0032		     2		mov bx,50
 5522  F7 F3		     2		div bx
 5524  83 C0 04		     2		add ax,4
 5527  A3 0151 R	     2		mov rowy,ax;第几行
 552A  A1 0151 R	     2		mov ax,rowy
 552D  BB 0011		     2		mov bx,17
 5530  F7 E3		     2		mul bx
 5532  03 06 0153 R	     2		add ax,colx
 5536  A3 0121 R	     2		mov pianyi,ax
 5539  2B C9		     2		sub cx,cx
 553B  BB 0030 R	     2		mov bx,offset map0
 553E  03 1E 0121 R	     2		add bx,pianyi
 5542  8A 0F		     2		mov cl,[bx]
 5544  80 F9 00		     2		cmp cl,0
 5547  74 07		     2		jz ??0281
 5549  C6 06 0120 R 00	     2		mov jud1,0
 554E  EB 05		     2		jmp ??0282
 5550			     2	??0281:
 5550  C6 06 0120 R 01	     2		mov jud1,1
 5555			     2	??0282:
 5555  5A		     2		pop dx
 5556  59		     2		pop cx
 5557  5B		     2		pop bx
 5558  58		     2		pop ax
 5559  80 3E 0120 R 01	     1		cmp jud1,1
 555E  74 03 E9 05AD	     1		jnz ??027F
 5563  50		     2		push ax
 5564  53		     2		push bx
 5565  51		     2		push cx
 5566  52		     2		push dx
 5567  2B C0		     2		sub ax,ax
 5569  50		     3		push ax
 556A  53		     3		push bx
 556B  51		     3		push cx
 556C  52		     3		push dx
 556D  A1 0149 R	     3		mov ax,tmpaicenx
 5570  83 E8 2D		     3		sub ax,45
 5573  2B D2		     3		sub dx,dx
 5575  BB 0032		     3		mov bx,50
 5578  F7 F3		     3		div bx
 557A  83 C0 04		     3		add ax,4
 557D  A3 0157 R	     3		mov jcolx,ax;第几列
 5580  A1 014B R	     3		mov ax,tmpaiceny
 5583  83 E8 2D		     3		sub ax,45
 5586  2B D2		     3		sub dx,dx
 5588  BB 0032		     3		mov bx,50
 558B  F7 F3		     3		div bx
 558D  83 C0 04		     3		add ax,4
 5590  A3 0155 R	     3		mov jrowy,ax;第几行
 5593  A1 0155 R	     3		mov ax,jrowy
 5596  BB 0011		     3		mov bx,17
 5599  F7 E3		     3		mul bx
 559B  03 06 0157 R	     3		add ax,jcolx
 559F  A3 0121 R	     3		mov pianyi,ax
 55A2  BB 0030 R	     3		mov bx,offset map0
 55A5  A1 0121 R	     3		mov ax,pianyi
 55A8  03 D8		     3		add bx,ax
 55AA  C6 06 0132 R 01	     3		mov qizinum,1
 55AF  8A 16 0132 R	     3		mov dl,qizinum
 55B3  B6 02		     3		mov dh,2
 55B5  53		     3		push bx
 55B6  B1 01		     3		mov cl,1
 55B8			     3	??029E:
 55B8  83 C3 01		     3		add bx,1
 55BB  8A 2F		     3		mov ch,[bx]
 55BD  38 F5		     3		cmp ch,dh
 55BF  75 0B		     3		jnz ??02A0
 55C1  80 C2 01		     3		add dl,1
 55C4  80 C1 01		     3		add cl,1
 55C7  80 F9 05		     3		cmp cl,5
 55CA  75 EC		     3		jnz ??029E
 55CC			     3	??02A0:
 55CC  5B		     3		pop bx
 55CD  B1 01		     3		mov cl,1
 55CF			     3	??029F:
 55CF  83 EB 01		     3		sub bx,1
 55D2  8A 2F		     3		mov ch,[bx]
 55D4  38 F5		     3		cmp ch,dh
 55D6  75 0B		     3		jnz ??02A1
 55D8  80 C2 01		     3		add dl,1
 55DB  80 C1 01		     3		add cl,1
 55DE  80 F9 05		     3		cmp cl,5
 55E1  75 EC		     3		jnz ??029F
 55E3			     3	??02A1:
 55E3  88 16 0140 R	     3		mov lianzigeshu,dl
 55E7  80 FA 05		     3		cmp dl,5
 55EA  73 02		     3		jae ??02A2
 55EC  EB 07		     3		jmp ??02A3
 55EE			     3	??02A2:
 55EE  C6 06 0123 R 01	     3		mov judg,1
 55F3  EB 05		     3		jmp ??02A4
 55F5			     3	??02A3:
 55F5  C6 06 0123 R 00	     3		mov judg,0
 55FA			     3	??02A4:
 55FA  5A		     3		pop dx
 55FB  59		     3		pop cx
 55FC  5B		     3		pop bx
 55FD  58		     3		pop ax
 55FE  8A 1E 0140 R	     2		mov bl,lianzigeshu
 5602  50		     3		push ax
 5603  53		     3		push bx
 5604  51		     3		push cx
 5605  52		     3		push dx
 5606  A1 0149 R	     3		mov ax,tmpaicenx
 5609  83 E8 2D		     3		sub ax,45
 560C  2B D2		     3		sub dx,dx
 560E  BB 0032		     3		mov bx,50
 5611  F7 F3		     3		div bx
 5613  83 C0 04		     3		add ax,4
 5616  A3 0157 R	     3		mov jcolx,ax;第几列
 5619  A1 014B R	     3		mov ax,tmpaiceny
 561C  83 E8 2D		     3		sub ax,45
 561F  2B D2		     3		sub dx,dx
 5621  BB 0032		     3		mov bx,50
 5624  F7 F3		     3		div bx
 5626  83 C0 04		     3		add ax,4
 5629  A3 0155 R	     3		mov jrowy,ax;第几行
 562C  A1 0155 R	     3		mov ax,jrowy
 562F  BB 0011		     3		mov bx,17
 5632  F7 E3		     3		mul bx
 5634  03 06 0157 R	     3		add ax,jcolx
 5638  A3 0121 R	     3		mov pianyi,ax
 563B  BB 0030 R	     3		mov bx,offset map0
 563E  A1 0121 R	     3		mov ax,pianyi
 5641  03 D8		     3		add bx,ax
 5643  C6 06 0132 R 01	     3		mov qizinum,1
 5648  8A 16 0132 R	     3		mov dl,qizinum
 564C  B6 02		     3		mov dh,2
 564E  53		     3		push bx
 564F  B1 01		     3		mov cl,1
 5651			     3	??02A5:
 5651  83 C3 11		     3		add bx,17
 5654  8A 2F		     3		mov ch,[bx]
 5656  38 F5		     3		cmp ch,dh
 5658  75 0B		     3		jnz ??02A7
 565A  80 C2 01		     3		add dl,1
 565D  80 C1 01		     3		add cl,1
 5660  80 F9 05		     3		cmp cl,5
 5663  75 EC		     3		jnz ??02A5
 5665			     3	??02A7:
 5665  5B		     3		pop bx
 5666  B1 01		     3		mov cl,1
 5668			     3	??02A6:
 5668  83 EB 11		     3		sub bx,17
 566B  8A 2F		     3		mov ch,[bx]
 566D  38 F5		     3		cmp ch,dh
 566F  75 0B		     3		jnz ??02A8
 5671  80 C2 01		     3		add dl,1
 5674  80 C1 01		     3		add cl,1
 5677  80 F9 05		     3		cmp cl,5
 567A  75 EC		     3		jnz ??02A6
 567C			     3	??02A8:
 567C  88 16 0140 R	     3		mov lianzigeshu,dl
 5680  80 FA 05		     3		cmp dl,5
 5683  73 02		     3		jae ??02A9
 5685  EB 07		     3		jmp ??02AA
 5687			     3	??02A9:
 5687  C6 06 0123 R 01	     3		mov judg,1
 568C  EB 05		     3		jmp ??02AB
 568E			     3	??02AA:
 568E  C6 06 0123 R 00	     3		mov judg,0
 5693			     3	??02AB:
 5693  5A		     3		pop dx
 5694  59		     3		pop cx
 5695  5B		     3		pop bx
 5696  58		     3		pop ax
 5697  38 1E 0140 R	     2		cmp lianzigeshu,bl
 569B  77 02		     2		ja ??0283
 569D  EB 04		     2		jmp ??0284
 569F			     2	??0283:
 569F  8A 1E 0140 R	     2		mov bl,lianzigeshu
 56A3			     2	??0284:
 56A3  50		     3		push ax
 56A4  53		     3		push bx
 56A5  51		     3		push cx
 56A6  52		     3		push dx
 56A7  A1 0149 R	     3		mov ax,tmpaicenx
 56AA  83 E8 2D		     3		sub ax,45
 56AD  2B D2		     3		sub dx,dx
 56AF  BB 0032		     3		mov bx,50
 56B2  F7 F3		     3		div bx
 56B4  83 C0 04		     3		add ax,4
 56B7  A3 0157 R	     3		mov jcolx,ax;第几列
 56BA  A1 014B R	     3		mov ax,tmpaiceny
 56BD  83 E8 2D		     3		sub ax,45
 56C0  2B D2		     3		sub dx,dx
 56C2  BB 0032		     3		mov bx,50
 56C5  F7 F3		     3		div bx
 56C7  83 C0 04		     3		add ax,4
 56CA  A3 0155 R	     3		mov jrowy,ax;第几行
 56CD  A1 0155 R	     3		mov ax,jrowy
 56D0  BB 0011		     3		mov bx,17
 56D3  F7 E3		     3		mul bx
 56D5  03 06 0157 R	     3		add ax,jcolx
 56D9  A3 0121 R	     3		mov pianyi,ax
 56DC  BB 0030 R	     3		mov bx,offset map0
 56DF  A1 0121 R	     3		mov ax,pianyi
 56E2  03 D8		     3		add bx,ax
 56E4  C6 06 0132 R 01	     3		mov qizinum,1
 56E9  8A 16 0132 R	     3		mov dl,qizinum
 56ED  B6 02		     3		mov dh,2
 56EF  53		     3		push bx
 56F0  B1 01		     3		mov cl,1
 56F2			     3	??02AC:
 56F2  83 C3 12		     3		add bx,18
 56F5  8A 2F		     3		mov ch,[bx]
 56F7  38 F5		     3		cmp ch,dh
 56F9  75 0B		     3		jnz ??02AE
 56FB  80 C2 01		     3		add dl,1
 56FE  80 C1 01		     3		add cl,1
 5701  80 F9 05		     3		cmp cl,5
 5704  75 EC		     3		jnz ??02AC
 5706			     3	??02AE:
 5706  5B		     3		pop bx
 5707  B1 01		     3		mov cl,1
 5709			     3	??02AD:
 5709  83 EB 12		     3		sub bx,18
 570C  8A 2F		     3		mov ch,[bx]
 570E  38 F5		     3		cmp ch,dh
 5710  75 0B		     3		jnz ??02AF
 5712  80 C2 01		     3		add dl,1
 5715  80 C1 01		     3		add cl,1
 5718  80 F9 05		     3		cmp cl,5
 571B  75 EC		     3		jnz ??02AD
 571D			     3	??02AF:
 571D  88 16 0140 R	     3		mov lianzigeshu,dl
 5721  80 FA 05		     3		cmp dl,5
 5724  73 02		     3		jae ??02B0
 5726  EB 07		     3		jmp ??02B1
 5728			     3	??02B0:
 5728  C6 06 0123 R 01	     3		mov judg,1
 572D  EB 05		     3		jmp ??02B2
 572F			     3	??02B1:
 572F  C6 06 0123 R 00	     3		mov judg,0
 5734			     3	??02B2:
 5734  5A		     3		pop dx
 5735  59		     3		pop cx
 5736  5B		     3		pop bx
 5737  58		     3		pop ax
 5738  38 1E 0140 R	     2		cmp lianzigeshu,bl
 573C  77 02		     2		ja ??0285
 573E  EB 04		     2		jmp ??0286
 5740			     2	??0285:
 5740  8A 1E 0140 R	     2		mov bl,lianzigeshu
 5744			     2	??0286:
 5744  50		     3		push ax
 5745  53		     3		push bx
 5746  51		     3		push cx
 5747  52		     3		push dx
 5748  A1 0149 R	     3		mov ax,tmpaicenx
 574B  83 E8 2D		     3		sub ax,45
 574E  2B D2		     3		sub dx,dx
 5750  BB 0032		     3		mov bx,50
 5753  F7 F3		     3		div bx
 5755  83 C0 04		     3		add ax,4
 5758  A3 0157 R	     3		mov jcolx,ax;第几列
 575B  A1 014B R	     3		mov ax,tmpaiceny
 575E  83 E8 2D		     3		sub ax,45
 5761  2B D2		     3		sub dx,dx
 5763  BB 0032		     3		mov bx,50
 5766  F7 F3		     3		div bx
 5768  83 C0 04		     3		add ax,4
 576B  A3 0155 R	     3		mov jrowy,ax;第几行
 576E  A1 0155 R	     3		mov ax,jrowy
 5771  BB 0011		     3		mov bx,17
 5774  F7 E3		     3		mul bx
 5776  03 06 0157 R	     3		add ax,jcolx
 577A  A3 0121 R	     3		mov pianyi,ax
 577D  BB 0030 R	     3		mov bx,offset map0
 5780  A1 0121 R	     3		mov ax,pianyi
 5783  03 D8		     3		add bx,ax
 5785  C6 06 0132 R 01	     3		mov qizinum,1
 578A  8A 16 0132 R	     3		mov dl,qizinum

 578E  B6 02		     3		mov dh,2
 5790  53		     3		push bx
 5791  B1 01		     3		mov cl,1
 5793			     3	??02B3:
 5793  83 C3 10		     3		add bx,16
 5796  8A 2F		     3		mov ch,[bx]
 5798  38 F5		     3		cmp ch,dh
 579A  75 0B		     3		jnz ??02B5
 579C  80 C2 01		     3		add dl,1
 579F  80 C1 01		     3		add cl,1
 57A2  80 F9 05		     3		cmp cl,5
 57A5  75 EC		     3		jnz ??02B3
 57A7			     3	??02B5:
 57A7  5B		     3		pop bx
 57A8  B1 01		     3		mov cl,1
 57AA			     3	??02B4:
 57AA  83 EB 10		     3		sub bx,16
 57AD  8A 2F		     3		mov ch,[bx]
 57AF  38 F5		     3		cmp ch,dh
 57B1  75 0B		     3		jnz ??02B6
 57B3  80 C2 01		     3		add dl,1
 57B6  80 C1 01		     3		add cl,1
 57B9  80 F9 05		     3		cmp cl,5
 57BC  75 EC		     3		jnz ??02B4
 57BE			     3	??02B6:
 57BE  88 16 0140 R	     3		mov lianzigeshu,dl
 57C2  80 FA 05		     3		cmp dl,5
 57C5  73 02		     3		jae ??02B7
 57C7  EB 07		     3		jmp ??02B8
 57C9			     3	??02B7:
 57C9  C6 06 0123 R 01	     3		mov judg,1
 57CE  EB 05		     3		jmp ??02B9
 57D0			     3	??02B8:
 57D0  C6 06 0123 R 00	     3		mov judg,0
 57D5			     3	??02B9:
 57D5  5A		     3		pop dx
 57D6  59		     3		pop cx
 57D7  5B		     3		pop bx
 57D8  58		     3		pop ax
 57D9  38 1E 0140 R	     2		cmp lianzigeshu,bl
 57DD  72 02		     2		jb ??029B
 57DF  EB 04		     2		jmp ??029C
 57E1			     2	??029B:
 57E1  88 1E 0140 R	     2		mov lianzigeshu,bl
 57E5			     2	??029C:	
 57E5  80 3E 0140 R 05	     2		cmp lianzigeshu,5
 57EA  73 1C		     2		jae ??0297
 57EC  80 3E 0140 R 04	     2		cmp lianzigeshu,4
 57F1  74 1A		     2		jz ??0287
 57F3  80 3E 0140 R 03	     2		cmp lianzigeshu,3
 57F8  74 18		     2		jz ??028B
 57FA  80 3E 0140 R 02	     2		cmp lianzigeshu,2
 57FF  74 16		     2		jz ??028F
 5801  80 3E 0140 R 01	     2		cmp lianzigeshu,1
 5806  74 14		     2		jz ??0293
 5808			     2	??0297:
 5808  05 01F4		     2		add ax,500
 580B  EB 12		     2		jmp ??029D
 580D			     2	??0287:
 580D  83 C0 64		     2		add ax,100
 5810  EB 0D		     2		jmp ??029D
 5812			     2	??028B:
 5812  83 C0 10		     2		add ax,16
 5815  EB 08		     2		jmp ??029D
 5817			     2	??028F:
 5817  83 C0 04		     2		add ax,4
 581A  EB 03		     2		jmp ??029D
 581C			     2	??0293:
 581C  83 C0 01		     2		add ax,1
 581F			     2	??029D:
 581F  83 C0 01		     2		add ax,1
 5822  A3 0143 R	     2		mov tempscore,ax
 5825  5A		     2		pop dx
 5826  59		     2		pop cx
 5827  5B		     2		pop bx
 5828  58		     2		pop ax
 5829  50		     2		push ax
 582A  53		     2		push bx
 582B  51		     2		push cx
 582C  52		     2		push dx
 582D  2B C0		     2		sub ax,ax
 582F  50		     3		push ax
 5830  53		     3		push bx
 5831  51		     3		push cx
 5832  52		     3		push dx
 5833  A1 0149 R	     3		mov ax,tmpaicenx
 5836  83 E8 2D		     3		sub ax,45
 5839  2B D2		     3		sub dx,dx
 583B  BB 0032		     3		mov bx,50
 583E  F7 F3		     3		div bx
 5840  83 C0 04		     3		add ax,4
 5843  A3 0157 R	     3		mov jcolx,ax;第几列
 5846  A1 014B R	     3		mov ax,tmpaiceny
 5849  83 E8 2D		     3		sub ax,45
 584C  2B D2		     3		sub dx,dx
 584E  BB 0032		     3		mov bx,50
 5851  F7 F3		     3		div bx
 5853  83 C0 04		     3		add ax,4
 5856  A3 0155 R	     3		mov jrowy,ax;第几行
 5859  A1 0155 R	     3		mov ax,jrowy
 585C  BB 0011		     3		mov bx,17
 585F  F7 E3		     3		mul bx
 5861  03 06 0157 R	     3		add ax,jcolx
 5865  A3 0121 R	     3		mov pianyi,ax
 5868  BB 0030 R	     3		mov bx,offset map0
 586B  A1 0121 R	     3		mov ax,pianyi
 586E  03 D8		     3		add bx,ax
 5870  C6 06 0132 R 01	     3		mov qizinum,1
 5875  8A 16 0132 R	     3		mov dl,qizinum
 5879  B6 01		     3		mov dh,1
 587B  53		     3		push bx
 587C  B1 01		     3		mov cl,1
 587E			     3	??02D9:
 587E  83 C3 01		     3		add bx,1
 5881  8A 2F		     3		mov ch,[bx]
 5883  38 F5		     3		cmp ch,dh
 5885  75 0B		     3		jnz ??02DB
 5887  80 C2 01		     3		add dl,1
 588A  80 C1 01		     3		add cl,1
 588D  80 F9 05		     3		cmp cl,5
 5890  75 EC		     3		jnz ??02D9
 5892			     3	??02DB:
 5892  5B		     3		pop bx
 5893  B1 01		     3		mov cl,1
 5895			     3	??02DA:
 5895  83 EB 01		     3		sub bx,1
 5898  8A 2F		     3		mov ch,[bx]
 589A  38 F5		     3		cmp ch,dh
 589C  75 0B		     3		jnz ??02DC
 589E  80 C2 01		     3		add dl,1
 58A1  80 C1 01		     3		add cl,1
 58A4  80 F9 05		     3		cmp cl,5
 58A7  75 EC		     3		jnz ??02DA
 58A9			     3	??02DC:
 58A9  88 16 0140 R	     3		mov lianzigeshu,dl
 58AD  80 FA 05		     3		cmp dl,5
 58B0  73 02		     3		jae ??02DD
 58B2  EB 07		     3		jmp ??02DE
 58B4			     3	??02DD:
 58B4  C6 06 0123 R 01	     3		mov judg,1
 58B9  EB 05		     3		jmp ??02DF
 58BB			     3	??02DE:
 58BB  C6 06 0123 R 00	     3		mov judg,0
 58C0			     3	??02DF:
 58C0  5A		     3		pop dx
 58C1  59		     3		pop cx
 58C2  5B		     3		pop bx
 58C3  58		     3		pop ax
 58C4  8A 1E 0140 R	     2		mov bl,lianzigeshu
 58C8  50		     3		push ax
 58C9  53		     3		push bx
 58CA  51		     3		push cx
 58CB  52		     3		push dx
 58CC  A1 0149 R	     3		mov ax,tmpaicenx
 58CF  83 E8 2D		     3		sub ax,45
 58D2  2B D2		     3		sub dx,dx
 58D4  BB 0032		     3		mov bx,50
 58D7  F7 F3		     3		div bx
 58D9  83 C0 04		     3		add ax,4
 58DC  A3 0157 R	     3		mov jcolx,ax;第几列
 58DF  A1 014B R	     3		mov ax,tmpaiceny
 58E2  83 E8 2D		     3		sub ax,45
 58E5  2B D2		     3		sub dx,dx
 58E7  BB 0032		     3		mov bx,50
 58EA  F7 F3		     3		div bx
 58EC  83 C0 04		     3		add ax,4
 58EF  A3 0155 R	     3		mov jrowy,ax;第几行
 58F2  A1 0155 R	     3		mov ax,jrowy
 58F5  BB 0011		     3		mov bx,17
 58F8  F7 E3		     3		mul bx
 58FA  03 06 0157 R	     3		add ax,jcolx
 58FE  A3 0121 R	     3		mov pianyi,ax
 5901  BB 0030 R	     3		mov bx,offset map0
 5904  A1 0121 R	     3		mov ax,pianyi
 5907  03 D8		     3		add bx,ax
 5909  C6 06 0132 R 01	     3		mov qizinum,1
 590E  8A 16 0132 R	     3		mov dl,qizinum
 5912  B6 01		     3		mov dh,1
 5914  53		     3		push bx
 5915  B1 01		     3		mov cl,1
 5917			     3	??02E0:
 5917  83 C3 11		     3		add bx,17
 591A  8A 2F		     3		mov ch,[bx]
 591C  38 F5		     3		cmp ch,dh
 591E  75 0B		     3		jnz ??02E2
 5920  80 C2 01		     3		add dl,1
 5923  80 C1 01		     3		add cl,1
 5926  80 F9 05		     3		cmp cl,5
 5929  75 EC		     3		jnz ??02E0
 592B			     3	??02E2:
 592B  5B		     3		pop bx
 592C  B1 01		     3		mov cl,1
 592E			     3	??02E1:
 592E  83 EB 11		     3		sub bx,17
 5931  8A 2F		     3		mov ch,[bx]
 5933  38 F5		     3		cmp ch,dh
 5935  75 0B		     3		jnz ??02E3
 5937  80 C2 01		     3		add dl,1
 593A  80 C1 01		     3		add cl,1
 593D  80 F9 05		     3		cmp cl,5
 5940  75 EC		     3		jnz ??02E1
 5942			     3	??02E3:
 5942  88 16 0140 R	     3		mov lianzigeshu,dl
 5946  80 FA 05		     3		cmp dl,5
 5949  73 02		     3		jae ??02E4
 594B  EB 07		     3		jmp ??02E5
 594D			     3	??02E4:
 594D  C6 06 0123 R 01	     3		mov judg,1
 5952  EB 05		     3		jmp ??02E6
 5954			     3	??02E5:
 5954  C6 06 0123 R 00	     3		mov judg,0
 5959			     3	??02E6:
 5959  5A		     3		pop dx
 595A  59		     3		pop cx
 595B  5B		     3		pop bx
 595C  58		     3		pop ax
 595D  38 1E 0140 R	     2		cmp lianzigeshu,bl
 5961  77 02		     2		ja ??02BA
 5963  EB 04		     2		jmp ??02BB
 5965			     2	??02BA:
 5965  8A 1E 0140 R	     2		mov bl,lianzigeshu
 5969			     2	??02BB:
 5969  50		     3		push ax
 596A  53		     3		push bx
 596B  51		     3		push cx
 596C  52		     3		push dx
 596D  A1 0149 R	     3		mov ax,tmpaicenx
 5970  83 E8 2D		     3		sub ax,45
 5973  2B D2		     3		sub dx,dx
 5975  BB 0032		     3		mov bx,50
 5978  F7 F3		     3		div bx
 597A  83 C0 04		     3		add ax,4
 597D  A3 0157 R	     3		mov jcolx,ax;第几列
 5980  A1 014B R	     3		mov ax,tmpaiceny
 5983  83 E8 2D		     3		sub ax,45
 5986  2B D2		     3		sub dx,dx
 5988  BB 0032		     3		mov bx,50
 598B  F7 F3		     3		div bx
 598D  83 C0 04		     3		add ax,4
 5990  A3 0155 R	     3		mov jrowy,ax;第几行
 5993  A1 0155 R	     3		mov ax,jrowy
 5996  BB 0011		     3		mov bx,17
 5999  F7 E3		     3		mul bx
 599B  03 06 0157 R	     3		add ax,jcolx
 599F  A3 0121 R	     3		mov pianyi,ax
 59A2  BB 0030 R	     3		mov bx,offset map0
 59A5  A1 0121 R	     3		mov ax,pianyi
 59A8  03 D8		     3		add bx,ax
 59AA  C6 06 0132 R 01	     3		mov qizinum,1
 59AF  8A 16 0132 R	     3		mov dl,qizinum
 59B3  B6 01		     3		mov dh,1
 59B5  53		     3		push bx
 59B6  B1 01		     3		mov cl,1
 59B8			     3	??02E7:
 59B8  83 C3 12		     3		add bx,18
 59BB  8A 2F		     3		mov ch,[bx]
 59BD  38 F5		     3		cmp ch,dh
 59BF  75 0B		     3		jnz ??02E9
 59C1  80 C2 01		     3		add dl,1
 59C4  80 C1 01		     3		add cl,1
 59C7  80 F9 05		     3		cmp cl,5
 59CA  75 EC		     3		jnz ??02E7
 59CC			     3	??02E9:
 59CC  5B		     3		pop bx
 59CD  B1 01		     3		mov cl,1
 59CF			     3	??02E8:
 59CF  83 EB 12		     3		sub bx,18
 59D2  8A 2F		     3		mov ch,[bx]
 59D4  38 F5		     3		cmp ch,dh
 59D6  75 0B		     3		jnz ??02EA
 59D8  80 C2 01		     3		add dl,1
 59DB  80 C1 01		     3		add cl,1
 59DE  80 F9 05		     3		cmp cl,5
 59E1  75 EC		     3		jnz ??02E8
 59E3			     3	??02EA:
 59E3  88 16 0140 R	     3		mov lianzigeshu,dl
 59E7  80 FA 05		     3		cmp dl,5
 59EA  73 02		     3		jae ??02EB
 59EC  EB 07		     3		jmp ??02EC
 59EE			     3	??02EB:
 59EE  C6 06 0123 R 01	     3		mov judg,1
 59F3  EB 05		     3		jmp ??02ED
 59F5			     3	??02EC:
 59F5  C6 06 0123 R 00	     3		mov judg,0
 59FA			     3	??02ED:
 59FA  5A		     3		pop dx
 59FB  59		     3		pop cx
 59FC  5B		     3		pop bx
 59FD  58		     3		pop ax
 59FE  38 1E 0140 R	     2		cmp lianzigeshu,bl
 5A02  77 02		     2		ja ??02BC
 5A04  EB 04		     2		jmp ??02BD
 5A06			     2	??02BC:
 5A06  8A 1E 0140 R	     2		mov bl,lianzigeshu
 5A0A			     2	??02BD:
 5A0A  50		     3		push ax
 5A0B  53		     3		push bx
 5A0C  51		     3		push cx
 5A0D  52		     3		push dx
 5A0E  A1 0149 R	     3		mov ax,tmpaicenx
 5A11  83 E8 2D		     3		sub ax,45
 5A14  2B D2		     3		sub dx,dx
 5A16  BB 0032		     3		mov bx,50
 5A19  F7 F3		     3		div bx
 5A1B  83 C0 04		     3		add ax,4
 5A1E  A3 0157 R	     3		mov jcolx,ax;第几列
 5A21  A1 014B R	     3		mov ax,tmpaiceny
 5A24  83 E8 2D		     3		sub ax,45
 5A27  2B D2		     3		sub dx,dx
 5A29  BB 0032		     3		mov bx,50
 5A2C  F7 F3		     3		div bx
 5A2E  83 C0 04		     3		add ax,4
 5A31  A3 0155 R	     3		mov jrowy,ax;第几行
 5A34  A1 0155 R	     3		mov ax,jrowy
 5A37  BB 0011		     3		mov bx,17
 5A3A  F7 E3		     3		mul bx
 5A3C  03 06 0157 R	     3		add ax,jcolx
 5A40  A3 0121 R	     3		mov pianyi,ax
 5A43  BB 0030 R	     3		mov bx,offset map0
 5A46  A1 0121 R	     3		mov ax,pianyi
 5A49  03 D8		     3		add bx,ax
 5A4B  C6 06 0132 R 01	     3		mov qizinum,1
 5A50  8A 16 0132 R	     3		mov dl,qizinum
 5A54  B6 01		     3		mov dh,1
 5A56  53		     3		push bx
 5A57  B1 01		     3		mov cl,1
 5A59			     3	??02EE:
 5A59  83 C3 10		     3		add bx,16
 5A5C  8A 2F		     3		mov ch,[bx]
 5A5E  38 F5		     3		cmp ch,dh
 5A60  75 0B		     3		jnz ??02F0
 5A62  80 C2 01		     3		add dl,1
 5A65  80 C1 01		     3		add cl,1
 5A68  80 F9 05		     3		cmp cl,5
 5A6B  75 EC		     3		jnz ??02EE
 5A6D			     3	??02F0:
 5A6D  5B		     3		pop bx
 5A6E  B1 01		     3		mov cl,1
 5A70			     3	??02EF:
 5A70  83 EB 10		     3		sub bx,16
 5A73  8A 2F		     3		mov ch,[bx]
 5A75  38 F5		     3		cmp ch,dh
 5A77  75 0B		     3		jnz ??02F1
 5A79  80 C2 01		     3		add dl,1
 5A7C  80 C1 01		     3		add cl,1
 5A7F  80 F9 05		     3		cmp cl,5
 5A82  75 EC		     3		jnz ??02EF
 5A84			     3	??02F1:
 5A84  88 16 0140 R	     3		mov lianzigeshu,dl
 5A88  80 FA 05		     3		cmp dl,5
 5A8B  73 02		     3		jae ??02F2
 5A8D  EB 07		     3		jmp ??02F3
 5A8F			     3	??02F2:
 5A8F  C6 06 0123 R 01	     3		mov judg,1
 5A94  EB 05		     3		jmp ??02F4
 5A96			     3	??02F3:
 5A96  C6 06 0123 R 00	     3		mov judg,0
 5A9B			     3	??02F4:
 5A9B  5A		     3		pop dx
 5A9C  59		     3		pop cx
 5A9D  5B		     3		pop bx
 5A9E  58		     3		pop ax
 5A9F  38 1E 0140 R	     2		cmp lianzigeshu,bl
 5AA3  72 02		     2		jb ??02CE
 5AA5  EB 04		     2		jmp ??02CF
 5AA7			     2	??02CE:
 5AA7  88 1E 0140 R	     2		mov lianzigeshu,bl
 5AAB			     2	??02CF:	
 5AAB  80 3E 0140 R 05	     2		cmp lianzigeshu,5
 5AB0  73 1C		     2		jae ??02D0
 5AB2  80 3E 0140 R 04	     2		cmp lianzigeshu,4
 5AB7  74 1A		     2		jz ??02BE
 5AB9  80 3E 0140 R 03	     2		cmp lianzigeshu,3
 5ABE  74 18		     2		jz ??02C2
 5AC0  80 3E 0140 R 02	     2		cmp lianzigeshu,2
 5AC5  74 16		     2		jz ??02C6
 5AC7  80 3E 0140 R 01	     2		cmp lianzigeshu,1
 5ACC  74 14		     2		jz ??02CA
 5ACE			     2	??02D0:
 5ACE  05 01F4		     2		add ax,500
 5AD1  EB 12		     2		jmp ??02D6
 5AD3			     2	??02BE:
 5AD3  83 C0 64		     2		add ax,100
 5AD6  EB 0D		     2		jmp ??02D6
 5AD8			     2	??02C2:
 5AD8  83 C0 10		     2		add ax,16
 5ADB  EB 08		     2		jmp ??02D6
 5ADD			     2	??02C6:
 5ADD  83 C0 04		     2		add ax,4
 5AE0  EB 03		     2		jmp ??02D6
 5AE2			     2	??02CA:
 5AE2  83 C0 01		     2		add ax,1
 5AE5			     2	??02D6:
 5AE5  8B 1E 0143 R	     2		mov bx,tempscore
 5AE9  3B C3		     2		cmp ax,bx
 5AEB  73 02		     2		jae ??02D7
 5AED  EB 03		     2		jmp ??02D8
 5AEF			     2	??02D7:
 5AEF  A3 0143 R	     2		mov tempscore,ax
 5AF2			     2	??02D8:
 5AF2  5A		     2		pop dx
 5AF3  59		     2		pop cx
 5AF4  5B		     2		pop bx
 5AF5  58		     2		pop ax
 5AF6  A1 0143 R	     1		mov ax,tempscore
 5AF9  3B 06 0141 R	     1		cmp ax,maxscore
 5AFD  77 02		     1		ja ??027E
 5AFF  EB 0F		     1		jmp ??027F	
 5B01			     1	??027E:
 5B01  A3 0141 R	     1		mov maxscore,ax
 5B04  A1 0149 R	     1		mov ax,tmpaicenx
 5B07  A3 0145 R	     1		mov aicenx,ax
 5B0A  A1 014B R	     1		mov ax,tmpaiceny
 5B0D  A3 0147 R	     1		mov aiceny,ax
 5B10			     1	??027F:
 5B10  83 06 0149 R 32	     1		add tmpaicenx,50
 5B15  81 3E 0149 R 01EF     1		cmp tmpaicenx,495
 5B1B  74 03		     1		jz ??0280
 5B1D  E9 F9E0		     1		jmp ??027D
 5B20			     1	??0280:
 5B20  83 06 014B R 32	     1		add tmpaiceny,50
 5B25  81 3E 014B R 01EF     1		cmp tmpaiceny,495
 5B2B  74 03 E9 F9CA	     1		jnz ??027C	
 5B30  5A		     1		pop dx
 5B31  59		     1		pop cx
 5B32  5B		     1		pop bx
 5B33  58		     1		pop ax
					
 5B34  83 3E 0145 R 00			cmp aicenx,0
 5B39  75 03 E9 45E2			jz exitgame
 5B3E  83 3E 0147 R 00			cmp aiceny,0
 5B43  75 03 E9 45D8			jz exitgame
					
					DRAWCIR aicenx,aiceny,colo
 5B48  50		     2	       push ax
 5B49  53		     2	       push bx
 5B4A  51		     2	       push cx
 5B4B  52		     2	       push dx
 5B4C  56		     2	       push si
 5B4D  57		     2	       push di
 5B4E  55		     2	       push bp
 5B4F  B4 0C		     2	       mov ah,0ch
 5B51  A0 0131 R	     2	       mov al,colo
 5B54  B7 00		     2	       mov bh,0
 5B56  8B 0E 0145 R	     2	       mov cx,aicenx
 5B5A  8B 16 0147 R	     2	       mov dx,aiceny
 5B5E  BE 0000		     2	       mov si,0         ;X
 5B61  BF 0014		     2	       mov di,20    ;Y
 5B64  BD FFED		     2	       mov bp,1-20
 5B67			     2	??02F5: 
 5B67  3B F7		     2		   cmp si,di
 5B69  7C 06		     2	       jl ??02F6
 5B6B  8D 1E 5C04 R	     2	       lea bx,??02FB
 5B6F  FF E3		     2	       jmp bx
 5B71			     2	??02F6:
 5B71  46		     2		   inc si
 5B72			     2	??02F7: 
 5B72  83 FD 00		     2	       cmp bp,0
 5B75  7D 09		     2	       jge ??02F8
 5B77  03 EE		     2	       add bp,si
 5B79  03 EE		     2	       add bp,si
 5B7B  83 C5 01		     2	       add bp,1
 5B7E  EB 0C		     2	       jmp ??02F9
 5B80			     2	??02F8: 
 5B80  4F		     2		   dec di
 5B81  03 EE		     2	       add bp,si
 5B83  03 EE		     2	       add bp,si
 5B85  2B EF		     2	       sub bp,di
 5B87  2B EF		     2	       sub bp,di
 5B89  83 C5 01		     2	       add bp,1
 5B8C			     2	??02F9: 
 5B8C  B7 00		     2		   mov bh,0
 5B8E  8B 0E 0145 R	     2	       mov cx,aicenx
 5B92  8B 16 0147 R	     2	       mov dx,aiceny
 5B96  03 CE		     2	       add cx,si
 5B98  03 D7		     2	       add dx,di
 5B9A  CD 10		     2	       int 10h
 5B9C  8B 0E 0145 R	     2	       mov cx,aicenx
 5BA0  8B 16 0147 R	     2	       mov dx,aiceny
 5BA4  2B CE		     2	       sub cx,si
 5BA6  03 D7		     2	       add dx,di
 5BA8  CD 10		     2	       int 10h
 5BAA  8B 0E 0145 R	     2	       mov cx,aicenx
 5BAE  8B 16 0147 R	     2	       mov dx,aiceny
 5BB2  03 CE		     2	       add cx,si
 5BB4  2B D7		     2	       sub dx,di
 5BB6  CD 10		     2	       int 10h
 5BB8  8B 0E 0145 R	     2	       mov cx,aicenx
 5BBC  8B 16 0147 R	     2	       mov dx,aiceny
 5BC0  2B CE		     2	       sub cx,si
 5BC2  2B D7		     2	       sub dx,di
 5BC4  CD 10		     2	       int 10h
 5BC6  8B 0E 0145 R	     2	       mov cx,aicenx
 5BCA  8B 16 0147 R	     2	       mov dx,aiceny
 5BCE  03 CF		     2	       add cx,di
 5BD0  03 D6		     2	       add dx,si
 5BD2  CD 10		     2	       int 10h
 5BD4  8B 0E 0145 R	     2	       mov cx,aicenx
 5BD8  8B 16 0147 R	     2	       mov dx,aiceny
 5BDC  2B CF		     2	       sub cx,di
 5BDE  03 D6		     2	       add dx,si
 5BE0  CD 10		     2	       int 10h
 5BE2  8B 0E 0145 R	     2	       mov cx,aicenx
 5BE6  8B 16 0147 R	     2	       mov dx,aiceny
 5BEA  03 CF		     2	       add cx,di
 5BEC  2B D6		     2	       sub dx,si
 5BEE  CD 10		     2	       int 10h
 5BF0  8B 0E 0145 R	     2	       mov cx,aicenx
 5BF4  8B 16 0147 R	     2	       mov dx,aiceny
 5BF8  2B CF		     2	       sub cx,di
 5BFA  2B D6		     2	       sub dx,si
 5BFC  CD 10		     2	       int 10h
 5BFE			     2	??02FA: 
 5BFE  8D 1E 5B67 R	     2		   lea bx,??02F5
 5C02  FF E3		     2	       jmp bx
 5C04			     2	??02FB:
 5C04  B4 0C		     2	       mov ah,0ch
 5C06  A0 0131 R	     2	       mov al,colo
 5C09  B7 00		     2	       mov bh,0
 5C0B  8B 0E 0131 R	     2	       mov cx,aicenx-20
 5C0F  8B 16 0147 R	     2	       mov dx,aiceny
 5C13  CD 10		     2	       int 10h
 5C15  8B 0E 0159 R	     2	       mov cx,aicenx+20
 5C19  8B 16 0147 R	     2	       mov dx,aiceny
 5C1D  CD 10		     2	       int 10h
 5C1F  8B 0E 0145 R	     2	       mov cx,aicenx
 5C23  8B 16 0133 R	     2	       mov dx,aiceny-20
 5C27  CD 10		     2	       int 10h
 5C29  8B 0E 0145 R	     2	       mov cx,aicenx
 5C2D  8B 16 015B R	     2	       mov dx,aiceny+20
 5C31  CD 10		     2	       int 10h
 5C33  5D		     2	       pop bp
 5C34  5F		     2	       pop di
 5C35  5E		     2	       pop si
 5C36  5A		     2	       pop dx
 5C37  59		     2	       pop cx
 5C38  5B		     2	       pop bx
 5C39  58		     2	       pop ax
 5C3A  50		     2	       push ax
 5C3B  53		     2	       push bx
 5C3C  51		     2	       push cx
 5C3D  52		     2	       push dx
 5C3E  56		     2	       push si
 5C3F  57		     2	       push di
 5C40  55		     2	       push bp
 5C41  B4 0C		     2	       mov ah,0ch
 5C43  A0 0131 R	     2	       mov al,colo
 5C46  B7 00		     2	       mov bh,0
 5C48  8B 0E 0145 R	     2	       mov cx,aicenx
 5C4C  8B 16 0147 R	     2	       mov dx,aiceny
 5C50  BE 0000		     2	       mov si,0         ;X
 5C53  BF 0013		     2	       mov di,19    ;Y
 5C56  BD FFEE		     2	       mov bp,1-19
 5C59			     2	??02FC: 
 5C59  3B F7		     2		   cmp si,di
 5C5B  7C 06		     2	       jl ??02FD
 5C5D  8D 1E 5CF6 R	     2	       lea bx,??0302
 5C61  FF E3		     2	       jmp bx
 5C63			     2	??02FD:
 5C63  46		     2		   inc si
 5C64			     2	??02FE: 
 5C64  83 FD 00		     2	       cmp bp,0
 5C67  7D 09		     2	       jge ??02FF
 5C69  03 EE		     2	       add bp,si
 5C6B  03 EE		     2	       add bp,si
 5C6D  83 C5 01		     2	       add bp,1
 5C70  EB 0C		     2	       jmp ??0300
 5C72			     2	??02FF: 
 5C72  4F		     2		   dec di
 5C73  03 EE		     2	       add bp,si
 5C75  03 EE		     2	       add bp,si
 5C77  2B EF		     2	       sub bp,di
 5C79  2B EF		     2	       sub bp,di
 5C7B  83 C5 01		     2	       add bp,1
 5C7E			     2	??0300: 
 5C7E  B7 00		     2		   mov bh,0
 5C80  8B 0E 0145 R	     2	       mov cx,aicenx
 5C84  8B 16 0147 R	     2	       mov dx,aiceny
 5C88  03 CE		     2	       add cx,si
 5C8A  03 D7		     2	       add dx,di
 5C8C  CD 10		     2	       int 10h
 5C8E  8B 0E 0145 R	     2	       mov cx,aicenx
 5C92  8B 16 0147 R	     2	       mov dx,aiceny
 5C96  2B CE		     2	       sub cx,si
 5C98  03 D7		     2	       add dx,di
 5C9A  CD 10		     2	       int 10h
 5C9C  8B 0E 0145 R	     2	       mov cx,aicenx
 5CA0  8B 16 0147 R	     2	       mov dx,aiceny
 5CA4  03 CE		     2	       add cx,si
 5CA6  2B D7		     2	       sub dx,di
 5CA8  CD 10		     2	       int 10h
 5CAA  8B 0E 0145 R	     2	       mov cx,aicenx
 5CAE  8B 16 0147 R	     2	       mov dx,aiceny
 5CB2  2B CE		     2	       sub cx,si
 5CB4  2B D7		     2	       sub dx,di
 5CB6  CD 10		     2	       int 10h
 5CB8  8B 0E 0145 R	     2	       mov cx,aicenx
 5CBC  8B 16 0147 R	     2	       mov dx,aiceny
 5CC0  03 CF		     2	       add cx,di
 5CC2  03 D6		     2	       add dx,si
 5CC4  CD 10		     2	       int 10h
 5CC6  8B 0E 0145 R	     2	       mov cx,aicenx
 5CCA  8B 16 0147 R	     2	       mov dx,aiceny
 5CCE  2B CF		     2	       sub cx,di
 5CD0  03 D6		     2	       add dx,si
 5CD2  CD 10		     2	       int 10h
 5CD4  8B 0E 0145 R	     2	       mov cx,aicenx
 5CD8  8B 16 0147 R	     2	       mov dx,aiceny
 5CDC  03 CF		     2	       add cx,di
 5CDE  2B D6		     2	       sub dx,si
 5CE0  CD 10		     2	       int 10h
 5CE2  8B 0E 0145 R	     2	       mov cx,aicenx
 5CE6  8B 16 0147 R	     2	       mov dx,aiceny
 5CEA  2B CF		     2	       sub cx,di
 5CEC  2B D6		     2	       sub dx,si
 5CEE  CD 10		     2	       int 10h
 5CF0			     2	??0301: 
 5CF0  8D 1E 5C59 R	     2		   lea bx,??02FC
 5CF4  FF E3		     2	       jmp bx
 5CF6			     2	??0302:
 5CF6  B4 0C		     2	       mov ah,0ch
 5CF8  A0 0131 R	     2	       mov al,colo
 5CFB  B7 00		     2	       mov bh,0
 5CFD  8B 0E 0132 R	     2	       mov cx,aicenx-19
 5D01  8B 16 0147 R	     2	       mov dx,aiceny
 5D05  CD 10		     2	       int 10h
 5D07  8B 0E 0158 R	     2	       mov cx,aicenx+19
 5D0B  8B 16 0147 R	     2	       mov dx,aiceny
 5D0F  CD 10		     2	       int 10h
 5D11  8B 0E 0145 R	     2	       mov cx,aicenx
 5D15  8B 16 0134 R	     2	       mov dx,aiceny-19
 5D19  CD 10		     2	       int 10h
 5D1B  8B 0E 0145 R	     2	       mov cx,aicenx
 5D1F  8B 16 015A R	     2	       mov dx,aiceny+19
 5D23  CD 10		     2	       int 10h
 5D25  5D		     2	       pop bp
 5D26  5F		     2	       pop di
 5D27  5E		     2	       pop si
 5D28  5A		     2	       pop dx
 5D29  59		     2	       pop cx
 5D2A  5B		     2	       pop bx
 5D2B  58		     2	       pop ax
 5D2C  50		     2	       push ax
 5D2D  53		     2	       push bx
 5D2E  51		     2	       push cx
 5D2F  52		     2	       push dx
 5D30  56		     2	       push si
 5D31  57		     2	       push di
 5D32  55		     2	       push bp
 5D33  B4 0C		     2	       mov ah,0ch
 5D35  A0 0131 R	     2	       mov al,colo
 5D38  B7 00		     2	       mov bh,0
 5D3A  8B 0E 0145 R	     2	       mov cx,aicenx
 5D3E  8B 16 0147 R	     2	       mov dx,aiceny
 5D42  BE 0000		     2	       mov si,0         ;X
 5D45  BF 0012		     2	       mov di,18    ;Y
 5D48  BD FFEF		     2	       mov bp,1-18
 5D4B			     2	??0303: 
 5D4B  3B F7		     2		   cmp si,di
 5D4D  7C 06		     2	       jl ??0304
 5D4F  8D 1E 5DE8 R	     2	       lea bx,??0309
 5D53  FF E3		     2	       jmp bx
 5D55			     2	??0304:
 5D55  46		     2		   inc si
 5D56			     2	??0305: 
 5D56  83 FD 00		     2	       cmp bp,0
 5D59  7D 09		     2	       jge ??0306
 5D5B  03 EE		     2	       add bp,si
 5D5D  03 EE		     2	       add bp,si
 5D5F  83 C5 01		     2	       add bp,1
 5D62  EB 0C		     2	       jmp ??0307
 5D64			     2	??0306: 
 5D64  4F		     2		   dec di
 5D65  03 EE		     2	       add bp,si
 5D67  03 EE		     2	       add bp,si
 5D69  2B EF		     2	       sub bp,di
 5D6B  2B EF		     2	       sub bp,di
 5D6D  83 C5 01		     2	       add bp,1
 5D70			     2	??0307: 
 5D70  B7 00		     2		   mov bh,0
 5D72  8B 0E 0145 R	     2	       mov cx,aicenx
 5D76  8B 16 0147 R	     2	       mov dx,aiceny
 5D7A  03 CE		     2	       add cx,si
 5D7C  03 D7		     2	       add dx,di
 5D7E  CD 10		     2	       int 10h
 5D80  8B 0E 0145 R	     2	       mov cx,aicenx
 5D84  8B 16 0147 R	     2	       mov dx,aiceny
 5D88  2B CE		     2	       sub cx,si
 5D8A  03 D7		     2	       add dx,di
 5D8C  CD 10		     2	       int 10h
 5D8E  8B 0E 0145 R	     2	       mov cx,aicenx
 5D92  8B 16 0147 R	     2	       mov dx,aiceny
 5D96  03 CE		     2	       add cx,si
 5D98  2B D7		     2	       sub dx,di
 5D9A  CD 10		     2	       int 10h
 5D9C  8B 0E 0145 R	     2	       mov cx,aicenx
 5DA0  8B 16 0147 R	     2	       mov dx,aiceny
 5DA4  2B CE		     2	       sub cx,si
 5DA6  2B D7		     2	       sub dx,di
 5DA8  CD 10		     2	       int 10h
 5DAA  8B 0E 0145 R	     2	       mov cx,aicenx
 5DAE  8B 16 0147 R	     2	       mov dx,aiceny
 5DB2  03 CF		     2	       add cx,di
 5DB4  03 D6		     2	       add dx,si
 5DB6  CD 10		     2	       int 10h
 5DB8  8B 0E 0145 R	     2	       mov cx,aicenx
 5DBC  8B 16 0147 R	     2	       mov dx,aiceny
 5DC0  2B CF		     2	       sub cx,di
 5DC2  03 D6		     2	       add dx,si
 5DC4  CD 10		     2	       int 10h
 5DC6  8B 0E 0145 R	     2	       mov cx,aicenx
 5DCA  8B 16 0147 R	     2	       mov dx,aiceny
 5DCE  03 CF		     2	       add cx,di
 5DD0  2B D6		     2	       sub dx,si
 5DD2  CD 10		     2	       int 10h
 5DD4  8B 0E 0145 R	     2	       mov cx,aicenx
 5DD8  8B 16 0147 R	     2	       mov dx,aiceny
 5DDC  2B CF		     2	       sub cx,di
 5DDE  2B D6		     2	       sub dx,si
 5DE0  CD 10		     2	       int 10h
 5DE2			     2	??0308: 
 5DE2  8D 1E 5D4B R	     2		   lea bx,??0303
 5DE6  FF E3		     2	       jmp bx
 5DE8			     2	??0309:
 5DE8  B4 0C		     2	       mov ah,0ch
 5DEA  A0 0131 R	     2	       mov al,colo
 5DED  B7 00		     2	       mov bh,0
 5DEF  8B 0E 0133 R	     2	       mov cx,aicenx-18
 5DF3  8B 16 0147 R	     2	       mov dx,aiceny
 5DF7  CD 10		     2	       int 10h
 5DF9  8B 0E 0157 R	     2	       mov cx,aicenx+18
 5DFD  8B 16 0147 R	     2	       mov dx,aiceny
 5E01  CD 10		     2	       int 10h
 5E03  8B 0E 0145 R	     2	       mov cx,aicenx
 5E07  8B 16 0135 R	     2	       mov dx,aiceny-18
 5E0B  CD 10		     2	       int 10h
 5E0D  8B 0E 0145 R	     2	       mov cx,aicenx
 5E11  8B 16 0159 R	     2	       mov dx,aiceny+18
 5E15  CD 10		     2	       int 10h
 5E17  5D		     2	       pop bp
 5E18  5F		     2	       pop di
 5E19  5E		     2	       pop si
 5E1A  5A		     2	       pop dx
 5E1B  59		     2	       pop cx
 5E1C  5B		     2	       pop bx
 5E1D  58		     2	       pop ax
 5E1E  50		     2	       push ax
 5E1F  53		     2	       push bx
 5E20  51		     2	       push cx
 5E21  52		     2	       push dx
 5E22  56		     2	       push si
 5E23  57		     2	       push di
 5E24  55		     2	       push bp
 5E25  B4 0C		     2	       mov ah,0ch
 5E27  A0 0131 R	     2	       mov al,colo
 5E2A  B7 00		     2	       mov bh,0
 5E2C  8B 0E 0145 R	     2	       mov cx,aicenx
 5E30  8B 16 0147 R	     2	       mov dx,aiceny
 5E34  BE 0000		     2	       mov si,0         ;X
 5E37  BF 0011		     2	       mov di,17    ;Y
 5E3A  BD FFF0		     2	       mov bp,1-17
 5E3D			     2	??030A: 
 5E3D  3B F7		     2		   cmp si,di
 5E3F  7C 06		     2	       jl ??030B
 5E41  8D 1E 5EDA R	     2	       lea bx,??0310
 5E45  FF E3		     2	       jmp bx
 5E47			     2	??030B:
 5E47  46		     2		   inc si
 5E48			     2	??030C: 
 5E48  83 FD 00		     2	       cmp bp,0
 5E4B  7D 09		     2	       jge ??030D
 5E4D  03 EE		     2	       add bp,si
 5E4F  03 EE		     2	       add bp,si
 5E51  83 C5 01		     2	       add bp,1
 5E54  EB 0C		     2	       jmp ??030E
 5E56			     2	??030D: 
 5E56  4F		     2		   dec di
 5E57  03 EE		     2	       add bp,si
 5E59  03 EE		     2	       add bp,si
 5E5B  2B EF		     2	       sub bp,di
 5E5D  2B EF		     2	       sub bp,di
 5E5F  83 C5 01		     2	       add bp,1
 5E62			     2	??030E: 
 5E62  B7 00		     2		   mov bh,0
 5E64  8B 0E 0145 R	     2	       mov cx,aicenx
 5E68  8B 16 0147 R	     2	       mov dx,aiceny
 5E6C  03 CE		     2	       add cx,si
 5E6E  03 D7		     2	       add dx,di
 5E70  CD 10		     2	       int 10h
 5E72  8B 0E 0145 R	     2	       mov cx,aicenx
 5E76  8B 16 0147 R	     2	       mov dx,aiceny
 5E7A  2B CE		     2	       sub cx,si
 5E7C  03 D7		     2	       add dx,di
 5E7E  CD 10		     2	       int 10h
 5E80  8B 0E 0145 R	     2	       mov cx,aicenx
 5E84  8B 16 0147 R	     2	       mov dx,aiceny
 5E88  03 CE		     2	       add cx,si
 5E8A  2B D7		     2	       sub dx,di
 5E8C  CD 10		     2	       int 10h
 5E8E  8B 0E 0145 R	     2	       mov cx,aicenx
 5E92  8B 16 0147 R	     2	       mov dx,aiceny
 5E96  2B CE		     2	       sub cx,si
 5E98  2B D7		     2	       sub dx,di
 5E9A  CD 10		     2	       int 10h
 5E9C  8B 0E 0145 R	     2	       mov cx,aicenx
 5EA0  8B 16 0147 R	     2	       mov dx,aiceny
 5EA4  03 CF		     2	       add cx,di
 5EA6  03 D6		     2	       add dx,si
 5EA8  CD 10		     2	       int 10h
 5EAA  8B 0E 0145 R	     2	       mov cx,aicenx
 5EAE  8B 16 0147 R	     2	       mov dx,aiceny
 5EB2  2B CF		     2	       sub cx,di
 5EB4  03 D6		     2	       add dx,si
 5EB6  CD 10		     2	       int 10h
 5EB8  8B 0E 0145 R	     2	       mov cx,aicenx
 5EBC  8B 16 0147 R	     2	       mov dx,aiceny
 5EC0  03 CF		     2	       add cx,di
 5EC2  2B D6		     2	       sub dx,si
 5EC4  CD 10		     2	       int 10h
 5EC6  8B 0E 0145 R	     2	       mov cx,aicenx
 5ECA  8B 16 0147 R	     2	       mov dx,aiceny
 5ECE  2B CF		     2	       sub cx,di
 5ED0  2B D6		     2	       sub dx,si
 5ED2  CD 10		     2	       int 10h
 5ED4			     2	??030F: 
 5ED4  8D 1E 5E3D R	     2		   lea bx,??030A
 5ED8  FF E3		     2	       jmp bx
 5EDA			     2	??0310:
 5EDA  B4 0C		     2	       mov ah,0ch
 5EDC  A0 0131 R	     2	       mov al,colo
 5EDF  B7 00		     2	       mov bh,0
 5EE1  8B 0E 0134 R	     2	       mov cx,aicenx-17
 5EE5  8B 16 0147 R	     2	       mov dx,aiceny
 5EE9  CD 10		     2	       int 10h
 5EEB  8B 0E 0156 R	     2	       mov cx,aicenx+17
 5EEF  8B 16 0147 R	     2	       mov dx,aiceny
 5EF3  CD 10		     2	       int 10h
 5EF5  8B 0E 0145 R	     2	       mov cx,aicenx
 5EF9  8B 16 0136 R	     2	       mov dx,aiceny-17
 5EFD  CD 10		     2	       int 10h
 5EFF  8B 0E 0145 R	     2	       mov cx,aicenx
 5F03  8B 16 0158 R	     2	       mov dx,aiceny+17
 5F07  CD 10		     2	       int 10h
 5F09  5D		     2	       pop bp
 5F0A  5F		     2	       pop di
 5F0B  5E		     2	       pop si
 5F0C  5A		     2	       pop dx
 5F0D  59		     2	       pop cx
 5F0E  5B		     2	       pop bx
 5F0F  58		     2	       pop ax
 5F10  50		     2	       push ax
 5F11  53		     2	       push bx
 5F12  51		     2	       push cx
 5F13  52		     2	       push dx
 5F14  56		     2	       push si
 5F15  57		     2	       push di
 5F16  55		     2	       push bp
 5F17  B4 0C		     2	       mov ah,0ch
 5F19  A0 0131 R	     2	       mov al,colo
 5F1C  B7 00		     2	       mov bh,0
 5F1E  8B 0E 0145 R	     2	       mov cx,aicenx
 5F22  8B 16 0147 R	     2	       mov dx,aiceny
 5F26  BE 0000		     2	       mov si,0         ;X
 5F29  BF 0010		     2	       mov di,16    ;Y
 5F2C  BD FFF1		     2	       mov bp,1-16
 5F2F			     2	??0311: 
 5F2F  3B F7		     2		   cmp si,di
 5F31  7C 06		     2	       jl ??0312
 5F33  8D 1E 5FCC R	     2	       lea bx,??0317
 5F37  FF E3		     2	       jmp bx
 5F39			     2	??0312:
 5F39  46		     2		   inc si
 5F3A			     2	??0313: 
 5F3A  83 FD 00		     2	       cmp bp,0
 5F3D  7D 09		     2	       jge ??0314
 5F3F  03 EE		     2	       add bp,si
 5F41  03 EE		     2	       add bp,si
 5F43  83 C5 01		     2	       add bp,1
 5F46  EB 0C		     2	       jmp ??0315
 5F48			     2	??0314: 
 5F48  4F		     2		   dec di
 5F49  03 EE		     2	       add bp,si
 5F4B  03 EE		     2	       add bp,si
 5F4D  2B EF		     2	       sub bp,di
 5F4F  2B EF		     2	       sub bp,di
 5F51  83 C5 01		     2	       add bp,1
 5F54			     2	??0315: 
 5F54  B7 00		     2		   mov bh,0
 5F56  8B 0E 0145 R	     2	       mov cx,aicenx
 5F5A  8B 16 0147 R	     2	       mov dx,aiceny
 5F5E  03 CE		     2	       add cx,si
 5F60  03 D7		     2	       add dx,di
 5F62  CD 10		     2	       int 10h
 5F64  8B 0E 0145 R	     2	       mov cx,aicenx
 5F68  8B 16 0147 R	     2	       mov dx,aiceny
 5F6C  2B CE		     2	       sub cx,si
 5F6E  03 D7		     2	       add dx,di
 5F70  CD 10		     2	       int 10h
 5F72  8B 0E 0145 R	     2	       mov cx,aicenx
 5F76  8B 16 0147 R	     2	       mov dx,aiceny
 5F7A  03 CE		     2	       add cx,si
 5F7C  2B D7		     2	       sub dx,di
 5F7E  CD 10		     2	       int 10h
 5F80  8B 0E 0145 R	     2	       mov cx,aicenx
 5F84  8B 16 0147 R	     2	       mov dx,aiceny
 5F88  2B CE		     2	       sub cx,si
 5F8A  2B D7		     2	       sub dx,di
 5F8C  CD 10		     2	       int 10h
 5F8E  8B 0E 0145 R	     2	       mov cx,aicenx
 5F92  8B 16 0147 R	     2	       mov dx,aiceny
 5F96  03 CF		     2	       add cx,di
 5F98  03 D6		     2	       add dx,si
 5F9A  CD 10		     2	       int 10h
 5F9C  8B 0E 0145 R	     2	       mov cx,aicenx
 5FA0  8B 16 0147 R	     2	       mov dx,aiceny
 5FA4  2B CF		     2	       sub cx,di
 5FA6  03 D6		     2	       add dx,si
 5FA8  CD 10		     2	       int 10h
 5FAA  8B 0E 0145 R	     2	       mov cx,aicenx
 5FAE  8B 16 0147 R	     2	       mov dx,aiceny
 5FB2  03 CF		     2	       add cx,di
 5FB4  2B D6		     2	       sub dx,si
 5FB6  CD 10		     2	       int 10h
 5FB8  8B 0E 0145 R	     2	       mov cx,aicenx
 5FBC  8B 16 0147 R	     2	       mov dx,aiceny
 5FC0  2B CF		     2	       sub cx,di
 5FC2  2B D6		     2	       sub dx,si
 5FC4  CD 10		     2	       int 10h
 5FC6			     2	??0316: 
 5FC6  8D 1E 5F2F R	     2		   lea bx,??0311
 5FCA  FF E3		     2	       jmp bx
 5FCC			     2	??0317:
 5FCC  B4 0C		     2	       mov ah,0ch
 5FCE  A0 0131 R	     2	       mov al,colo
 5FD1  B7 00		     2	       mov bh,0
 5FD3  8B 0E 0135 R	     2	       mov cx,aicenx-16
 5FD7  8B 16 0147 R	     2	       mov dx,aiceny
 5FDB  CD 10		     2	       int 10h
 5FDD  8B 0E 0155 R	     2	       mov cx,aicenx+16
 5FE1  8B 16 0147 R	     2	       mov dx,aiceny
 5FE5  CD 10		     2	       int 10h
 5FE7  8B 0E 0145 R	     2	       mov cx,aicenx
 5FEB  8B 16 0137 R	     2	       mov dx,aiceny-16
 5FEF  CD 10		     2	       int 10h
 5FF1  8B 0E 0145 R	     2	       mov cx,aicenx
 5FF5  8B 16 0157 R	     2	       mov dx,aiceny+16
 5FF9  CD 10		     2	       int 10h
 5FFB  5D		     2	       pop bp
 5FFC  5F		     2	       pop di
 5FFD  5E		     2	       pop si
 5FFE  5A		     2	       pop dx
 5FFF  59		     2	       pop cx
 6000  5B		     2	       pop bx
 6001  58		     2	       pop ax
 6002  50		     2	       push ax
 6003  53		     2	       push bx
 6004  51		     2	       push cx
 6005  52		     2	       push dx
 6006  56		     2	       push si
 6007  57		     2	       push di
 6008  55		     2	       push bp
 6009  B4 0C		     2	       mov ah,0ch
 600B  A0 0131 R	     2	       mov al,colo
 600E  B7 00		     2	       mov bh,0
 6010  8B 0E 0145 R	     2	       mov cx,aicenx
 6014  8B 16 0147 R	     2	       mov dx,aiceny
 6018  BE 0000		     2	       mov si,0         ;X
 601B  BF 000F		     2	       mov di,15    ;Y
 601E  BD FFF2		     2	       mov bp,1-15
 6021			     2	??0318: 
 6021  3B F7		     2		   cmp si,di
 6023  7C 06		     2	       jl ??0319
 6025  8D 1E 60BE R	     2	       lea bx,??031E
 6029  FF E3		     2	       jmp bx
 602B			     2	??0319:
 602B  46		     2		   inc si
 602C			     2	??031A: 
 602C  83 FD 00		     2	       cmp bp,0
 602F  7D 09		     2	       jge ??031B
 6031  03 EE		     2	       add bp,si
 6033  03 EE		     2	       add bp,si
 6035  83 C5 01		     2	       add bp,1
 6038  EB 0C		     2	       jmp ??031C
 603A			     2	??031B: 
 603A  4F		     2		   dec di
 603B  03 EE		     2	       add bp,si
 603D  03 EE		     2	       add bp,si
 603F  2B EF		     2	       sub bp,di
 6041  2B EF		     2	       sub bp,di
 6043  83 C5 01		     2	       add bp,1
 6046			     2	??031C: 
 6046  B7 00		     2		   mov bh,0
 6048  8B 0E 0145 R	     2	       mov cx,aicenx
 604C  8B 16 0147 R	     2	       mov dx,aiceny
 6050  03 CE		     2	       add cx,si
 6052  03 D7		     2	       add dx,di
 6054  CD 10		     2	       int 10h
 6056  8B 0E 0145 R	     2	       mov cx,aicenx
 605A  8B 16 0147 R	     2	       mov dx,aiceny
 605E  2B CE		     2	       sub cx,si
 6060  03 D7		     2	       add dx,di
 6062  CD 10		     2	       int 10h
 6064  8B 0E 0145 R	     2	       mov cx,aicenx
 6068  8B 16 0147 R	     2	       mov dx,aiceny
 606C  03 CE		     2	       add cx,si
 606E  2B D7		     2	       sub dx,di
 6070  CD 10		     2	       int 10h
 6072  8B 0E 0145 R	     2	       mov cx,aicenx
 6076  8B 16 0147 R	     2	       mov dx,aiceny
 607A  2B CE		     2	       sub cx,si
 607C  2B D7		     2	       sub dx,di
 607E  CD 10		     2	       int 10h
 6080  8B 0E 0145 R	     2	       mov cx,aicenx
 6084  8B 16 0147 R	     2	       mov dx,aiceny
 6088  03 CF		     2	       add cx,di
 608A  03 D6		     2	       add dx,si
 608C  CD 10		     2	       int 10h
 608E  8B 0E 0145 R	     2	       mov cx,aicenx
 6092  8B 16 0147 R	     2	       mov dx,aiceny
 6096  2B CF		     2	       sub cx,di
 6098  03 D6		     2	       add dx,si
 609A  CD 10		     2	       int 10h
 609C  8B 0E 0145 R	     2	       mov cx,aicenx
 60A0  8B 16 0147 R	     2	       mov dx,aiceny
 60A4  03 CF		     2	       add cx,di
 60A6  2B D6		     2	       sub dx,si
 60A8  CD 10		     2	       int 10h
 60AA  8B 0E 0145 R	     2	       mov cx,aicenx
 60AE  8B 16 0147 R	     2	       mov dx,aiceny
 60B2  2B CF		     2	       sub cx,di
 60B4  2B D6		     2	       sub dx,si
 60B6  CD 10		     2	       int 10h
 60B8			     2	??031D: 
 60B8  8D 1E 6021 R	     2		   lea bx,??0318
 60BC  FF E3		     2	       jmp bx
 60BE			     2	??031E:
 60BE  B4 0C		     2	       mov ah,0ch
 60C0  A0 0131 R	     2	       mov al,colo
 60C3  B7 00		     2	       mov bh,0
 60C5  8B 0E 0136 R	     2	       mov cx,aicenx-15
 60C9  8B 16 0147 R	     2	       mov dx,aiceny
 60CD  CD 10		     2	       int 10h
 60CF  8B 0E 0154 R	     2	       mov cx,aicenx+15
 60D3  8B 16 0147 R	     2	       mov dx,aiceny
 60D7  CD 10		     2	       int 10h
 60D9  8B 0E 0145 R	     2	       mov cx,aicenx
 60DD  8B 16 0138 R	     2	       mov dx,aiceny-15
 60E1  CD 10		     2	       int 10h
 60E3  8B 0E 0145 R	     2	       mov cx,aicenx
 60E7  8B 16 0156 R	     2	       mov dx,aiceny+15
 60EB  CD 10		     2	       int 10h
 60ED  5D		     2	       pop bp
 60EE  5F		     2	       pop di
 60EF  5E		     2	       pop si
 60F0  5A		     2	       pop dx
 60F1  59		     2	       pop cx
 60F2  5B		     2	       pop bx
 60F3  58		     2	       pop ax
 60F4  50		     2	       push ax
 60F5  53		     2	       push bx
 60F6  51		     2	       push cx
 60F7  52		     2	       push dx
 60F8  56		     2	       push si
 60F9  57		     2	       push di
 60FA  55		     2	       push bp
 60FB  B4 0C		     2	       mov ah,0ch
 60FD  A0 0131 R	     2	       mov al,colo
 6100  B7 00		     2	       mov bh,0
 6102  8B 0E 0145 R	     2	       mov cx,aicenx
 6106  8B 16 0147 R	     2	       mov dx,aiceny
 610A  BE 0000		     2	       mov si,0         ;X
 610D  BF 000E		     2	       mov di,14    ;Y
 6110  BD FFF3		     2	       mov bp,1-14
 6113			     2	??031F: 
 6113  3B F7		     2		   cmp si,di
 6115  7C 06		     2	       jl ??0320
 6117  8D 1E 61B0 R	     2	       lea bx,??0325
 611B  FF E3		     2	       jmp bx
 611D			     2	??0320:
 611D  46		     2		   inc si
 611E			     2	??0321: 
 611E  83 FD 00		     2	       cmp bp,0
 6121  7D 09		     2	       jge ??0322
 6123  03 EE		     2	       add bp,si
 6125  03 EE		     2	       add bp,si
 6127  83 C5 01		     2	       add bp,1
 612A  EB 0C		     2	       jmp ??0323
 612C			     2	??0322: 
 612C  4F		     2		   dec di
 612D  03 EE		     2	       add bp,si
 612F  03 EE		     2	       add bp,si
 6131  2B EF		     2	       sub bp,di
 6133  2B EF		     2	       sub bp,di
 6135  83 C5 01		     2	       add bp,1
 6138			     2	??0323: 
 6138  B7 00		     2		   mov bh,0
 613A  8B 0E 0145 R	     2	       mov cx,aicenx
 613E  8B 16 0147 R	     2	       mov dx,aiceny
 6142  03 CE		     2	       add cx,si
 6144  03 D7		     2	       add dx,di
 6146  CD 10		     2	       int 10h
 6148  8B 0E 0145 R	     2	       mov cx,aicenx
 614C  8B 16 0147 R	     2	       mov dx,aiceny
 6150  2B CE		     2	       sub cx,si
 6152  03 D7		     2	       add dx,di
 6154  CD 10		     2	       int 10h
 6156  8B 0E 0145 R	     2	       mov cx,aicenx
 615A  8B 16 0147 R	     2	       mov dx,aiceny
 615E  03 CE		     2	       add cx,si
 6160  2B D7		     2	       sub dx,di
 6162  CD 10		     2	       int 10h
 6164  8B 0E 0145 R	     2	       mov cx,aicenx
 6168  8B 16 0147 R	     2	       mov dx,aiceny
 616C  2B CE		     2	       sub cx,si
 616E  2B D7		     2	       sub dx,di
 6170  CD 10		     2	       int 10h
 6172  8B 0E 0145 R	     2	       mov cx,aicenx
 6176  8B 16 0147 R	     2	       mov dx,aiceny
 617A  03 CF		     2	       add cx,di
 617C  03 D6		     2	       add dx,si
 617E  CD 10		     2	       int 10h
 6180  8B 0E 0145 R	     2	       mov cx,aicenx
 6184  8B 16 0147 R	     2	       mov dx,aiceny
 6188  2B CF		     2	       sub cx,di
 618A  03 D6		     2	       add dx,si
 618C  CD 10		     2	       int 10h
 618E  8B 0E 0145 R	     2	       mov cx,aicenx
 6192  8B 16 0147 R	     2	       mov dx,aiceny
 6196  03 CF		     2	       add cx,di
 6198  2B D6		     2	       sub dx,si
 619A  CD 10		     2	       int 10h
 619C  8B 0E 0145 R	     2	       mov cx,aicenx
 61A0  8B 16 0147 R	     2	       mov dx,aiceny
 61A4  2B CF		     2	       sub cx,di
 61A6  2B D6		     2	       sub dx,si
 61A8  CD 10		     2	       int 10h
 61AA			     2	??0324: 
 61AA  8D 1E 6113 R	     2		   lea bx,??031F
 61AE  FF E3		     2	       jmp bx
 61B0			     2	??0325:
 61B0  B4 0C		     2	       mov ah,0ch
 61B2  A0 0131 R	     2	       mov al,colo
 61B5  B7 00		     2	       mov bh,0
 61B7  8B 0E 0137 R	     2	       mov cx,aicenx-14
 61BB  8B 16 0147 R	     2	       mov dx,aiceny
 61BF  CD 10		     2	       int 10h
 61C1  8B 0E 0153 R	     2	       mov cx,aicenx+14
 61C5  8B 16 0147 R	     2	       mov dx,aiceny
 61C9  CD 10		     2	       int 10h
 61CB  8B 0E 0145 R	     2	       mov cx,aicenx
 61CF  8B 16 0139 R	     2	       mov dx,aiceny-14
 61D3  CD 10		     2	       int 10h
 61D5  8B 0E 0145 R	     2	       mov cx,aicenx
 61D9  8B 16 0155 R	     2	       mov dx,aiceny+14
 61DD  CD 10		     2	       int 10h
 61DF  5D		     2	       pop bp
 61E0  5F		     2	       pop di
 61E1  5E		     2	       pop si
 61E2  5A		     2	       pop dx
 61E3  59		     2	       pop cx
 61E4  5B		     2	       pop bx
 61E5  58		     2	       pop ax
 61E6  50		     2	       push ax
 61E7  53		     2	       push bx
 61E8  51		     2	       push cx
 61E9  52		     2	       push dx
 61EA  56		     2	       push si
 61EB  57		     2	       push di
 61EC  55		     2	       push bp
 61ED  B4 0C		     2	       mov ah,0ch
 61EF  A0 0131 R	     2	       mov al,colo
 61F2  B7 00		     2	       mov bh,0
 61F4  8B 0E 0145 R	     2	       mov cx,aicenx
 61F8  8B 16 0147 R	     2	       mov dx,aiceny
 61FC  BE 0000		     2	       mov si,0         ;X
 61FF  BF 000D		     2	       mov di,13    ;Y
 6202  BD FFF4		     2	       mov bp,1-13
 6205			     2	??0326: 
 6205  3B F7		     2		   cmp si,di
 6207  7C 06		     2	       jl ??0327
 6209  8D 1E 62A2 R	     2	       lea bx,??032C
 620D  FF E3		     2	       jmp bx
 620F			     2	??0327:
 620F  46		     2		   inc si
 6210			     2	??0328: 
 6210  83 FD 00		     2	       cmp bp,0
 6213  7D 09		     2	       jge ??0329
 6215  03 EE		     2	       add bp,si
 6217  03 EE		     2	       add bp,si
 6219  83 C5 01		     2	       add bp,1
 621C  EB 0C		     2	       jmp ??032A
 621E			     2	??0329: 
 621E  4F		     2		   dec di
 621F  03 EE		     2	       add bp,si
 6221  03 EE		     2	       add bp,si
 6223  2B EF		     2	       sub bp,di
 6225  2B EF		     2	       sub bp,di
 6227  83 C5 01		     2	       add bp,1
 622A			     2	??032A: 
 622A  B7 00		     2		   mov bh,0
 622C  8B 0E 0145 R	     2	       mov cx,aicenx
 6230  8B 16 0147 R	     2	       mov dx,aiceny
 6234  03 CE		     2	       add cx,si
 6236  03 D7		     2	       add dx,di
 6238  CD 10		     2	       int 10h
 623A  8B 0E 0145 R	     2	       mov cx,aicenx
 623E  8B 16 0147 R	     2	       mov dx,aiceny
 6242  2B CE		     2	       sub cx,si
 6244  03 D7		     2	       add dx,di
 6246  CD 10		     2	       int 10h
 6248  8B 0E 0145 R	     2	       mov cx,aicenx
 624C  8B 16 0147 R	     2	       mov dx,aiceny
 6250  03 CE		     2	       add cx,si
 6252  2B D7		     2	       sub dx,di
 6254  CD 10		     2	       int 10h
 6256  8B 0E 0145 R	     2	       mov cx,aicenx
 625A  8B 16 0147 R	     2	       mov dx,aiceny
 625E  2B CE		     2	       sub cx,si
 6260  2B D7		     2	       sub dx,di
 6262  CD 10		     2	       int 10h
 6264  8B 0E 0145 R	     2	       mov cx,aicenx
 6268  8B 16 0147 R	     2	       mov dx,aiceny
 626C  03 CF		     2	       add cx,di
 626E  03 D6		     2	       add dx,si
 6270  CD 10		     2	       int 10h
 6272  8B 0E 0145 R	     2	       mov cx,aicenx
 6276  8B 16 0147 R	     2	       mov dx,aiceny
 627A  2B CF		     2	       sub cx,di
 627C  03 D6		     2	       add dx,si
 627E  CD 10		     2	       int 10h
 6280  8B 0E 0145 R	     2	       mov cx,aicenx
 6284  8B 16 0147 R	     2	       mov dx,aiceny
 6288  03 CF		     2	       add cx,di
 628A  2B D6		     2	       sub dx,si
 628C  CD 10		     2	       int 10h
 628E  8B 0E 0145 R	     2	       mov cx,aicenx
 6292  8B 16 0147 R	     2	       mov dx,aiceny
 6296  2B CF		     2	       sub cx,di
 6298  2B D6		     2	       sub dx,si
 629A  CD 10		     2	       int 10h
 629C			     2	??032B: 
 629C  8D 1E 6205 R	     2		   lea bx,??0326
 62A0  FF E3		     2	       jmp bx
 62A2			     2	??032C:
 62A2  B4 0C		     2	       mov ah,0ch
 62A4  A0 0131 R	     2	       mov al,colo
 62A7  B7 00		     2	       mov bh,0
 62A9  8B 0E 0138 R	     2	       mov cx,aicenx-13
 62AD  8B 16 0147 R	     2	       mov dx,aiceny
 62B1  CD 10		     2	       int 10h
 62B3  8B 0E 0152 R	     2	       mov cx,aicenx+13
 62B7  8B 16 0147 R	     2	       mov dx,aiceny
 62BB  CD 10		     2	       int 10h
 62BD  8B 0E 0145 R	     2	       mov cx,aicenx
 62C1  8B 16 013A R	     2	       mov dx,aiceny-13
 62C5  CD 10		     2	       int 10h
 62C7  8B 0E 0145 R	     2	       mov cx,aicenx
 62CB  8B 16 0154 R	     2	       mov dx,aiceny+13
 62CF  CD 10		     2	       int 10h
 62D1  5D		     2	       pop bp
 62D2  5F		     2	       pop di
 62D3  5E		     2	       pop si
 62D4  5A		     2	       pop dx
 62D5  59		     2	       pop cx
 62D6  5B		     2	       pop bx
 62D7  58		     2	       pop ax
 62D8  50		     2	       push ax
 62D9  53		     2	       push bx
 62DA  51		     2	       push cx
 62DB  52		     2	       push dx
 62DC  56		     2	       push si
 62DD  57		     2	       push di
 62DE  55		     2	       push bp
 62DF  B4 0C		     2	       mov ah,0ch
 62E1  A0 0131 R	     2	       mov al,colo
 62E4  B7 00		     2	       mov bh,0
 62E6  8B 0E 0145 R	     2	       mov cx,aicenx
 62EA  8B 16 0147 R	     2	       mov dx,aiceny
 62EE  BE 0000		     2	       mov si,0         ;X
 62F1  BF 000C		     2	       mov di,12    ;Y
 62F4  BD FFF5		     2	       mov bp,1-12
 62F7			     2	??032D: 
 62F7  3B F7		     2		   cmp si,di
 62F9  7C 06		     2	       jl ??032E
 62FB  8D 1E 6394 R	     2	       lea bx,??0333
 62FF  FF E3		     2	       jmp bx
 6301			     2	??032E:
 6301  46		     2		   inc si
 6302			     2	??032F: 
 6302  83 FD 00		     2	       cmp bp,0
 6305  7D 09		     2	       jge ??0330
 6307  03 EE		     2	       add bp,si
 6309  03 EE		     2	       add bp,si
 630B  83 C5 01		     2	       add bp,1
 630E  EB 0C		     2	       jmp ??0331
 6310			     2	??0330: 
 6310  4F		     2		   dec di
 6311  03 EE		     2	       add bp,si
 6313  03 EE		     2	       add bp,si
 6315  2B EF		     2	       sub bp,di
 6317  2B EF		     2	       sub bp,di
 6319  83 C5 01		     2	       add bp,1
 631C			     2	??0331: 
 631C  B7 00		     2		   mov bh,0
 631E  8B 0E 0145 R	     2	       mov cx,aicenx
 6322  8B 16 0147 R	     2	       mov dx,aiceny
 6326  03 CE		     2	       add cx,si
 6328  03 D7		     2	       add dx,di
 632A  CD 10		     2	       int 10h
 632C  8B 0E 0145 R	     2	       mov cx,aicenx
 6330  8B 16 0147 R	     2	       mov dx,aiceny
 6334  2B CE		     2	       sub cx,si
 6336  03 D7		     2	       add dx,di
 6338  CD 10		     2	       int 10h
 633A  8B 0E 0145 R	     2	       mov cx,aicenx
 633E  8B 16 0147 R	     2	       mov dx,aiceny
 6342  03 CE		     2	       add cx,si
 6344  2B D7		     2	       sub dx,di
 6346  CD 10		     2	       int 10h
 6348  8B 0E 0145 R	     2	       mov cx,aicenx
 634C  8B 16 0147 R	     2	       mov dx,aiceny
 6350  2B CE		     2	       sub cx,si
 6352  2B D7		     2	       sub dx,di
 6354  CD 10		     2	       int 10h
 6356  8B 0E 0145 R	     2	       mov cx,aicenx
 635A  8B 16 0147 R	     2	       mov dx,aiceny
 635E  03 CF		     2	       add cx,di
 6360  03 D6		     2	       add dx,si
 6362  CD 10		     2	       int 10h
 6364  8B 0E 0145 R	     2	       mov cx,aicenx
 6368  8B 16 0147 R	     2	       mov dx,aiceny
 636C  2B CF		     2	       sub cx,di
 636E  03 D6		     2	       add dx,si
 6370  CD 10		     2	       int 10h
 6372  8B 0E 0145 R	     2	       mov cx,aicenx
 6376  8B 16 0147 R	     2	       mov dx,aiceny
 637A  03 CF		     2	       add cx,di
 637C  2B D6		     2	       sub dx,si
 637E  CD 10		     2	       int 10h
 6380  8B 0E 0145 R	     2	       mov cx,aicenx
 6384  8B 16 0147 R	     2	       mov dx,aiceny
 6388  2B CF		     2	       sub cx,di
 638A  2B D6		     2	       sub dx,si
 638C  CD 10		     2	       int 10h
 638E			     2	??0332: 
 638E  8D 1E 62F7 R	     2		   lea bx,??032D
 6392  FF E3		     2	       jmp bx
 6394			     2	??0333:
 6394  B4 0C		     2	       mov ah,0ch
 6396  A0 0131 R	     2	       mov al,colo
 6399  B7 00		     2	       mov bh,0
 639B  8B 0E 0139 R	     2	       mov cx,aicenx-12
 639F  8B 16 0147 R	     2	       mov dx,aiceny
 63A3  CD 10		     2	       int 10h
 63A5  8B 0E 0151 R	     2	       mov cx,aicenx+12
 63A9  8B 16 0147 R	     2	       mov dx,aiceny
 63AD  CD 10		     2	       int 10h
 63AF  8B 0E 0145 R	     2	       mov cx,aicenx
 63B3  8B 16 013B R	     2	       mov dx,aiceny-12
 63B7  CD 10		     2	       int 10h
 63B9  8B 0E 0145 R	     2	       mov cx,aicenx
 63BD  8B 16 0153 R	     2	       mov dx,aiceny+12
 63C1  CD 10		     2	       int 10h
 63C3  5D		     2	       pop bp
 63C4  5F		     2	       pop di
 63C5  5E		     2	       pop si
 63C6  5A		     2	       pop dx
 63C7  59		     2	       pop cx
 63C8  5B		     2	       pop bx
 63C9  58		     2	       pop ax
 63CA  50		     2	       push ax
 63CB  53		     2	       push bx
 63CC  51		     2	       push cx
 63CD  52		     2	       push dx
 63CE  56		     2	       push si
 63CF  57		     2	       push di
 63D0  55		     2	       push bp
 63D1  B4 0C		     2	       mov ah,0ch
 63D3  A0 0131 R	     2	       mov al,colo
 63D6  B7 00		     2	       mov bh,0
 63D8  8B 0E 0145 R	     2	       mov cx,aicenx
 63DC  8B 16 0147 R	     2	       mov dx,aiceny
 63E0  BE 0000		     2	       mov si,0         ;X
 63E3  BF 000B		     2	       mov di,11    ;Y
 63E6  BD FFF6		     2	       mov bp,1-11
 63E9			     2	??0334: 
 63E9  3B F7		     2		   cmp si,di
 63EB  7C 06		     2	       jl ??0335
 63ED  8D 1E 6486 R	     2	       lea bx,??033A
 63F1  FF E3		     2	       jmp bx
 63F3			     2	??0335:
 63F3  46		     2		   inc si
 63F4			     2	??0336: 
 63F4  83 FD 00		     2	       cmp bp,0
 63F7  7D 09		     2	       jge ??0337
 63F9  03 EE		     2	       add bp,si
 63FB  03 EE		     2	       add bp,si
 63FD  83 C5 01		     2	       add bp,1
 6400  EB 0C		     2	       jmp ??0338
 6402			     2	??0337: 
 6402  4F		     2		   dec di
 6403  03 EE		     2	       add bp,si
 6405  03 EE		     2	       add bp,si
 6407  2B EF		     2	       sub bp,di
 6409  2B EF		     2	       sub bp,di
 640B  83 C5 01		     2	       add bp,1
 640E			     2	??0338: 
 640E  B7 00		     2		   mov bh,0
 6410  8B 0E 0145 R	     2	       mov cx,aicenx
 6414  8B 16 0147 R	     2	       mov dx,aiceny
 6418  03 CE		     2	       add cx,si
 641A  03 D7		     2	       add dx,di
 641C  CD 10		     2	       int 10h
 641E  8B 0E 0145 R	     2	       mov cx,aicenx
 6422  8B 16 0147 R	     2	       mov dx,aiceny
 6426  2B CE		     2	       sub cx,si
 6428  03 D7		     2	       add dx,di
 642A  CD 10		     2	       int 10h
 642C  8B 0E 0145 R	     2	       mov cx,aicenx
 6430  8B 16 0147 R	     2	       mov dx,aiceny
 6434  03 CE		     2	       add cx,si
 6436  2B D7		     2	       sub dx,di
 6438  CD 10		     2	       int 10h
 643A  8B 0E 0145 R	     2	       mov cx,aicenx
 643E  8B 16 0147 R	     2	       mov dx,aiceny
 6442  2B CE		     2	       sub cx,si
 6444  2B D7		     2	       sub dx,di
 6446  CD 10		     2	       int 10h
 6448  8B 0E 0145 R	     2	       mov cx,aicenx
 644C  8B 16 0147 R	     2	       mov dx,aiceny
 6450  03 CF		     2	       add cx,di
 6452  03 D6		     2	       add dx,si
 6454  CD 10		     2	       int 10h
 6456  8B 0E 0145 R	     2	       mov cx,aicenx
 645A  8B 16 0147 R	     2	       mov dx,aiceny
 645E  2B CF		     2	       sub cx,di
 6460  03 D6		     2	       add dx,si
 6462  CD 10		     2	       int 10h
 6464  8B 0E 0145 R	     2	       mov cx,aicenx
 6468  8B 16 0147 R	     2	       mov dx,aiceny
 646C  03 CF		     2	       add cx,di
 646E  2B D6		     2	       sub dx,si
 6470  CD 10		     2	       int 10h
 6472  8B 0E 0145 R	     2	       mov cx,aicenx
 6476  8B 16 0147 R	     2	       mov dx,aiceny
 647A  2B CF		     2	       sub cx,di
 647C  2B D6		     2	       sub dx,si
 647E  CD 10		     2	       int 10h
 6480			     2	??0339: 
 6480  8D 1E 63E9 R	     2		   lea bx,??0334
 6484  FF E3		     2	       jmp bx
 6486			     2	??033A:
 6486  B4 0C		     2	       mov ah,0ch
 6488  A0 0131 R	     2	       mov al,colo
 648B  B7 00		     2	       mov bh,0
 648D  8B 0E 013A R	     2	       mov cx,aicenx-11
 6491  8B 16 0147 R	     2	       mov dx,aiceny
 6495  CD 10		     2	       int 10h
 6497  8B 0E 0150 R	     2	       mov cx,aicenx+11
 649B  8B 16 0147 R	     2	       mov dx,aiceny
 649F  CD 10		     2	       int 10h
 64A1  8B 0E 0145 R	     2	       mov cx,aicenx
 64A5  8B 16 013C R	     2	       mov dx,aiceny-11
 64A9  CD 10		     2	       int 10h
 64AB  8B 0E 0145 R	     2	       mov cx,aicenx
 64AF  8B 16 0152 R	     2	       mov dx,aiceny+11
 64B3  CD 10		     2	       int 10h
 64B5  5D		     2	       pop bp
 64B6  5F		     2	       pop di
 64B7  5E		     2	       pop si
 64B8  5A		     2	       pop dx
 64B9  59		     2	       pop cx
 64BA  5B		     2	       pop bx
 64BB  58		     2	       pop ax
 64BC  50		     2	       push ax
 64BD  53		     2	       push bx
 64BE  51		     2	       push cx
 64BF  52		     2	       push dx
 64C0  56		     2	       push si
 64C1  57		     2	       push di
 64C2  55		     2	       push bp
 64C3  B4 0C		     2	       mov ah,0ch
 64C5  A0 0131 R	     2	       mov al,colo
 64C8  B7 00		     2	       mov bh,0
 64CA  8B 0E 0145 R	     2	       mov cx,aicenx
 64CE  8B 16 0147 R	     2	       mov dx,aiceny
 64D2  BE 0000		     2	       mov si,0         ;X
 64D5  BF 000A		     2	       mov di,10    ;Y
 64D8  BD FFF7		     2	       mov bp,1-10
 64DB			     2	??033B: 
 64DB  3B F7		     2		   cmp si,di
 64DD  7C 06		     2	       jl ??033C
 64DF  8D 1E 6578 R	     2	       lea bx,??0341
 64E3  FF E3		     2	       jmp bx
 64E5			     2	??033C:
 64E5  46		     2		   inc si
 64E6			     2	??033D: 
 64E6  83 FD 00		     2	       cmp bp,0
 64E9  7D 09		     2	       jge ??033E
 64EB  03 EE		     2	       add bp,si
 64ED  03 EE		     2	       add bp,si
 64EF  83 C5 01		     2	       add bp,1
 64F2  EB 0C		     2	       jmp ??033F
 64F4			     2	??033E: 
 64F4  4F		     2		   dec di
 64F5  03 EE		     2	       add bp,si
 64F7  03 EE		     2	       add bp,si
 64F9  2B EF		     2	       sub bp,di
 64FB  2B EF		     2	       sub bp,di
 64FD  83 C5 01		     2	       add bp,1
 6500			     2	??033F: 
 6500  B7 00		     2		   mov bh,0
 6502  8B 0E 0145 R	     2	       mov cx,aicenx
 6506  8B 16 0147 R	     2	       mov dx,aiceny
 650A  03 CE		     2	       add cx,si
 650C  03 D7		     2	       add dx,di
 650E  CD 10		     2	       int 10h
 6510  8B 0E 0145 R	     2	       mov cx,aicenx
 6514  8B 16 0147 R	     2	       mov dx,aiceny
 6518  2B CE		     2	       sub cx,si
 651A  03 D7		     2	       add dx,di
 651C  CD 10		     2	       int 10h
 651E  8B 0E 0145 R	     2	       mov cx,aicenx
 6522  8B 16 0147 R	     2	       mov dx,aiceny
 6526  03 CE		     2	       add cx,si
 6528  2B D7		     2	       sub dx,di
 652A  CD 10		     2	       int 10h
 652C  8B 0E 0145 R	     2	       mov cx,aicenx
 6530  8B 16 0147 R	     2	       mov dx,aiceny
 6534  2B CE		     2	       sub cx,si
 6536  2B D7		     2	       sub dx,di
 6538  CD 10		     2	       int 10h
 653A  8B 0E 0145 R	     2	       mov cx,aicenx
 653E  8B 16 0147 R	     2	       mov dx,aiceny
 6542  03 CF		     2	       add cx,di
 6544  03 D6		     2	       add dx,si
 6546  CD 10		     2	       int 10h
 6548  8B 0E 0145 R	     2	       mov cx,aicenx
 654C  8B 16 0147 R	     2	       mov dx,aiceny
 6550  2B CF		     2	       sub cx,di
 6552  03 D6		     2	       add dx,si
 6554  CD 10		     2	       int 10h
 6556  8B 0E 0145 R	     2	       mov cx,aicenx
 655A  8B 16 0147 R	     2	       mov dx,aiceny
 655E  03 CF		     2	       add cx,di
 6560  2B D6		     2	       sub dx,si
 6562  CD 10		     2	       int 10h
 6564  8B 0E 0145 R	     2	       mov cx,aicenx
 6568  8B 16 0147 R	     2	       mov dx,aiceny
 656C  2B CF		     2	       sub cx,di
 656E  2B D6		     2	       sub dx,si
 6570  CD 10		     2	       int 10h
 6572			     2	??0340: 
 6572  8D 1E 64DB R	     2		   lea bx,??033B
 6576  FF E3		     2	       jmp bx
 6578			     2	??0341:
 6578  B4 0C		     2	       mov ah,0ch
 657A  A0 0131 R	     2	       mov al,colo
 657D  B7 00		     2	       mov bh,0
 657F  8B 0E 013B R	     2	       mov cx,aicenx-10
 6583  8B 16 0147 R	     2	       mov dx,aiceny
 6587  CD 10		     2	       int 10h
 6589  8B 0E 014F R	     2	       mov cx,aicenx+10
 658D  8B 16 0147 R	     2	       mov dx,aiceny
 6591  CD 10		     2	       int 10h
 6593  8B 0E 0145 R	     2	       mov cx,aicenx
 6597  8B 16 013D R	     2	       mov dx,aiceny-10
 659B  CD 10		     2	       int 10h
 659D  8B 0E 0145 R	     2	       mov cx,aicenx
 65A1  8B 16 0151 R	     2	       mov dx,aiceny+10
 65A5  CD 10		     2	       int 10h
 65A7  5D		     2	       pop bp
 65A8  5F		     2	       pop di
 65A9  5E		     2	       pop si
 65AA  5A		     2	       pop dx
 65AB  59		     2	       pop cx
 65AC  5B		     2	       pop bx
 65AD  58		     2	       pop ax
 65AE  50		     2	       push ax
 65AF  53		     2	       push bx
 65B0  51		     2	       push cx
 65B1  52		     2	       push dx
 65B2  56		     2	       push si
 65B3  57		     2	       push di
 65B4  55		     2	       push bp
 65B5  B4 0C		     2	       mov ah,0ch
 65B7  A0 0131 R	     2	       mov al,colo
 65BA  B7 00		     2	       mov bh,0
 65BC  8B 0E 0145 R	     2	       mov cx,aicenx
 65C0  8B 16 0147 R	     2	       mov dx,aiceny
 65C4  BE 0000		     2	       mov si,0         ;X
 65C7  BF 0009		     2	       mov di,09    ;Y
 65CA  BD FFF8		     2	       mov bp,1-09
 65CD			     2	??0342: 
 65CD  3B F7		     2		   cmp si,di
 65CF  7C 06		     2	       jl ??0343
 65D1  8D 1E 666A R	     2	       lea bx,??0348
 65D5  FF E3		     2	       jmp bx
 65D7			     2	??0343:
 65D7  46		     2		   inc si
 65D8			     2	??0344: 
 65D8  83 FD 00		     2	       cmp bp,0
 65DB  7D 09		     2	       jge ??0345
 65DD  03 EE		     2	       add bp,si
 65DF  03 EE		     2	       add bp,si
 65E1  83 C5 01		     2	       add bp,1
 65E4  EB 0C		     2	       jmp ??0346
 65E6			     2	??0345: 
 65E6  4F		     2		   dec di
 65E7  03 EE		     2	       add bp,si
 65E9  03 EE		     2	       add bp,si
 65EB  2B EF		     2	       sub bp,di
 65ED  2B EF		     2	       sub bp,di
 65EF  83 C5 01		     2	       add bp,1
 65F2			     2	??0346: 
 65F2  B7 00		     2		   mov bh,0
 65F4  8B 0E 0145 R	     2	       mov cx,aicenx
 65F8  8B 16 0147 R	     2	       mov dx,aiceny
 65FC  03 CE		     2	       add cx,si
 65FE  03 D7		     2	       add dx,di
 6600  CD 10		     2	       int 10h
 6602  8B 0E 0145 R	     2	       mov cx,aicenx
 6606  8B 16 0147 R	     2	       mov dx,aiceny
 660A  2B CE		     2	       sub cx,si
 660C  03 D7		     2	       add dx,di
 660E  CD 10		     2	       int 10h
 6610  8B 0E 0145 R	     2	       mov cx,aicenx
 6614  8B 16 0147 R	     2	       mov dx,aiceny
 6618  03 CE		     2	       add cx,si
 661A  2B D7		     2	       sub dx,di
 661C  CD 10		     2	       int 10h
 661E  8B 0E 0145 R	     2	       mov cx,aicenx
 6622  8B 16 0147 R	     2	       mov dx,aiceny
 6626  2B CE		     2	       sub cx,si
 6628  2B D7		     2	       sub dx,di
 662A  CD 10		     2	       int 10h
 662C  8B 0E 0145 R	     2	       mov cx,aicenx
 6630  8B 16 0147 R	     2	       mov dx,aiceny
 6634  03 CF		     2	       add cx,di
 6636  03 D6		     2	       add dx,si
 6638  CD 10		     2	       int 10h
 663A  8B 0E 0145 R	     2	       mov cx,aicenx
 663E  8B 16 0147 R	     2	       mov dx,aiceny
 6642  2B CF		     2	       sub cx,di
 6644  03 D6		     2	       add dx,si
 6646  CD 10		     2	       int 10h
 6648  8B 0E 0145 R	     2	       mov cx,aicenx
 664C  8B 16 0147 R	     2	       mov dx,aiceny
 6650  03 CF		     2	       add cx,di
 6652  2B D6		     2	       sub dx,si
 6654  CD 10		     2	       int 10h
 6656  8B 0E 0145 R	     2	       mov cx,aicenx
 665A  8B 16 0147 R	     2	       mov dx,aiceny
 665E  2B CF		     2	       sub cx,di
 6660  2B D6		     2	       sub dx,si
 6662  CD 10		     2	       int 10h
 6664			     2	??0347: 
 6664  8D 1E 65CD R	     2		   lea bx,??0342
 6668  FF E3		     2	       jmp bx
 666A			     2	??0348:
 666A  B4 0C		     2	       mov ah,0ch
 666C  A0 0131 R	     2	       mov al,colo
 666F  B7 00		     2	       mov bh,0
 6671  8B 0E 013C R	     2	       mov cx,aicenx-09
 6675  8B 16 0147 R	     2	       mov dx,aiceny
 6679  CD 10		     2	       int 10h
 667B  8B 0E 014E R	     2	       mov cx,aicenx+09
 667F  8B 16 0147 R	     2	       mov dx,aiceny
 6683  CD 10		     2	       int 10h
 6685  8B 0E 0145 R	     2	       mov cx,aicenx
 6689  8B 16 013E R	     2	       mov dx,aiceny-09
 668D  CD 10		     2	       int 10h
 668F  8B 0E 0145 R	     2	       mov cx,aicenx
 6693  8B 16 0150 R	     2	       mov dx,aiceny+09
 6697  CD 10		     2	       int 10h
 6699  5D		     2	       pop bp
 669A  5F		     2	       pop di
 669B  5E		     2	       pop si
 669C  5A		     2	       pop dx
 669D  59		     2	       pop cx
 669E  5B		     2	       pop bx
 669F  58		     2	       pop ax
 66A0  50		     2	       push ax
 66A1  53		     2	       push bx
 66A2  51		     2	       push cx
 66A3  52		     2	       push dx
 66A4  56		     2	       push si
 66A5  57		     2	       push di
 66A6  55		     2	       push bp
 66A7  B4 0C		     2	       mov ah,0ch
 66A9  A0 0131 R	     2	       mov al,colo
 66AC  B7 00		     2	       mov bh,0
 66AE  8B 0E 0145 R	     2	       mov cx,aicenx
 66B2  8B 16 0147 R	     2	       mov dx,aiceny
 66B6  BE 0000		     2	       mov si,0         ;X
 66B9  BF 0008		     2	       mov di,08    ;Y
 66BC  BD FFF9		     2	       mov bp,1-08
 66BF			     2	??0349: 
 66BF  3B F7		     2		   cmp si,di
 66C1  7C 06		     2	       jl ??034A
 66C3  8D 1E 675C R	     2	       lea bx,??034F
 66C7  FF E3		     2	       jmp bx
 66C9			     2	??034A:
 66C9  46		     2		   inc si
 66CA			     2	??034B: 
 66CA  83 FD 00		     2	       cmp bp,0
 66CD  7D 09		     2	       jge ??034C
 66CF  03 EE		     2	       add bp,si
 66D1  03 EE		     2	       add bp,si
 66D3  83 C5 01		     2	       add bp,1
 66D6  EB 0C		     2	       jmp ??034D
 66D8			     2	??034C: 
 66D8  4F		     2		   dec di
 66D9  03 EE		     2	       add bp,si
 66DB  03 EE		     2	       add bp,si
 66DD  2B EF		     2	       sub bp,di
 66DF  2B EF		     2	       sub bp,di
 66E1  83 C5 01		     2	       add bp,1
 66E4			     2	??034D: 
 66E4  B7 00		     2		   mov bh,0
 66E6  8B 0E 0145 R	     2	       mov cx,aicenx
 66EA  8B 16 0147 R	     2	       mov dx,aiceny
 66EE  03 CE		     2	       add cx,si
 66F0  03 D7		     2	       add dx,di
 66F2  CD 10		     2	       int 10h
 66F4  8B 0E 0145 R	     2	       mov cx,aicenx
 66F8  8B 16 0147 R	     2	       mov dx,aiceny
 66FC  2B CE		     2	       sub cx,si
 66FE  03 D7		     2	       add dx,di
 6700  CD 10		     2	       int 10h
 6702  8B 0E 0145 R	     2	       mov cx,aicenx
 6706  8B 16 0147 R	     2	       mov dx,aiceny
 670A  03 CE		     2	       add cx,si
 670C  2B D7		     2	       sub dx,di
 670E  CD 10		     2	       int 10h
 6710  8B 0E 0145 R	     2	       mov cx,aicenx
 6714  8B 16 0147 R	     2	       mov dx,aiceny
 6718  2B CE		     2	       sub cx,si
 671A  2B D7		     2	       sub dx,di
 671C  CD 10		     2	       int 10h
 671E  8B 0E 0145 R	     2	       mov cx,aicenx
 6722  8B 16 0147 R	     2	       mov dx,aiceny
 6726  03 CF		     2	       add cx,di
 6728  03 D6		     2	       add dx,si
 672A  CD 10		     2	       int 10h
 672C  8B 0E 0145 R	     2	       mov cx,aicenx
 6730  8B 16 0147 R	     2	       mov dx,aiceny
 6734  2B CF		     2	       sub cx,di
 6736  03 D6		     2	       add dx,si
 6738  CD 10		     2	       int 10h
 673A  8B 0E 0145 R	     2	       mov cx,aicenx
 673E  8B 16 0147 R	     2	       mov dx,aiceny
 6742  03 CF		     2	       add cx,di
 6744  2B D6		     2	       sub dx,si
 6746  CD 10		     2	       int 10h
 6748  8B 0E 0145 R	     2	       mov cx,aicenx
 674C  8B 16 0147 R	     2	       mov dx,aiceny
 6750  2B CF		     2	       sub cx,di
 6752  2B D6		     2	       sub dx,si
 6754  CD 10		     2	       int 10h
 6756			     2	??034E: 
 6756  8D 1E 66BF R	     2		   lea bx,??0349
 675A  FF E3		     2	       jmp bx
 675C			     2	??034F:
 675C  B4 0C		     2	       mov ah,0ch
 675E  A0 0131 R	     2	       mov al,colo
 6761  B7 00		     2	       mov bh,0
 6763  8B 0E 013D R	     2	       mov cx,aicenx-08
 6767  8B 16 0147 R	     2	       mov dx,aiceny
 676B  CD 10		     2	       int 10h
 676D  8B 0E 014D R	     2	       mov cx,aicenx+08
 6771  8B 16 0147 R	     2	       mov dx,aiceny
 6775  CD 10		     2	       int 10h
 6777  8B 0E 0145 R	     2	       mov cx,aicenx
 677B  8B 16 013F R	     2	       mov dx,aiceny-08
 677F  CD 10		     2	       int 10h
 6781  8B 0E 0145 R	     2	       mov cx,aicenx
 6785  8B 16 014F R	     2	       mov dx,aiceny+08
 6789  CD 10		     2	       int 10h
 678B  5D		     2	       pop bp
 678C  5F		     2	       pop di
 678D  5E		     2	       pop si
 678E  5A		     2	       pop dx
 678F  59		     2	       pop cx
 6790  5B		     2	       pop bx
 6791  58		     2	       pop ax
 6792  50		     2	       push ax
 6793  53		     2	       push bx
 6794  51		     2	       push cx
 6795  52		     2	       push dx
 6796  56		     2	       push si
 6797  57		     2	       push di
 6798  55		     2	       push bp
 6799  B4 0C		     2	       mov ah,0ch
 679B  A0 0131 R	     2	       mov al,colo
 679E  B7 00		     2	       mov bh,0
 67A0  8B 0E 0145 R	     2	       mov cx,aicenx
 67A4  8B 16 0147 R	     2	       mov dx,aiceny
 67A8  BE 0000		     2	       mov si,0         ;X
 67AB  BF 0007		     2	       mov di,07    ;Y
 67AE  BD FFFA		     2	       mov bp,1-07
 67B1			     2	??0350: 
 67B1  3B F7		     2		   cmp si,di
 67B3  7C 06		     2	       jl ??0351
 67B5  8D 1E 684E R	     2	       lea bx,??0356
 67B9  FF E3		     2	       jmp bx
 67BB			     2	??0351:
 67BB  46		     2		   inc si
 67BC			     2	??0352: 
 67BC  83 FD 00		     2	       cmp bp,0
 67BF  7D 09		     2	       jge ??0353
 67C1  03 EE		     2	       add bp,si
 67C3  03 EE		     2	       add bp,si
 67C5  83 C5 01		     2	       add bp,1
 67C8  EB 0C		     2	       jmp ??0354
 67CA			     2	??0353: 
 67CA  4F		     2		   dec di
 67CB  03 EE		     2	       add bp,si
 67CD  03 EE		     2	       add bp,si
 67CF  2B EF		     2	       sub bp,di
 67D1  2B EF		     2	       sub bp,di
 67D3  83 C5 01		     2	       add bp,1
 67D6			     2	??0354: 
 67D6  B7 00		     2		   mov bh,0
 67D8  8B 0E 0145 R	     2	       mov cx,aicenx
 67DC  8B 16 0147 R	     2	       mov dx,aiceny
 67E0  03 CE		     2	       add cx,si
 67E2  03 D7		     2	       add dx,di
 67E4  CD 10		     2	       int 10h
 67E6  8B 0E 0145 R	     2	       mov cx,aicenx
 67EA  8B 16 0147 R	     2	       mov dx,aiceny
 67EE  2B CE		     2	       sub cx,si
 67F0  03 D7		     2	       add dx,di
 67F2  CD 10		     2	       int 10h
 67F4  8B 0E 0145 R	     2	       mov cx,aicenx
 67F8  8B 16 0147 R	     2	       mov dx,aiceny
 67FC  03 CE		     2	       add cx,si
 67FE  2B D7		     2	       sub dx,di
 6800  CD 10		     2	       int 10h
 6802  8B 0E 0145 R	     2	       mov cx,aicenx
 6806  8B 16 0147 R	     2	       mov dx,aiceny
 680A  2B CE		     2	       sub cx,si
 680C  2B D7		     2	       sub dx,di
 680E  CD 10		     2	       int 10h
 6810  8B 0E 0145 R	     2	       mov cx,aicenx
 6814  8B 16 0147 R	     2	       mov dx,aiceny
 6818  03 CF		     2	       add cx,di
 681A  03 D6		     2	       add dx,si
 681C  CD 10		     2	       int 10h
 681E  8B 0E 0145 R	     2	       mov cx,aicenx
 6822  8B 16 0147 R	     2	       mov dx,aiceny
 6826  2B CF		     2	       sub cx,di
 6828  03 D6		     2	       add dx,si
 682A  CD 10		     2	       int 10h
 682C  8B 0E 0145 R	     2	       mov cx,aicenx
 6830  8B 16 0147 R	     2	       mov dx,aiceny
 6834  03 CF		     2	       add cx,di
 6836  2B D6		     2	       sub dx,si
 6838  CD 10		     2	       int 10h
 683A  8B 0E 0145 R	     2	       mov cx,aicenx
 683E  8B 16 0147 R	     2	       mov dx,aiceny
 6842  2B CF		     2	       sub cx,di
 6844  2B D6		     2	       sub dx,si
 6846  CD 10		     2	       int 10h
 6848			     2	??0355: 
 6848  8D 1E 67B1 R	     2		   lea bx,??0350
 684C  FF E3		     2	       jmp bx
 684E			     2	??0356:
 684E  B4 0C		     2	       mov ah,0ch
 6850  A0 0131 R	     2	       mov al,colo
 6853  B7 00		     2	       mov bh,0
 6855  8B 0E 013E R	     2	       mov cx,aicenx-07
 6859  8B 16 0147 R	     2	       mov dx,aiceny
 685D  CD 10		     2	       int 10h
 685F  8B 0E 014C R	     2	       mov cx,aicenx+07
 6863  8B 16 0147 R	     2	       mov dx,aiceny
 6867  CD 10		     2	       int 10h
 6869  8B 0E 0145 R	     2	       mov cx,aicenx
 686D  8B 16 0140 R	     2	       mov dx,aiceny-07
 6871  CD 10		     2	       int 10h
 6873  8B 0E 0145 R	     2	       mov cx,aicenx
 6877  8B 16 014E R	     2	       mov dx,aiceny+07
 687B  CD 10		     2	       int 10h
 687D  5D		     2	       pop bp
 687E  5F		     2	       pop di
 687F  5E		     2	       pop si
 6880  5A		     2	       pop dx
 6881  59		     2	       pop cx
 6882  5B		     2	       pop bx
 6883  58		     2	       pop ax
 6884  50		     2	       push ax
 6885  53		     2	       push bx
 6886  51		     2	       push cx
 6887  52		     2	       push dx
 6888  56		     2	       push si
 6889  57		     2	       push di
 688A  55		     2	       push bp
 688B  B4 0C		     2	       mov ah,0ch
 688D  A0 0131 R	     2	       mov al,colo
 6890  B7 00		     2	       mov bh,0
 6892  8B 0E 0145 R	     2	       mov cx,aicenx
 6896  8B 16 0147 R	     2	       mov dx,aiceny
 689A  BE 0000		     2	       mov si,0         ;X
 689D  BF 0006		     2	       mov di,06    ;Y
 68A0  BD FFFB		     2	       mov bp,1-06
 68A3			     2	??0357: 
 68A3  3B F7		     2		   cmp si,di
 68A5  7C 06		     2	       jl ??0358
 68A7  8D 1E 6940 R	     2	       lea bx,??035D
 68AB  FF E3		     2	       jmp bx
 68AD			     2	??0358:
 68AD  46		     2		   inc si
 68AE			     2	??0359: 
 68AE  83 FD 00		     2	       cmp bp,0
 68B1  7D 09		     2	       jge ??035A
 68B3  03 EE		     2	       add bp,si
 68B5  03 EE		     2	       add bp,si
 68B7  83 C5 01		     2	       add bp,1
 68BA  EB 0C		     2	       jmp ??035B
 68BC			     2	??035A: 
 68BC  4F		     2		   dec di
 68BD  03 EE		     2	       add bp,si
 68BF  03 EE		     2	       add bp,si
 68C1  2B EF		     2	       sub bp,di
 68C3  2B EF		     2	       sub bp,di
 68C5  83 C5 01		     2	       add bp,1
 68C8			     2	??035B: 
 68C8  B7 00		     2		   mov bh,0
 68CA  8B 0E 0145 R	     2	       mov cx,aicenx
 68CE  8B 16 0147 R	     2	       mov dx,aiceny
 68D2  03 CE		     2	       add cx,si
 68D4  03 D7		     2	       add dx,di
 68D6  CD 10		     2	       int 10h
 68D8  8B 0E 0145 R	     2	       mov cx,aicenx
 68DC  8B 16 0147 R	     2	       mov dx,aiceny
 68E0  2B CE		     2	       sub cx,si
 68E2  03 D7		     2	       add dx,di
 68E4  CD 10		     2	       int 10h
 68E6  8B 0E 0145 R	     2	       mov cx,aicenx
 68EA  8B 16 0147 R	     2	       mov dx,aiceny
 68EE  03 CE		     2	       add cx,si
 68F0  2B D7		     2	       sub dx,di
 68F2  CD 10		     2	       int 10h
 68F4  8B 0E 0145 R	     2	       mov cx,aicenx
 68F8  8B 16 0147 R	     2	       mov dx,aiceny
 68FC  2B CE		     2	       sub cx,si
 68FE  2B D7		     2	       sub dx,di
 6900  CD 10		     2	       int 10h
 6902  8B 0E 0145 R	     2	       mov cx,aicenx
 6906  8B 16 0147 R	     2	       mov dx,aiceny
 690A  03 CF		     2	       add cx,di
 690C  03 D6		     2	       add dx,si
 690E  CD 10		     2	       int 10h
 6910  8B 0E 0145 R	     2	       mov cx,aicenx
 6914  8B 16 0147 R	     2	       mov dx,aiceny
 6918  2B CF		     2	       sub cx,di
 691A  03 D6		     2	       add dx,si
 691C  CD 10		     2	       int 10h
 691E  8B 0E 0145 R	     2	       mov cx,aicenx
 6922  8B 16 0147 R	     2	       mov dx,aiceny
 6926  03 CF		     2	       add cx,di
 6928  2B D6		     2	       sub dx,si
 692A  CD 10		     2	       int 10h
 692C  8B 0E 0145 R	     2	       mov cx,aicenx
 6930  8B 16 0147 R	     2	       mov dx,aiceny
 6934  2B CF		     2	       sub cx,di
 6936  2B D6		     2	       sub dx,si
 6938  CD 10		     2	       int 10h
 693A			     2	??035C: 
 693A  8D 1E 68A3 R	     2		   lea bx,??0357
 693E  FF E3		     2	       jmp bx
 6940			     2	??035D:
 6940  B4 0C		     2	       mov ah,0ch
 6942  A0 0131 R	     2	       mov al,colo
 6945  B7 00		     2	       mov bh,0
 6947  8B 0E 013F R	     2	       mov cx,aicenx-06
 694B  8B 16 0147 R	     2	       mov dx,aiceny
 694F  CD 10		     2	       int 10h
 6951  8B 0E 014B R	     2	       mov cx,aicenx+06
 6955  8B 16 0147 R	     2	       mov dx,aiceny
 6959  CD 10		     2	       int 10h
 695B  8B 0E 0145 R	     2	       mov cx,aicenx
 695F  8B 16 0141 R	     2	       mov dx,aiceny-06
 6963  CD 10		     2	       int 10h
 6965  8B 0E 0145 R	     2	       mov cx,aicenx
 6969  8B 16 014D R	     2	       mov dx,aiceny+06
 696D  CD 10		     2	       int 10h
 696F  5D		     2	       pop bp
 6970  5F		     2	       pop di
 6971  5E		     2	       pop si
 6972  5A		     2	       pop dx
 6973  59		     2	       pop cx
 6974  5B		     2	       pop bx
 6975  58		     2	       pop ax
 6976  50		     2	       push ax
 6977  53		     2	       push bx
 6978  51		     2	       push cx
 6979  52		     2	       push dx
 697A  56		     2	       push si
 697B  57		     2	       push di
 697C  55		     2	       push bp
 697D  B4 0C		     2	       mov ah,0ch
 697F  A0 0131 R	     2	       mov al,colo
 6982  B7 00		     2	       mov bh,0
 6984  8B 0E 0145 R	     2	       mov cx,aicenx
 6988  8B 16 0147 R	     2	       mov dx,aiceny
 698C  BE 0000		     2	       mov si,0         ;X
 698F  BF 0005		     2	       mov di,05    ;Y
 6992  BD FFFC		     2	       mov bp,1-05
 6995			     2	??035E: 
 6995  3B F7		     2		   cmp si,di
 6997  7C 06		     2	       jl ??035F
 6999  8D 1E 6A32 R	     2	       lea bx,??0364
 699D  FF E3		     2	       jmp bx
 699F			     2	??035F:
 699F  46		     2		   inc si
 69A0			     2	??0360: 
 69A0  83 FD 00		     2	       cmp bp,0
 69A3  7D 09		     2	       jge ??0361
 69A5  03 EE		     2	       add bp,si
 69A7  03 EE		     2	       add bp,si
 69A9  83 C5 01		     2	       add bp,1
 69AC  EB 0C		     2	       jmp ??0362
 69AE			     2	??0361: 
 69AE  4F		     2		   dec di
 69AF  03 EE		     2	       add bp,si
 69B1  03 EE		     2	       add bp,si
 69B3  2B EF		     2	       sub bp,di
 69B5  2B EF		     2	       sub bp,di
 69B7  83 C5 01		     2	       add bp,1
 69BA			     2	??0362: 
 69BA  B7 00		     2		   mov bh,0
 69BC  8B 0E 0145 R	     2	       mov cx,aicenx
 69C0  8B 16 0147 R	     2	       mov dx,aiceny
 69C4  03 CE		     2	       add cx,si
 69C6  03 D7		     2	       add dx,di
 69C8  CD 10		     2	       int 10h
 69CA  8B 0E 0145 R	     2	       mov cx,aicenx
 69CE  8B 16 0147 R	     2	       mov dx,aiceny
 69D2  2B CE		     2	       sub cx,si
 69D4  03 D7		     2	       add dx,di
 69D6  CD 10		     2	       int 10h
 69D8  8B 0E 0145 R	     2	       mov cx,aicenx
 69DC  8B 16 0147 R	     2	       mov dx,aiceny
 69E0  03 CE		     2	       add cx,si
 69E2  2B D7		     2	       sub dx,di
 69E4  CD 10		     2	       int 10h
 69E6  8B 0E 0145 R	     2	       mov cx,aicenx
 69EA  8B 16 0147 R	     2	       mov dx,aiceny
 69EE  2B CE		     2	       sub cx,si
 69F0  2B D7		     2	       sub dx,di
 69F2  CD 10		     2	       int 10h
 69F4  8B 0E 0145 R	     2	       mov cx,aicenx
 69F8  8B 16 0147 R	     2	       mov dx,aiceny
 69FC  03 CF		     2	       add cx,di
 69FE  03 D6		     2	       add dx,si
 6A00  CD 10		     2	       int 10h
 6A02  8B 0E 0145 R	     2	       mov cx,aicenx
 6A06  8B 16 0147 R	     2	       mov dx,aiceny
 6A0A  2B CF		     2	       sub cx,di
 6A0C  03 D6		     2	       add dx,si
 6A0E  CD 10		     2	       int 10h
 6A10  8B 0E 0145 R	     2	       mov cx,aicenx
 6A14  8B 16 0147 R	     2	       mov dx,aiceny
 6A18  03 CF		     2	       add cx,di
 6A1A  2B D6		     2	       sub dx,si
 6A1C  CD 10		     2	       int 10h
 6A1E  8B 0E 0145 R	     2	       mov cx,aicenx
 6A22  8B 16 0147 R	     2	       mov dx,aiceny
 6A26  2B CF		     2	       sub cx,di
 6A28  2B D6		     2	       sub dx,si
 6A2A  CD 10		     2	       int 10h
 6A2C			     2	??0363: 
 6A2C  8D 1E 6995 R	     2		   lea bx,??035E
 6A30  FF E3		     2	       jmp bx
 6A32			     2	??0364:
 6A32  B4 0C		     2	       mov ah,0ch
 6A34  A0 0131 R	     2	       mov al,colo
 6A37  B7 00		     2	       mov bh,0
 6A39  8B 0E 0140 R	     2	       mov cx,aicenx-05
 6A3D  8B 16 0147 R	     2	       mov dx,aiceny
 6A41  CD 10		     2	       int 10h
 6A43  8B 0E 014A R	     2	       mov cx,aicenx+05
 6A47  8B 16 0147 R	     2	       mov dx,aiceny
 6A4B  CD 10		     2	       int 10h
 6A4D  8B 0E 0145 R	     2	       mov cx,aicenx
 6A51  8B 16 0142 R	     2	       mov dx,aiceny-05
 6A55  CD 10		     2	       int 10h
 6A57  8B 0E 0145 R	     2	       mov cx,aicenx
 6A5B  8B 16 014C R	     2	       mov dx,aiceny+05
 6A5F  CD 10		     2	       int 10h
 6A61  5D		     2	       pop bp
 6A62  5F		     2	       pop di
 6A63  5E		     2	       pop si
 6A64  5A		     2	       pop dx
 6A65  59		     2	       pop cx
 6A66  5B		     2	       pop bx
 6A67  58		     2	       pop ax
 6A68  50		     2	       push ax
 6A69  53		     2	       push bx
 6A6A  51		     2	       push cx
 6A6B  52		     2	       push dx
 6A6C  56		     2	       push si
 6A6D  57		     2	       push di
 6A6E  55		     2	       push bp
 6A6F  B4 0C		     2	       mov ah,0ch
 6A71  A0 0131 R	     2	       mov al,colo
 6A74  B7 00		     2	       mov bh,0
 6A76  8B 0E 0145 R	     2	       mov cx,aicenx
 6A7A  8B 16 0147 R	     2	       mov dx,aiceny
 6A7E  BE 0000		     2	       mov si,0         ;X
 6A81  BF 0004		     2	       mov di,04    ;Y
 6A84  BD FFFD		     2	       mov bp,1-04
 6A87			     2	??0365: 
 6A87  3B F7		     2		   cmp si,di
 6A89  7C 06		     2	       jl ??0366
 6A8B  8D 1E 6B24 R	     2	       lea bx,??036B
 6A8F  FF E3		     2	       jmp bx
 6A91			     2	??0366:
 6A91  46		     2		   inc si
 6A92			     2	??0367: 
 6A92  83 FD 00		     2	       cmp bp,0
 6A95  7D 09		     2	       jge ??0368
 6A97  03 EE		     2	       add bp,si
 6A99  03 EE		     2	       add bp,si
 6A9B  83 C5 01		     2	       add bp,1
 6A9E  EB 0C		     2	       jmp ??0369
 6AA0			     2	??0368: 
 6AA0  4F		     2		   dec di
 6AA1  03 EE		     2	       add bp,si
 6AA3  03 EE		     2	       add bp,si
 6AA5  2B EF		     2	       sub bp,di
 6AA7  2B EF		     2	       sub bp,di
 6AA9  83 C5 01		     2	       add bp,1
 6AAC			     2	??0369: 
 6AAC  B7 00		     2		   mov bh,0
 6AAE  8B 0E 0145 R	     2	       mov cx,aicenx
 6AB2  8B 16 0147 R	     2	       mov dx,aiceny
 6AB6  03 CE		     2	       add cx,si
 6AB8  03 D7		     2	       add dx,di
 6ABA  CD 10		     2	       int 10h
 6ABC  8B 0E 0145 R	     2	       mov cx,aicenx
 6AC0  8B 16 0147 R	     2	       mov dx,aiceny
 6AC4  2B CE		     2	       sub cx,si
 6AC6  03 D7		     2	       add dx,di
 6AC8  CD 10		     2	       int 10h
 6ACA  8B 0E 0145 R	     2	       mov cx,aicenx
 6ACE  8B 16 0147 R	     2	       mov dx,aiceny
 6AD2  03 CE		     2	       add cx,si
 6AD4  2B D7		     2	       sub dx,di
 6AD6  CD 10		     2	       int 10h
 6AD8  8B 0E 0145 R	     2	       mov cx,aicenx
 6ADC  8B 16 0147 R	     2	       mov dx,aiceny
 6AE0  2B CE		     2	       sub cx,si
 6AE2  2B D7		     2	       sub dx,di
 6AE4  CD 10		     2	       int 10h
 6AE6  8B 0E 0145 R	     2	       mov cx,aicenx
 6AEA  8B 16 0147 R	     2	       mov dx,aiceny
 6AEE  03 CF		     2	       add cx,di
 6AF0  03 D6		     2	       add dx,si
 6AF2  CD 10		     2	       int 10h
 6AF4  8B 0E 0145 R	     2	       mov cx,aicenx
 6AF8  8B 16 0147 R	     2	       mov dx,aiceny
 6AFC  2B CF		     2	       sub cx,di
 6AFE  03 D6		     2	       add dx,si
 6B00  CD 10		     2	       int 10h
 6B02  8B 0E 0145 R	     2	       mov cx,aicenx
 6B06  8B 16 0147 R	     2	       mov dx,aiceny
 6B0A  03 CF		     2	       add cx,di
 6B0C  2B D6		     2	       sub dx,si
 6B0E  CD 10		     2	       int 10h
 6B10  8B 0E 0145 R	     2	       mov cx,aicenx
 6B14  8B 16 0147 R	     2	       mov dx,aiceny
 6B18  2B CF		     2	       sub cx,di
 6B1A  2B D6		     2	       sub dx,si
 6B1C  CD 10		     2	       int 10h
 6B1E			     2	??036A: 
 6B1E  8D 1E 6A87 R	     2		   lea bx,??0365
 6B22  FF E3		     2	       jmp bx
 6B24			     2	??036B:
 6B24  B4 0C		     2	       mov ah,0ch
 6B26  A0 0131 R	     2	       mov al,colo
 6B29  B7 00		     2	       mov bh,0
 6B2B  8B 0E 0141 R	     2	       mov cx,aicenx-04
 6B2F  8B 16 0147 R	     2	       mov dx,aiceny
 6B33  CD 10		     2	       int 10h
 6B35  8B 0E 0149 R	     2	       mov cx,aicenx+04
 6B39  8B 16 0147 R	     2	       mov dx,aiceny
 6B3D  CD 10		     2	       int 10h
 6B3F  8B 0E 0145 R	     2	       mov cx,aicenx
 6B43  8B 16 0143 R	     2	       mov dx,aiceny-04
 6B47  CD 10		     2	       int 10h
 6B49  8B 0E 0145 R	     2	       mov cx,aicenx
 6B4D  8B 16 014B R	     2	       mov dx,aiceny+04
 6B51  CD 10		     2	       int 10h
 6B53  5D		     2	       pop bp
 6B54  5F		     2	       pop di
 6B55  5E		     2	       pop si
 6B56  5A		     2	       pop dx
 6B57  59		     2	       pop cx
 6B58  5B		     2	       pop bx
 6B59  58		     2	       pop ax
 6B5A  50		     2	       push ax
 6B5B  53		     2	       push bx
 6B5C  51		     2	       push cx
 6B5D  52		     2	       push dx
 6B5E  56		     2	       push si
 6B5F  57		     2	       push di
 6B60  55		     2	       push bp
 6B61  B4 0C		     2	       mov ah,0ch
 6B63  A0 0131 R	     2	       mov al,colo
 6B66  B7 00		     2	       mov bh,0
 6B68  8B 0E 0145 R	     2	       mov cx,aicenx
 6B6C  8B 16 0147 R	     2	       mov dx,aiceny
 6B70  BE 0000		     2	       mov si,0         ;X
 6B73  BF 0003		     2	       mov di,03    ;Y
 6B76  BD FFFE		     2	       mov bp,1-03
 6B79			     2	??036C: 
 6B79  3B F7		     2		   cmp si,di
 6B7B  7C 06		     2	       jl ??036D
 6B7D  8D 1E 6C16 R	     2	       lea bx,??0372
 6B81  FF E3		     2	       jmp bx
 6B83			     2	??036D:
 6B83  46		     2		   inc si
 6B84			     2	??036E: 
 6B84  83 FD 00		     2	       cmp bp,0
 6B87  7D 09		     2	       jge ??036F
 6B89  03 EE		     2	       add bp,si
 6B8B  03 EE		     2	       add bp,si
 6B8D  83 C5 01		     2	       add bp,1
 6B90  EB 0C		     2	       jmp ??0370
 6B92			     2	??036F: 
 6B92  4F		     2		   dec di
 6B93  03 EE		     2	       add bp,si
 6B95  03 EE		     2	       add bp,si
 6B97  2B EF		     2	       sub bp,di
 6B99  2B EF		     2	       sub bp,di
 6B9B  83 C5 01		     2	       add bp,1
 6B9E			     2	??0370: 
 6B9E  B7 00		     2		   mov bh,0
 6BA0  8B 0E 0145 R	     2	       mov cx,aicenx
 6BA4  8B 16 0147 R	     2	       mov dx,aiceny
 6BA8  03 CE		     2	       add cx,si
 6BAA  03 D7		     2	       add dx,di
 6BAC  CD 10		     2	       int 10h
 6BAE  8B 0E 0145 R	     2	       mov cx,aicenx
 6BB2  8B 16 0147 R	     2	       mov dx,aiceny
 6BB6  2B CE		     2	       sub cx,si
 6BB8  03 D7		     2	       add dx,di
 6BBA  CD 10		     2	       int 10h
 6BBC  8B 0E 0145 R	     2	       mov cx,aicenx
 6BC0  8B 16 0147 R	     2	       mov dx,aiceny
 6BC4  03 CE		     2	       add cx,si
 6BC6  2B D7		     2	       sub dx,di
 6BC8  CD 10		     2	       int 10h
 6BCA  8B 0E 0145 R	     2	       mov cx,aicenx
 6BCE  8B 16 0147 R	     2	       mov dx,aiceny
 6BD2  2B CE		     2	       sub cx,si
 6BD4  2B D7		     2	       sub dx,di
 6BD6  CD 10		     2	       int 10h
 6BD8  8B 0E 0145 R	     2	       mov cx,aicenx
 6BDC  8B 16 0147 R	     2	       mov dx,aiceny
 6BE0  03 CF		     2	       add cx,di
 6BE2  03 D6		     2	       add dx,si
 6BE4  CD 10		     2	       int 10h
 6BE6  8B 0E 0145 R	     2	       mov cx,aicenx
 6BEA  8B 16 0147 R	     2	       mov dx,aiceny
 6BEE  2B CF		     2	       sub cx,di
 6BF0  03 D6		     2	       add dx,si
 6BF2  CD 10		     2	       int 10h
 6BF4  8B 0E 0145 R	     2	       mov cx,aicenx
 6BF8  8B 16 0147 R	     2	       mov dx,aiceny
 6BFC  03 CF		     2	       add cx,di
 6BFE  2B D6		     2	       sub dx,si
 6C00  CD 10		     2	       int 10h
 6C02  8B 0E 0145 R	     2	       mov cx,aicenx
 6C06  8B 16 0147 R	     2	       mov dx,aiceny
 6C0A  2B CF		     2	       sub cx,di
 6C0C  2B D6		     2	       sub dx,si
 6C0E  CD 10		     2	       int 10h
 6C10			     2	??0371: 
 6C10  8D 1E 6B79 R	     2		   lea bx,??036C
 6C14  FF E3		     2	       jmp bx
 6C16			     2	??0372:
 6C16  B4 0C		     2	       mov ah,0ch
 6C18  A0 0131 R	     2	       mov al,colo
 6C1B  B7 00		     2	       mov bh,0
 6C1D  8B 0E 0142 R	     2	       mov cx,aicenx-03
 6C21  8B 16 0147 R	     2	       mov dx,aiceny
 6C25  CD 10		     2	       int 10h
 6C27  8B 0E 0148 R	     2	       mov cx,aicenx+03
 6C2B  8B 16 0147 R	     2	       mov dx,aiceny
 6C2F  CD 10		     2	       int 10h
 6C31  8B 0E 0145 R	     2	       mov cx,aicenx
 6C35  8B 16 0144 R	     2	       mov dx,aiceny-03
 6C39  CD 10		     2	       int 10h
 6C3B  8B 0E 0145 R	     2	       mov cx,aicenx
 6C3F  8B 16 014A R	     2	       mov dx,aiceny+03
 6C43  CD 10		     2	       int 10h
 6C45  5D		     2	       pop bp
 6C46  5F		     2	       pop di
 6C47  5E		     2	       pop si
 6C48  5A		     2	       pop dx
 6C49  59		     2	       pop cx
 6C4A  5B		     2	       pop bx
 6C4B  58		     2	       pop ax
 6C4C  50		     2	       push ax
 6C4D  53		     2	       push bx
 6C4E  51		     2	       push cx
 6C4F  52		     2	       push dx
 6C50  56		     2	       push si
 6C51  57		     2	       push di
 6C52  55		     2	       push bp
 6C53  B4 0C		     2	       mov ah,0ch
 6C55  A0 0131 R	     2	       mov al,colo
 6C58  B7 00		     2	       mov bh,0
 6C5A  8B 0E 0145 R	     2	       mov cx,aicenx
 6C5E  8B 16 0147 R	     2	       mov dx,aiceny
 6C62  BE 0000		     2	       mov si,0         ;X
 6C65  BF 0002		     2	       mov di,02    ;Y
 6C68  BD FFFF		     2	       mov bp,1-02
 6C6B			     2	??0373: 
 6C6B  3B F7		     2		   cmp si,di
 6C6D  7C 06		     2	       jl ??0374
 6C6F  8D 1E 6D08 R	     2	       lea bx,??0379
 6C73  FF E3		     2	       jmp bx
 6C75			     2	??0374:
 6C75  46		     2		   inc si
 6C76			     2	??0375: 
 6C76  83 FD 00		     2	       cmp bp,0
 6C79  7D 09		     2	       jge ??0376
 6C7B  03 EE		     2	       add bp,si
 6C7D  03 EE		     2	       add bp,si
 6C7F  83 C5 01		     2	       add bp,1
 6C82  EB 0C		     2	       jmp ??0377
 6C84			     2	??0376: 
 6C84  4F		     2		   dec di
 6C85  03 EE		     2	       add bp,si
 6C87  03 EE		     2	       add bp,si
 6C89  2B EF		     2	       sub bp,di
 6C8B  2B EF		     2	       sub bp,di
 6C8D  83 C5 01		     2	       add bp,1
 6C90			     2	??0377: 
 6C90  B7 00		     2		   mov bh,0
 6C92  8B 0E 0145 R	     2	       mov cx,aicenx
 6C96  8B 16 0147 R	     2	       mov dx,aiceny
 6C9A  03 CE		     2	       add cx,si
 6C9C  03 D7		     2	       add dx,di
 6C9E  CD 10		     2	       int 10h
 6CA0  8B 0E 0145 R	     2	       mov cx,aicenx
 6CA4  8B 16 0147 R	     2	       mov dx,aiceny
 6CA8  2B CE		     2	       sub cx,si
 6CAA  03 D7		     2	       add dx,di
 6CAC  CD 10		     2	       int 10h
 6CAE  8B 0E 0145 R	     2	       mov cx,aicenx
 6CB2  8B 16 0147 R	     2	       mov dx,aiceny
 6CB6  03 CE		     2	       add cx,si
 6CB8  2B D7		     2	       sub dx,di
 6CBA  CD 10		     2	       int 10h
 6CBC  8B 0E 0145 R	     2	       mov cx,aicenx
 6CC0  8B 16 0147 R	     2	       mov dx,aiceny
 6CC4  2B CE		     2	       sub cx,si
 6CC6  2B D7		     2	       sub dx,di
 6CC8  CD 10		     2	       int 10h
 6CCA  8B 0E 0145 R	     2	       mov cx,aicenx
 6CCE  8B 16 0147 R	     2	       mov dx,aiceny
 6CD2  03 CF		     2	       add cx,di
 6CD4  03 D6		     2	       add dx,si
 6CD6  CD 10		     2	       int 10h
 6CD8  8B 0E 0145 R	     2	       mov cx,aicenx
 6CDC  8B 16 0147 R	     2	       mov dx,aiceny
 6CE0  2B CF		     2	       sub cx,di
 6CE2  03 D6		     2	       add dx,si
 6CE4  CD 10		     2	       int 10h
 6CE6  8B 0E 0145 R	     2	       mov cx,aicenx
 6CEA  8B 16 0147 R	     2	       mov dx,aiceny
 6CEE  03 CF		     2	       add cx,di
 6CF0  2B D6		     2	       sub dx,si
 6CF2  CD 10		     2	       int 10h
 6CF4  8B 0E 0145 R	     2	       mov cx,aicenx
 6CF8  8B 16 0147 R	     2	       mov dx,aiceny
 6CFC  2B CF		     2	       sub cx,di
 6CFE  2B D6		     2	       sub dx,si
 6D00  CD 10		     2	       int 10h
 6D02			     2	??0378: 
 6D02  8D 1E 6C6B R	     2		   lea bx,??0373
 6D06  FF E3		     2	       jmp bx
 6D08			     2	??0379:
 6D08  B4 0C		     2	       mov ah,0ch
 6D0A  A0 0131 R	     2	       mov al,colo
 6D0D  B7 00		     2	       mov bh,0
 6D0F  8B 0E 0143 R	     2	       mov cx,aicenx-02
 6D13  8B 16 0147 R	     2	       mov dx,aiceny
 6D17  CD 10		     2	       int 10h
 6D19  8B 0E 0147 R	     2	       mov cx,aicenx+02
 6D1D  8B 16 0147 R	     2	       mov dx,aiceny
 6D21  CD 10		     2	       int 10h
 6D23  8B 0E 0145 R	     2	       mov cx,aicenx
 6D27  8B 16 0145 R	     2	       mov dx,aiceny-02
 6D2B  CD 10		     2	       int 10h
 6D2D  8B 0E 0145 R	     2	       mov cx,aicenx
 6D31  8B 16 0149 R	     2	       mov dx,aiceny+02
 6D35  CD 10		     2	       int 10h
 6D37  5D		     2	       pop bp
 6D38  5F		     2	       pop di
 6D39  5E		     2	       pop si
 6D3A  5A		     2	       pop dx
 6D3B  59		     2	       pop cx
 6D3C  5B		     2	       pop bx
 6D3D  58		     2	       pop ax
 6D3E  50		     2	       push ax
 6D3F  53		     2	       push bx
 6D40  51		     2	       push cx
 6D41  52		     2	       push dx
 6D42  56		     2	       push si
 6D43  57		     2	       push di
 6D44  55		     2	       push bp
 6D45  B4 0C		     2	       mov ah,0ch
 6D47  A0 0131 R	     2	       mov al,colo
 6D4A  B7 00		     2	       mov bh,0
 6D4C  8B 0E 0145 R	     2	       mov cx,aicenx
 6D50  8B 16 0147 R	     2	       mov dx,aiceny
 6D54  BE 0000		     2	       mov si,0         ;X
 6D57  BF 0001		     2	       mov di,01    ;Y
 6D5A  BD 0000		     2	       mov bp,1-01
 6D5D			     2	??037A: 
 6D5D  3B F7		     2		   cmp si,di
 6D5F  7C 06		     2	       jl ??037B
 6D61  8D 1E 6DFA R	     2	       lea bx,??0380
 6D65  FF E3		     2	       jmp bx
 6D67			     2	??037B:
 6D67  46		     2		   inc si
 6D68			     2	??037C: 
 6D68  83 FD 00		     2	       cmp bp,0
 6D6B  7D 09		     2	       jge ??037D
 6D6D  03 EE		     2	       add bp,si
 6D6F  03 EE		     2	       add bp,si
 6D71  83 C5 01		     2	       add bp,1
 6D74  EB 0C		     2	       jmp ??037E
 6D76			     2	??037D: 
 6D76  4F		     2		   dec di
 6D77  03 EE		     2	       add bp,si
 6D79  03 EE		     2	       add bp,si
 6D7B  2B EF		     2	       sub bp,di
 6D7D  2B EF		     2	       sub bp,di
 6D7F  83 C5 01		     2	       add bp,1
 6D82			     2	??037E: 
 6D82  B7 00		     2		   mov bh,0
 6D84  8B 0E 0145 R	     2	       mov cx,aicenx
 6D88  8B 16 0147 R	     2	       mov dx,aiceny
 6D8C  03 CE		     2	       add cx,si
 6D8E  03 D7		     2	       add dx,di
 6D90  CD 10		     2	       int 10h
 6D92  8B 0E 0145 R	     2	       mov cx,aicenx
 6D96  8B 16 0147 R	     2	       mov dx,aiceny
 6D9A  2B CE		     2	       sub cx,si
 6D9C  03 D7		     2	       add dx,di
 6D9E  CD 10		     2	       int 10h
 6DA0  8B 0E 0145 R	     2	       mov cx,aicenx
 6DA4  8B 16 0147 R	     2	       mov dx,aiceny
 6DA8  03 CE		     2	       add cx,si
 6DAA  2B D7		     2	       sub dx,di
 6DAC  CD 10		     2	       int 10h
 6DAE  8B 0E 0145 R	     2	       mov cx,aicenx
 6DB2  8B 16 0147 R	     2	       mov dx,aiceny
 6DB6  2B CE		     2	       sub cx,si
 6DB8  2B D7		     2	       sub dx,di
 6DBA  CD 10		     2	       int 10h
 6DBC  8B 0E 0145 R	     2	       mov cx,aicenx
 6DC0  8B 16 0147 R	     2	       mov dx,aiceny
 6DC4  03 CF		     2	       add cx,di
 6DC6  03 D6		     2	       add dx,si
 6DC8  CD 10		     2	       int 10h
 6DCA  8B 0E 0145 R	     2	       mov cx,aicenx
 6DCE  8B 16 0147 R	     2	       mov dx,aiceny
 6DD2  2B CF		     2	       sub cx,di
 6DD4  03 D6		     2	       add dx,si
 6DD6  CD 10		     2	       int 10h
 6DD8  8B 0E 0145 R	     2	       mov cx,aicenx
 6DDC  8B 16 0147 R	     2	       mov dx,aiceny
 6DE0  03 CF		     2	       add cx,di
 6DE2  2B D6		     2	       sub dx,si
 6DE4  CD 10		     2	       int 10h
 6DE6  8B 0E 0145 R	     2	       mov cx,aicenx
 6DEA  8B 16 0147 R	     2	       mov dx,aiceny
 6DEE  2B CF		     2	       sub cx,di
 6DF0  2B D6		     2	       sub dx,si
 6DF2  CD 10		     2	       int 10h
 6DF4			     2	??037F: 
 6DF4  8D 1E 6D5D R	     2		   lea bx,??037A
 6DF8  FF E3		     2	       jmp bx
 6DFA			     2	??0380:
 6DFA  B4 0C		     2	       mov ah,0ch
 6DFC  A0 0131 R	     2	       mov al,colo
 6DFF  B7 00		     2	       mov bh,0
 6E01  8B 0E 0144 R	     2	       mov cx,aicenx-01
 6E05  8B 16 0147 R	     2	       mov dx,aiceny
 6E09  CD 10		     2	       int 10h
 6E0B  8B 0E 0146 R	     2	       mov cx,aicenx+01
 6E0F  8B 16 0147 R	     2	       mov dx,aiceny
 6E13  CD 10		     2	       int 10h
 6E15  8B 0E 0145 R	     2	       mov cx,aicenx
 6E19  8B 16 0146 R	     2	       mov dx,aiceny-01
 6E1D  CD 10		     2	       int 10h
 6E1F  8B 0E 0145 R	     2	       mov cx,aicenx
 6E23  8B 16 0148 R	     2	       mov dx,aiceny+01
 6E27  CD 10		     2	       int 10h
 6E29  5D		     2	       pop bp
 6E2A  5F		     2	       pop di
 6E2B  5E		     2	       pop si
 6E2C  5A		     2	       pop dx
 6E2D  59		     2	       pop cx
 6E2E  5B		     2	       pop bx
 6E2F  58		     2	       pop ax
					DROP aicenx,aiceny,state
 6E30  50		     1		push ax
 6E31  53		     1		push bx
 6E32  51		     1		push cx
 6E33  52		     1		push dx
 6E34  A1 0145 R	     1		mov ax,aicenx
 6E37  83 E8 2D		     1		sub ax,45
 6E3A  2B D2		     1		sub dx,dx
 6E3C  BB 0032		     1		mov bx,50
 6E3F  F7 F3		     1		div bx
 6E41  83 C0 04		     1		add ax,4
 6E44  A3 0153 R	     1		mov colx,ax;第几列
 6E47  A1 0147 R	     1		mov ax,aiceny
 6E4A  83 E8 2D		     1		sub ax,45
 6E4D  2B D2		     1		sub dx,dx
 6E4F  BB 0032		     1		mov bx,50
 6E52  F7 F3		     1		div bx
 6E54  83 C0 04		     1		add ax,4
 6E57  A3 0151 R	     1		mov rowy,ax;第几行
 6E5A  A1 0151 R	     1		mov ax,rowy
 6E5D  BB 0011		     1		mov bx,17
 6E60  F7 E3		     1		mul bx
 6E62  03 06 0153 R	     1		add ax,colx
 6E66  A3 0121 R	     1		mov pianyi,ax
 6E69  BB 0030 R	     1		mov bx,offset map0
 6E6C  03 1E 0121 R	     1		add bx,pianyi
 6E70  A0 0130 R	     1		mov al,state
 6E73  88 07		     1		mov [bx],al
 6E75  5A		     1		pop dx
 6E76  59		     1		pop cx
 6E77  5B		     1		pop bx
 6E78  58		     1		pop ax
					
					;mov ax,aicenx
					;mov pos_lastx,ax
					;mov ax,aiceny
					;mov pos_lasty,ax
					
					JUDGEROW aicenx,aiceny,state
 6E79  50		     1		push ax
 6E7A  53		     1		push bx
 6E7B  51		     1		push cx
 6E7C  52		     1		push dx
 6E7D  A1 0145 R	     1		mov ax,aicenx
 6E80  83 E8 2D		     1		sub ax,45
 6E83  2B D2		     1		sub dx,dx
 6E85  BB 0032		     1		mov bx,50
 6E88  F7 F3		     1		div bx
 6E8A  83 C0 04		     1		add ax,4
 6E8D  A3 0157 R	     1		mov jcolx,ax;第几列
 6E90  A1 0147 R	     1		mov ax,aiceny
 6E93  83 E8 2D		     1		sub ax,45
 6E96  2B D2		     1		sub dx,dx
 6E98  BB 0032		     1		mov bx,50
 6E9B  F7 F3		     1		div bx
 6E9D  83 C0 04		     1		add ax,4
 6EA0  A3 0155 R	     1		mov jrowy,ax;第几行
 6EA3  A1 0155 R	     1		mov ax,jrowy
 6EA6  BB 0011		     1		mov bx,17
 6EA9  F7 E3		     1		mul bx
 6EAB  03 06 0157 R	     1		add ax,jcolx
 6EAF  A3 0121 R	     1		mov pianyi,ax
 6EB2  BB 0030 R	     1		mov bx,offset map0
 6EB5  A1 0121 R	     1		mov ax,pianyi
 6EB8  03 D8		     1		add bx,ax
 6EBA  C6 06 0132 R 01	     1		mov qizinum,1
 6EBF  8A 16 0132 R	     1		mov dl,qizinum
 6EC3  8A 36 0130 R	     1		mov dh,state
 6EC7  53		     1		push bx
 6EC8  B1 01		     1		mov cl,1
 6ECA			     1	??0381:
 6ECA  83 C3 01		     1		add bx,1
 6ECD  8A 2F		     1		mov ch,[bx]
 6ECF  38 F5		     1		cmp ch,dh
 6ED1  75 0B		     1		jnz ??0383
 6ED3  80 C2 01		     1		add dl,1
 6ED6  80 C1 01		     1		add cl,1
 6ED9  80 F9 05		     1		cmp cl,5
 6EDC  75 EC		     1		jnz ??0381
 6EDE			     1	??0383:
 6EDE  5B		     1		pop bx
 6EDF  B1 01		     1		mov cl,1
 6EE1			     1	??0382:
 6EE1  83 EB 01		     1		sub bx,1
 6EE4  8A 2F		     1		mov ch,[bx]
 6EE6  38 F5		     1		cmp ch,dh
 6EE8  75 0B		     1		jnz ??0384
 6EEA  80 C2 01		     1		add dl,1
 6EED  80 C1 01		     1		add cl,1
 6EF0  80 F9 05		     1		cmp cl,5
 6EF3  75 EC		     1		jnz ??0382
 6EF5			     1	??0384:
 6EF5  88 16 0140 R	     1		mov lianzigeshu,dl
 6EF9  80 FA 05		     1		cmp dl,5
 6EFC  73 02		     1		jae ??0385
 6EFE  EB 07		     1		jmp ??0386
 6F00			     1	??0385:
 6F00  C6 06 0123 R 01	     1		mov judg,1
 6F05  EB 05		     1		jmp ??0387
 6F07			     1	??0386:
 6F07  C6 06 0123 R 00	     1		mov judg,0
 6F0C			     1	??0387:
 6F0C  5A		     1		pop dx
 6F0D  59		     1		pop cx
 6F0E  5B		     1		pop bx
 6F0F  58		     1		pop ax
 6F10  80 3E 0123 R 01			cmp judg,1
 6F15  75 03 E9 3206			jz exitgame
					JUDGECOL aicenx,aiceny,state
 6F1A  50		     1		push ax
 6F1B  53		     1		push bx
 6F1C  51		     1		push cx
 6F1D  52		     1		push dx
 6F1E  A1 0145 R	     1		mov ax,aicenx
 6F21  83 E8 2D		     1		sub ax,45
 6F24  2B D2		     1		sub dx,dx
 6F26  BB 0032		     1		mov bx,50
 6F29  F7 F3		     1		div bx
 6F2B  83 C0 04		     1		add ax,4
 6F2E  A3 0157 R	     1		mov jcolx,ax;第几列
 6F31  A1 0147 R	     1		mov ax,aiceny
 6F34  83 E8 2D		     1		sub ax,45
 6F37  2B D2		     1		sub dx,dx
 6F39  BB 0032		     1		mov bx,50
 6F3C  F7 F3		     1		div bx
 6F3E  83 C0 04		     1		add ax,4
 6F41  A3 0155 R	     1		mov jrowy,ax;第几行
 6F44  A1 0155 R	     1		mov ax,jrowy
 6F47  BB 0011		     1		mov bx,17
 6F4A  F7 E3		     1		mul bx
 6F4C  03 06 0157 R	     1		add ax,jcolx
 6F50  A3 0121 R	     1		mov pianyi,ax
 6F53  BB 0030 R	     1		mov bx,offset map0
 6F56  A1 0121 R	     1		mov ax,pianyi
 6F59  03 D8		     1		add bx,ax
 6F5B  C6 06 0132 R 01	     1		mov qizinum,1
 6F60  8A 16 0132 R	     1		mov dl,qizinum
 6F64  8A 36 0130 R	     1		mov dh,state
 6F68  53		     1		push bx
 6F69  B1 01		     1		mov cl,1
 6F6B			     1	??0388:
 6F6B  83 C3 11		     1		add bx,17
 6F6E  8A 2F		     1		mov ch,[bx]
 6F70  38 F5		     1		cmp ch,dh
 6F72  75 0B		     1		jnz ??038A
 6F74  80 C2 01		     1		add dl,1
 6F77  80 C1 01		     1		add cl,1
 6F7A  80 F9 05		     1		cmp cl,5
 6F7D  75 EC		     1		jnz ??0388
 6F7F			     1	??038A:
 6F7F  5B		     1		pop bx
 6F80  B1 01		     1		mov cl,1
 6F82			     1	??0389:
 6F82  83 EB 11		     1		sub bx,17
 6F85  8A 2F		     1		mov ch,[bx]
 6F87  38 F5		     1		cmp ch,dh
 6F89  75 0B		     1		jnz ??038B
 6F8B  80 C2 01		     1		add dl,1
 6F8E  80 C1 01		     1		add cl,1
 6F91  80 F9 05		     1		cmp cl,5
 6F94  75 EC		     1		jnz ??0389
 6F96			     1	??038B:
 6F96  88 16 0140 R	     1		mov lianzigeshu,dl
 6F9A  80 FA 05		     1		cmp dl,5
 6F9D  73 02		     1		jae ??038C
 6F9F  EB 07		     1		jmp ??038D
 6FA1			     1	??038C:
 6FA1  C6 06 0123 R 01	     1		mov judg,1
 6FA6  EB 05		     1		jmp ??038E
 6FA8			     1	??038D:
 6FA8  C6 06 0123 R 00	     1		mov judg,0
 6FAD			     1	??038E:
 6FAD  5A		     1		pop dx
 6FAE  59		     1		pop cx
 6FAF  5B		     1		pop bx
 6FB0  58		     1		pop ax
 6FB1  80 3E 0123 R 01			cmp judg,1
 6FB6  75 03 E9 3165			jz exitgame
					JUDGELUTORD aicenx,aiceny,state
 6FBB  50		     1		push ax
 6FBC  53		     1		push bx
 6FBD  51		     1		push cx
 6FBE  52		     1		push dx
 6FBF  A1 0145 R	     1		mov ax,aicenx
 6FC2  83 E8 2D		     1		sub ax,45
 6FC5  2B D2		     1		sub dx,dx
 6FC7  BB 0032		     1		mov bx,50
 6FCA  F7 F3		     1		div bx
 6FCC  83 C0 04		     1		add ax,4
 6FCF  A3 0157 R	     1		mov jcolx,ax;第几列
 6FD2  A1 0147 R	     1		mov ax,aiceny
 6FD5  83 E8 2D		     1		sub ax,45
 6FD8  2B D2		     1		sub dx,dx
 6FDA  BB 0032		     1		mov bx,50
 6FDD  F7 F3		     1		div bx
 6FDF  83 C0 04		     1		add ax,4
 6FE2  A3 0155 R	     1		mov jrowy,ax;第几行
 6FE5  A1 0155 R	     1		mov ax,jrowy
 6FE8  BB 0011		     1		mov bx,17
 6FEB  F7 E3		     1		mul bx
 6FED  03 06 0157 R	     1		add ax,jcolx
 6FF1  A3 0121 R	     1		mov pianyi,ax
 6FF4  BB 0030 R	     1		mov bx,offset map0
 6FF7  A1 0121 R	     1		mov ax,pianyi
 6FFA  03 D8		     1		add bx,ax
 6FFC  C6 06 0132 R 01	     1		mov qizinum,1
 7001  8A 16 0132 R	     1		mov dl,qizinum
 7005  8A 36 0130 R	     1		mov dh,state
 7009  53		     1		push bx
 700A  B1 01		     1		mov cl,1
 700C			     1	??038F:
 700C  83 C3 12		     1		add bx,18
 700F  8A 2F		     1		mov ch,[bx]
 7011  38 F5		     1		cmp ch,dh
 7013  75 0B		     1		jnz ??0391
 7015  80 C2 01		     1		add dl,1
 7018  80 C1 01		     1		add cl,1
 701B  80 F9 05		     1		cmp cl,5
 701E  75 EC		     1		jnz ??038F
 7020			     1	??0391:
 7020  5B		     1		pop bx
 7021  B1 01		     1		mov cl,1
 7023			     1	??0390:
 7023  83 EB 12		     1		sub bx,18
 7026  8A 2F		     1		mov ch,[bx]
 7028  38 F5		     1		cmp ch,dh
 702A  75 0B		     1		jnz ??0392
 702C  80 C2 01		     1		add dl,1
 702F  80 C1 01		     1		add cl,1
 7032  80 F9 05		     1		cmp cl,5
 7035  75 EC		     1		jnz ??0390
 7037			     1	??0392:
 7037  88 16 0140 R	     1		mov lianzigeshu,dl
 703B  80 FA 05		     1		cmp dl,5
 703E  73 02		     1		jae ??0393
 7040  EB 07		     1		jmp ??0394
 7042			     1	??0393:
 7042  C6 06 0123 R 01	     1		mov judg,1
 7047  EB 05		     1		jmp ??0395
 7049			     1	??0394:
 7049  C6 06 0123 R 00	     1		mov judg,0
 704E			     1	??0395:
 704E  5A		     1		pop dx
 704F  59		     1		pop cx
 7050  5B		     1		pop bx
 7051  58		     1		pop ax
 7052  80 3E 0123 R 01			cmp judg,1
 7057  75 03 E9 30C4			jz exitgame
					JUDGERUTOLD aicenx,aiceny,state
 705C  50		     1		push ax
 705D  53		     1		push bx
 705E  51		     1		push cx
 705F  52		     1		push dx
 7060  A1 0145 R	     1		mov ax,aicenx
 7063  83 E8 2D		     1		sub ax,45
 7066  2B D2		     1		sub dx,dx
 7068  BB 0032		     1		mov bx,50
 706B  F7 F3		     1		div bx
 706D  83 C0 04		     1		add ax,4
 7070  A3 0157 R	     1		mov jcolx,ax;第几列
 7073  A1 0147 R	     1		mov ax,aiceny
 7076  83 E8 2D		     1		sub ax,45
 7079  2B D2		     1		sub dx,dx
 707B  BB 0032		     1		mov bx,50
 707E  F7 F3		     1		div bx
 7080  83 C0 04		     1		add ax,4
 7083  A3 0155 R	     1		mov jrowy,ax;第几行
 7086  A1 0155 R	     1		mov ax,jrowy
 7089  BB 0011		     1		mov bx,17
 708C  F7 E3		     1		mul bx
 708E  03 06 0157 R	     1		add ax,jcolx
 7092  A3 0121 R	     1		mov pianyi,ax
 7095  BB 0030 R	     1		mov bx,offset map0
 7098  A1 0121 R	     1		mov ax,pianyi
 709B  03 D8		     1		add bx,ax
 709D  C6 06 0132 R 01	     1		mov qizinum,1
 70A2  8A 16 0132 R	     1		mov dl,qizinum
 70A6  8A 36 0130 R	     1		mov dh,state
 70AA  53		     1		push bx
 70AB  B1 01		     1		mov cl,1
 70AD			     1	??0396:
 70AD  83 C3 10		     1		add bx,16
 70B0  8A 2F		     1		mov ch,[bx]
 70B2  38 F5		     1		cmp ch,dh
 70B4  75 0B		     1		jnz ??0398
 70B6  80 C2 01		     1		add dl,1
 70B9  80 C1 01		     1		add cl,1
 70BC  80 F9 05		     1		cmp cl,5
 70BF  75 EC		     1		jnz ??0396
 70C1			     1	??0398:
 70C1  5B		     1		pop bx
 70C2  B1 01		     1		mov cl,1
 70C4			     1	??0397:
 70C4  83 EB 10		     1		sub bx,16
 70C7  8A 2F		     1		mov ch,[bx]
 70C9  38 F5		     1		cmp ch,dh
 70CB  75 0B		     1		jnz ??0399
 70CD  80 C2 01		     1		add dl,1
 70D0  80 C1 01		     1		add cl,1
 70D3  80 F9 05		     1		cmp cl,5
 70D6  75 EC		     1		jnz ??0397
 70D8			     1	??0399:
 70D8  88 16 0140 R	     1		mov lianzigeshu,dl
 70DC  80 FA 05		     1		cmp dl,5
 70DF  73 02		     1		jae ??039A
 70E1  EB 07		     1		jmp ??039B
 70E3			     1	??039A:
 70E3  C6 06 0123 R 01	     1		mov judg,1
 70E8  EB 05		     1		jmp ??039C
 70EA			     1	??039B:
 70EA  C6 06 0123 R 00	     1		mov judg,0
 70EF			     1	??039C:
 70EF  5A		     1		pop dx
 70F0  59		     1		pop cx
 70F1  5B		     1		pop bx
 70F2  58		     1		pop ax
 70F3  80 3E 0123 R 01			cmp judg,1
 70F8  75 03 E9 3023			jz exitgame	
					
 70FD  E9 2FFB				jmp change
					
 7100				people:
					;获得鼠标坐标
 7100  B8 0003				mov ax,03h
 7103  CD 33				int 33h
 7105  8B C1				mov ax,cx
 7107  A3 0020 R			mov pos_x,ax
 710A  8B C2				mov ax,dx
 710C  A3 0022 R			mov pos_y,ax	
					
					;得到离此鼠标最近的棋盘点
					GET_POSNEARX pos_x
 710F  50		     1		push ax
 7110  53		     1		push bx
 7111  51		     1		push cx
 7112  52		     1		push dx
 7113  A1 0020 R	     1		mov ax,pos_x
 7116  83 F8 1E		     1		cmp ax,30
 7119  72 23		     1		jb ??039D
 711B  3D 01CC		     1		cmp ax,460
 711E  77 1E		     1		ja ??039D
 7120  83 E8 1E		     1		sub ax,30
 7123  2B D2		     1		sub dx,dx
 7125  BB 0032		     1		mov bx,50
 7128  F7 F3		     1		div bx
 712A  83 FA 1E		     1		cmp dx,30
 712D  77 0F		     1		ja ??039D
 712F  2B D2		     1		sub dx,dx
 7131  BA 0032		     1		mov dx,50
 7134  F7 E2		     1		mul dx
 7136  83 C0 2D		     1		add ax,45
 7139  A3 0024 R	     1		mov pos_cenx,ax
 713C  EB 06		     1		jmp ??039E
 713E			     1	??039D:
 713E  C7 06 0024 R 0000     1		mov pos_cenx,0
 7144			     1	??039E:
 7144  5A		     1		pop dx
 7145  59		     1		pop cx
 7146  5B		     1		pop bx
 7147  58		     1		pop ax
					GET_POSNEARY pos_y
 7148  50		     1		push ax
 7149  53		     1		push bx
 714A  51		     1		push cx
 714B  52		     1		push dx
 714C  A1 0022 R	     1		mov ax,pos_y
 714F  83 F8 1E		     1		cmp ax,30
 7152  72 23		     1		jb ??039F
 7154  3D 01CC		     1		cmp ax,460
 7157  77 1E		     1		ja ??039F
 7159  83 E8 1E		     1		sub ax,30
 715C  2B D2		     1		sub dx,dx
 715E  BB 0032		     1		mov bx,50
 7161  F7 F3		     1		div bx
 7163  83 FA 1E		     1		cmp dx,30
 7166  77 0F		     1		ja ??039F
 7168  2B D2		     1		sub dx,dx
 716A  BA 0032		     1		mov dx,50
 716D  F7 E2		     1		mul dx
 716F  83 C0 2D		     1		add ax,45
 7172  A3 0026 R	     1		mov pos_ceny,ax
 7175  EB 06		     1		jmp ??03A0
 7177			     1	??039F:
 7177  C7 06 0026 R 0000     1		mov pos_ceny,0
 717D			     1	??03A0:
 717D  5A		     1		pop dx
 717E  59		     1		pop cx
 717F  5B		     1		pop bx
 7180  58		     1		pop ax
					
					;如果此鼠标位置不合法，则至少有一个为0
 7181  83 3E 0024 R 00			cmp pos_cenx,0
 7186  75 03 E9 2F9B			jz loop3
 718B  83 3E 0026 R 00			cmp pos_ceny,0
 7190  75 03 E9 2F91			jz loop3
					
					;如果鼠标位置合法，并且当前鼠标坐标值发生改变
 7195  A1 0024 R			mov ax,pos_cenx
 7198  8B 1E 0028 R			mov bx,pos_lastx
 719C  3B C3				cmp ax,bx
 719E  75 0E				jnz loop2
 71A0  A1 0026 R			mov ax,pos_ceny
 71A3  8B 1E 002A R			mov bx,pos_lasty
 71A7  3B C3				cmp ax,bx
 71A9  75 03				jnz loop2
					
					;如果鼠标位置没有改变
 71AB  E9 0398				jmp loop1

 71AE				loop2:

					JUDGE1 pos_lastx,pos_lasty
 71AE  50		     1		push ax
 71AF  53		     1		push bx
 71B0  51		     1		push cx
 71B1  52		     1		push dx
 71B2  A1 0028 R	     1		mov ax,pos_lastx
 71B5  83 E8 2D		     1		sub ax,45
 71B8  2B D2		     1		sub dx,dx
 71BA  BB 0032		     1		mov bx,50
 71BD  F7 F3		     1		div bx
 71BF  83 C0 04		     1		add ax,4
 71C2  A3 0153 R	     1		mov colx,ax;第几列
 71C5  A1 002A R	     1		mov ax,pos_lasty
 71C8  83 E8 2D		     1		sub ax,45
 71CB  2B D2		     1		sub dx,dx
 71CD  BB 0032		     1		mov bx,50
 71D0  F7 F3		     1		div bx
 71D2  83 C0 04		     1		add ax,4
 71D5  A3 0151 R	     1		mov rowy,ax;第几行
 71D8  A1 0151 R	     1		mov ax,rowy
 71DB  BB 0011		     1		mov bx,17
 71DE  F7 E3		     1		mul bx
 71E0  03 06 0153 R	     1		add ax,colx
 71E4  A3 0121 R	     1		mov pianyi,ax
 71E7  2B C9		     1		sub cx,cx
 71E9  BB 0030 R	     1		mov bx,offset map0
 71EC  03 1E 0121 R	     1		add bx,pianyi
 71F0  8A 0F		     1		mov cl,[bx]
 71F2  80 F9 00		     1		cmp cl,0
 71F5  74 07		     1		jz ??03A1
 71F7  C6 06 0120 R 00	     1		mov jud1,0
 71FC  EB 05		     1		jmp ??03A2
 71FE			     1	??03A1:
 71FE  C6 06 0120 R 01	     1		mov jud1,1
 7203			     1	??03A2:
 7203  5A		     1		pop dx
 7204  59		     1		pop cx
 7205  5B		     1		pop bx
 7206  58		     1		pop ax
 7207  80 3E 0120 R 00			cmp jud1,0
 720C  75 03 E9 015F			jz nodraw1 
						
					;将上次鼠标位置隐藏
					DRAW_CURSOR pos_lastx,pos_lasty,14
 7211  50		     1		push ax
 7212  53		     1		push bx
 7213  51		     1		push cx
 7214  52		     1		push dx
 7215  A1 0028 R	     1		mov ax,pos_lastx
 7218  8B 1E 002A R	     1		mov bx,pos_lasty
 721C  50		     1		push ax
 721D  53		     1		push bx
 721E  83 E8 14		     1		sub ax,20
 7221  83 EB 05		     1		sub bx,5
 7224  50		     2		push ax
 7225  53		     2		push bx
 7226  51		     2		push cx
 7227  52		     2		push dx
 7228  8B C8		     2		mov cx,ax
 722A  8B D3		     2		mov dx,bx
 722C  8B C1		     2		mov ax,cx
 722E  83 C0 0F		     2		add ax,15
 7231			     2		??03A3:
 7231  50		     2			push ax
 7232  B7 00		     2			mov bh,0
 7234  B4 0C		     2			mov ah,0ch
 7236  B0 0E		     2			mov al,14
 7238  CD 10		     2			int 10h
 723A  58		     2			pop ax
 723B  41		     2			inc cx
 723C  3B C8		     2			cmp cx,ax
 723E  75 F1		     2			jnz ??03A3
 7240  5A		     2		pop dx
 7241  59		     2		pop cx
 7242  5B		     2		pop bx
 7243  58		     2		pop ax
 7244  5B		     1		pop bx
 7245  58		     1		pop ax
 7246  50		     1		push ax
 7247  53		     1		push bx
 7248  83 E8 05		     1		sub ax,5
 724B  83 EB 14		     1		sub bx,20
 724E  50		     2		push ax
 724F  53		     2		push bx
 7250  51		     2		push cx
 7251  52		     2		push dx
 7252  8B C8		     2		mov cx,ax
 7254  8B D3		     2		mov dx,bx
 7256  8B C2		     2		mov ax,dx
 7258  83 C0 0F		     2		add ax,15
 725B			     2		??03A4:
 725B  50		     2			push ax
 725C  B7 00		     2			mov bh,0
 725E  B4 0C		     2			mov ah,0ch
 7260  B0 0E		     2			mov al,14
 7262  CD 10		     2			int 10h
 7264  58		     2			pop ax
 7265  42		     2			inc dx
 7266  3B D0		     2			cmp dx,ax
 7268  75 F1		     2			jnz ??03A4
 726A  5A		     2		pop dx
 726B  59		     2		pop cx
 726C  5B		     2		pop bx
 726D  58		     2		pop ax
 726E  5B		     1		pop bx
 726F  58		     1		pop ax
 7270  50		     1		push ax
 7271  53		     1		push bx
 7272  83 E8 14		     1		sub ax,20
 7275  83 C3 05		     1		add bx,5
 7278  50		     2		push ax
 7279  53		     2		push bx
 727A  51		     2		push cx
 727B  52		     2		push dx
 727C  8B C8		     2		mov cx,ax
 727E  8B D3		     2		mov dx,bx
 7280  8B C1		     2		mov ax,cx
 7282  83 C0 0F		     2		add ax,15
 7285			     2		??03A5:
 7285  50		     2			push ax
 7286  B7 00		     2			mov bh,0
 7288  B4 0C		     2			mov ah,0ch
 728A  B0 0E		     2			mov al,14
 728C  CD 10		     2			int 10h
 728E  58		     2			pop ax
 728F  41		     2			inc cx
 7290  3B C8		     2			cmp cx,ax
 7292  75 F1		     2			jnz ??03A5
 7294  5A		     2		pop dx
 7295  59		     2		pop cx
 7296  5B		     2		pop bx
 7297  58		     2		pop ax
 7298  5B		     1		pop bx
 7299  58		     1		pop ax
 729A  50		     1		push ax
 729B  53		     1		push bx
 729C  83 E8 05		     1		sub ax,5
 729F  83 C3 05		     1		add bx,5
 72A2  50		     2		push ax
 72A3  53		     2		push bx
 72A4  51		     2		push cx
 72A5  52		     2		push dx
 72A6  8B C8		     2		mov cx,ax
 72A8  8B D3		     2		mov dx,bx
 72AA  8B C2		     2		mov ax,dx
 72AC  83 C0 0F		     2		add ax,15
 72AF			     2		??03A6:
 72AF  50		     2			push ax
 72B0  B7 00		     2			mov bh,0
 72B2  B4 0C		     2			mov ah,0ch
 72B4  B0 0E		     2			mov al,14
 72B6  CD 10		     2			int 10h
 72B8  58		     2			pop ax
 72B9  42		     2			inc dx
 72BA  3B D0		     2			cmp dx,ax
 72BC  75 F1		     2			jnz ??03A6
 72BE  5A		     2		pop dx
 72BF  59		     2		pop cx
 72C0  5B		     2		pop bx
 72C1  58		     2		pop ax
 72C2  5B		     1		pop bx
 72C3  58		     1		pop ax
 72C4  50		     1		push ax
 72C5  53		     1		push bx
 72C6  83 C0 05		     1		add ax,5
 72C9  83 EB 14		     1		sub bx,20
 72CC  50		     2		push ax
 72CD  53		     2		push bx
 72CE  51		     2		push cx
 72CF  52		     2		push dx
 72D0  8B C8		     2		mov cx,ax
 72D2  8B D3		     2		mov dx,bx
 72D4  8B C2		     2		mov ax,dx
 72D6  83 C0 0F		     2		add ax,15
 72D9			     2		??03A7:
 72D9  50		     2			push ax
 72DA  B7 00		     2			mov bh,0
 72DC  B4 0C		     2			mov ah,0ch
 72DE  B0 0E		     2			mov al,14
 72E0  CD 10		     2			int 10h
 72E2  58		     2			pop ax
 72E3  42		     2			inc dx
 72E4  3B D0		     2			cmp dx,ax
 72E6  75 F1		     2			jnz ??03A7
 72E8  5A		     2		pop dx
 72E9  59		     2		pop cx
 72EA  5B		     2		pop bx
 72EB  58		     2		pop ax
 72EC  5B		     1		pop bx
 72ED  58		     1		pop ax
 72EE  50		     1		push ax
 72EF  53		     1		push bx
 72F0  83 C0 05		     1		add ax,5
 72F3  83 EB 05		     1		sub bx,5
 72F6  50		     2		push ax
 72F7  53		     2		push bx
 72F8  51		     2		push cx
 72F9  52		     2		push dx
 72FA  8B C8		     2		mov cx,ax
 72FC  8B D3		     2		mov dx,bx
 72FE  8B C1		     2		mov ax,cx
 7300  83 C0 0F		     2		add ax,15
 7303			     2		??03A8:
 7303  50		     2			push ax
 7304  B7 00		     2			mov bh,0
 7306  B4 0C		     2			mov ah,0ch
 7308  B0 0E		     2			mov al,14
 730A  CD 10		     2			int 10h
 730C  58		     2			pop ax
 730D  41		     2			inc cx
 730E  3B C8		     2			cmp cx,ax
 7310  75 F1		     2			jnz ??03A8
 7312  5A		     2		pop dx
 7313  59		     2		pop cx
 7314  5B		     2		pop bx
 7315  58		     2		pop ax
 7316  5B		     1		pop bx
 7317  58		     1		pop ax
 7318  50		     1		push ax
 7319  53		     1		push bx
 731A  83 C0 05		     1		add ax,5
 731D  83 C3 05		     1		add bx,5
 7320  50		     2		push ax
 7321  53		     2		push bx
 7322  51		     2		push cx
 7323  52		     2		push dx
 7324  8B C8		     2		mov cx,ax
 7326  8B D3		     2		mov dx,bx
 7328  8B C2		     2		mov ax,dx
 732A  83 C0 0F		     2		add ax,15
 732D			     2		??03A9:
 732D  50		     2			push ax
 732E  B7 00		     2			mov bh,0
 7330  B4 0C		     2			mov ah,0ch
 7332  B0 0E		     2			mov al,14
 7334  CD 10		     2			int 10h
 7336  58		     2			pop ax
 7337  42		     2			inc dx
 7338  3B D0		     2			cmp dx,ax
 733A  75 F1		     2			jnz ??03A9
 733C  5A		     2		pop dx
 733D  59		     2		pop cx
 733E  5B		     2		pop bx
 733F  58		     2		pop ax
 7340  5B		     1		pop bx
 7341  58		     1		pop ax
 7342  50		     1		push ax
 7343  53		     1		push bx
 7344  83 C0 05		     1		add ax,5
 7347  83 C3 05		     1		add bx,5
 734A  50		     2		push ax
 734B  53		     2		push bx
 734C  51		     2		push cx
 734D  52		     2		push dx
 734E  8B C8		     2		mov cx,ax
 7350  8B D3		     2		mov dx,bx
 7352  8B C1		     2		mov ax,cx
 7354  83 C0 0F		     2		add ax,15
 7357			     2		??03AA:
 7357  50		     2			push ax
 7358  B7 00		     2			mov bh,0
 735A  B4 0C		     2			mov ah,0ch
 735C  B0 0E		     2			mov al,14
 735E  CD 10		     2			int 10h
 7360  58		     2			pop ax
 7361  41		     2			inc cx
 7362  3B C8		     2			cmp cx,ax
 7364  75 F1		     2			jnz ??03AA
 7366  5A		     2		pop dx
 7367  59		     2		pop cx
 7368  5B		     2		pop bx
 7369  58		     2		pop ax
 736A  5B		     1		pop bx
 736B  58		     1		pop ax
 736C  5A		     1		pop dx
 736D  59		     1		pop cx
 736E  5B		     1		pop bx
 736F  58		     1		pop ax
					
 7370				nodraw1:
					JUDGE1 pos_cenx,pos_ceny
 7370  50		     1		push ax
 7371  53		     1		push bx
 7372  51		     1		push cx
 7373  52		     1		push dx
 7374  A1 0024 R	     1		mov ax,pos_cenx
 7377  83 E8 2D		     1		sub ax,45
 737A  2B D2		     1		sub dx,dx
 737C  BB 0032		     1		mov bx,50
 737F  F7 F3		     1		div bx
 7381  83 C0 04		     1		add ax,4
 7384  A3 0153 R	     1		mov colx,ax;第几列
 7387  A1 0026 R	     1		mov ax,pos_ceny
 738A  83 E8 2D		     1		sub ax,45
 738D  2B D2		     1		sub dx,dx
 738F  BB 0032		     1		mov bx,50
 7392  F7 F3		     1		div bx
 7394  83 C0 04		     1		add ax,4
 7397  A3 0151 R	     1		mov rowy,ax;第几行
 739A  A1 0151 R	     1		mov ax,rowy
 739D  BB 0011		     1		mov bx,17
 73A0  F7 E3		     1		mul bx
 73A2  03 06 0153 R	     1		add ax,colx
 73A6  A3 0121 R	     1		mov pianyi,ax
 73A9  2B C9		     1		sub cx,cx
 73AB  BB 0030 R	     1		mov bx,offset map0
 73AE  03 1E 0121 R	     1		add bx,pianyi
 73B2  8A 0F		     1		mov cl,[bx]
 73B4  80 F9 00		     1		cmp cl,0
 73B7  74 07		     1		jz ??03AB
 73B9  C6 06 0120 R 00	     1		mov jud1,0
 73BE  EB 05		     1		jmp ??03AC
 73C0			     1	??03AB:
 73C0  C6 06 0120 R 01	     1		mov jud1,1
 73C5			     1	??03AC:
 73C5  5A		     1		pop dx
 73C6  59		     1		pop cx
 73C7  5B		     1		pop bx
 73C8  58		     1		pop ax
 73C9  80 3E 0120 R 00			cmp jud1,0
 73CE  75 03 E9 015F			jz cantdrop
						
					;显示当前鼠标位置
					DRAW_CURSOR pos_cenx,pos_ceny,08
 73D3  50		     1		push ax
 73D4  53		     1		push bx
 73D5  51		     1		push cx
 73D6  52		     1		push dx
 73D7  A1 0024 R	     1		mov ax,pos_cenx
 73DA  8B 1E 0026 R	     1		mov bx,pos_ceny
 73DE  50		     1		push ax
 73DF  53		     1		push bx
 73E0  83 E8 14		     1		sub ax,20
 73E3  83 EB 05		     1		sub bx,5
 73E6  50		     2		push ax
 73E7  53		     2		push bx
 73E8  51		     2		push cx
 73E9  52		     2		push dx
 73EA  8B C8		     2		mov cx,ax
 73EC  8B D3		     2		mov dx,bx
 73EE  8B C1		     2		mov ax,cx
 73F0  83 C0 0F		     2		add ax,15
 73F3			     2		??03AD:
 73F3  50		     2			push ax
 73F4  B7 00		     2			mov bh,0
 73F6  B4 0C		     2			mov ah,0ch
 73F8  B0 08		     2			mov al,08
 73FA  CD 10		     2			int 10h
 73FC  58		     2			pop ax
 73FD  41		     2			inc cx
 73FE  3B C8		     2			cmp cx,ax
 7400  75 F1		     2			jnz ??03AD
 7402  5A		     2		pop dx
 7403  59		     2		pop cx
 7404  5B		     2		pop bx
 7405  58		     2		pop ax
 7406  5B		     1		pop bx
 7407  58		     1		pop ax
 7408  50		     1		push ax
 7409  53		     1		push bx
 740A  83 E8 05		     1		sub ax,5
 740D  83 EB 14		     1		sub bx,20
 7410  50		     2		push ax
 7411  53		     2		push bx
 7412  51		     2		push cx
 7413  52		     2		push dx
 7414  8B C8		     2		mov cx,ax
 7416  8B D3		     2		mov dx,bx
 7418  8B C2		     2		mov ax,dx
 741A  83 C0 0F		     2		add ax,15
 741D			     2		??03AE:
 741D  50		     2			push ax
 741E  B7 00		     2			mov bh,0
 7420  B4 0C		     2			mov ah,0ch
 7422  B0 08		     2			mov al,08
 7424  CD 10		     2			int 10h
 7426  58		     2			pop ax
 7427  42		     2			inc dx
 7428  3B D0		     2			cmp dx,ax
 742A  75 F1		     2			jnz ??03AE
 742C  5A		     2		pop dx
 742D  59		     2		pop cx
 742E  5B		     2		pop bx
 742F  58		     2		pop ax
 7430  5B		     1		pop bx
 7431  58		     1		pop ax
 7432  50		     1		push ax
 7433  53		     1		push bx
 7434  83 E8 14		     1		sub ax,20
 7437  83 C3 05		     1		add bx,5
 743A  50		     2		push ax
 743B  53		     2		push bx
 743C  51		     2		push cx
 743D  52		     2		push dx
 743E  8B C8		     2		mov cx,ax
 7440  8B D3		     2		mov dx,bx
 7442  8B C1		     2		mov ax,cx
 7444  83 C0 0F		     2		add ax,15
 7447			     2		??03AF:
 7447  50		     2			push ax
 7448  B7 00		     2			mov bh,0
 744A  B4 0C		     2			mov ah,0ch
 744C  B0 08		     2			mov al,08
 744E  CD 10		     2			int 10h
 7450  58		     2			pop ax
 7451  41		     2			inc cx
 7452  3B C8		     2			cmp cx,ax
 7454  75 F1		     2			jnz ??03AF
 7456  5A		     2		pop dx
 7457  59		     2		pop cx
 7458  5B		     2		pop bx
 7459  58		     2		pop ax
 745A  5B		     1		pop bx
 745B  58		     1		pop ax
 745C  50		     1		push ax
 745D  53		     1		push bx
 745E  83 E8 05		     1		sub ax,5
 7461  83 C3 05		     1		add bx,5
 7464  50		     2		push ax
 7465  53		     2		push bx
 7466  51		     2		push cx
 7467  52		     2		push dx
 7468  8B C8		     2		mov cx,ax
 746A  8B D3		     2		mov dx,bx
 746C  8B C2		     2		mov ax,dx
 746E  83 C0 0F		     2		add ax,15
 7471			     2		??03B0:
 7471  50		     2			push ax
 7472  B7 00		     2			mov bh,0
 7474  B4 0C		     2			mov ah,0ch
 7476  B0 08		     2			mov al,08
 7478  CD 10		     2			int 10h
 747A  58		     2			pop ax
 747B  42		     2			inc dx
 747C  3B D0		     2			cmp dx,ax
 747E  75 F1		     2			jnz ??03B0
 7480  5A		     2		pop dx
 7481  59		     2		pop cx
 7482  5B		     2		pop bx
 7483  58		     2		pop ax
 7484  5B		     1		pop bx
 7485  58		     1		pop ax
 7486  50		     1		push ax
 7487  53		     1		push bx
 7488  83 C0 05		     1		add ax,5
 748B  83 EB 14		     1		sub bx,20
 748E  50		     2		push ax
 748F  53		     2		push bx
 7490  51		     2		push cx
 7491  52		     2		push dx
 7492  8B C8		     2		mov cx,ax
 7494  8B D3		     2		mov dx,bx
 7496  8B C2		     2		mov ax,dx
 7498  83 C0 0F		     2		add ax,15
 749B			     2		??03B1:
 749B  50		     2			push ax
 749C  B7 00		     2			mov bh,0
 749E  B4 0C		     2			mov ah,0ch
 74A0  B0 08		     2			mov al,08
 74A2  CD 10		     2			int 10h
 74A4  58		     2			pop ax
 74A5  42		     2			inc dx
 74A6  3B D0		     2			cmp dx,ax
 74A8  75 F1		     2			jnz ??03B1
 74AA  5A		     2		pop dx
 74AB  59		     2		pop cx
 74AC  5B		     2		pop bx
 74AD  58		     2		pop ax
 74AE  5B		     1		pop bx
 74AF  58		     1		pop ax
 74B0  50		     1		push ax
 74B1  53		     1		push bx
 74B2  83 C0 05		     1		add ax,5
 74B5  83 EB 05		     1		sub bx,5
 74B8  50		     2		push ax
 74B9  53		     2		push bx
 74BA  51		     2		push cx
 74BB  52		     2		push dx
 74BC  8B C8		     2		mov cx,ax
 74BE  8B D3		     2		mov dx,bx
 74C0  8B C1		     2		mov ax,cx
 74C2  83 C0 0F		     2		add ax,15
 74C5			     2		??03B2:
 74C5  50		     2			push ax
 74C6  B7 00		     2			mov bh,0
 74C8  B4 0C		     2			mov ah,0ch
 74CA  B0 08		     2			mov al,08
 74CC  CD 10		     2			int 10h
 74CE  58		     2			pop ax
 74CF  41		     2			inc cx
 74D0  3B C8		     2			cmp cx,ax
 74D2  75 F1		     2			jnz ??03B2
 74D4  5A		     2		pop dx
 74D5  59		     2		pop cx
 74D6  5B		     2		pop bx
 74D7  58		     2		pop ax
 74D8  5B		     1		pop bx
 74D9  58		     1		pop ax
 74DA  50		     1		push ax
 74DB  53		     1		push bx
 74DC  83 C0 05		     1		add ax,5
 74DF  83 C3 05		     1		add bx,5
 74E2  50		     2		push ax
 74E3  53		     2		push bx
 74E4  51		     2		push cx
 74E5  52		     2		push dx
 74E6  8B C8		     2		mov cx,ax
 74E8  8B D3		     2		mov dx,bx
 74EA  8B C2		     2		mov ax,dx
 74EC  83 C0 0F		     2		add ax,15
 74EF			     2		??03B3:
 74EF  50		     2			push ax
 74F0  B7 00		     2			mov bh,0
 74F2  B4 0C		     2			mov ah,0ch
 74F4  B0 08		     2			mov al,08
 74F6  CD 10		     2			int 10h
 74F8  58		     2			pop ax
 74F9  42		     2			inc dx
 74FA  3B D0		     2			cmp dx,ax
 74FC  75 F1		     2			jnz ??03B3
 74FE  5A		     2		pop dx
 74FF  59		     2		pop cx
 7500  5B		     2		pop bx
 7501  58		     2		pop ax
 7502  5B		     1		pop bx
 7503  58		     1		pop ax
 7504  50		     1		push ax
 7505  53		     1		push bx
 7506  83 C0 05		     1		add ax,5
 7509  83 C3 05		     1		add bx,5
 750C  50		     2		push ax
 750D  53		     2		push bx
 750E  51		     2		push cx
 750F  52		     2		push dx
 7510  8B C8		     2		mov cx,ax
 7512  8B D3		     2		mov dx,bx
 7514  8B C1		     2		mov ax,cx
 7516  83 C0 0F		     2		add ax,15
 7519			     2		??03B4:
 7519  50		     2			push ax
 751A  B7 00		     2			mov bh,0
 751C  B4 0C		     2			mov ah,0ch
 751E  B0 08		     2			mov al,08
 7520  CD 10		     2			int 10h
 7522  58		     2			pop ax
 7523  41		     2			inc cx
 7524  3B C8		     2			cmp cx,ax
 7526  75 F1		     2			jnz ??03B4
 7528  5A		     2		pop dx
 7529  59		     2		pop cx
 752A  5B		     2		pop bx
 752B  58		     2		pop ax
 752C  5B		     1		pop bx
 752D  58		     1		pop ax
 752E  5A		     1		pop dx
 752F  59		     1		pop cx
 7530  5B		     1		pop bx
 7531  58		     1		pop ax
					
 7532				cantdrop:
					;更新上次鼠标位置为当前鼠标位置
 7532  BF 0028 R			mov di,offset pos_lastx
 7535  BE 0024 R			mov si,offset pos_cenx
 7538  8B 04				mov ax,[si]
 753A  89 05				mov [di],ax
					
 753C  BF 002A R			mov di,offset pos_lasty
 753F  BE 0026 R			mov si,offset pos_ceny
 7542  8B 04				mov ax,[si]
 7544  89 05				mov [di],ax
					
 7546				loop1:
					
					;等待鼠标按键
 7546  B8 0003				mov ax,03h
 7549  CD 33				int 33h
 754B  83 FB 01				cmp bx,0001h
 754E  74 03 E9 CEA7			jne again
					
					;得到离按键最近的棋盘点
					GET_POSNEARX cx
 7553  50		     1		push ax
 7554  53		     1		push bx
 7555  51		     1		push cx
 7556  52		     1		push dx
 7557  8B C1		     1		mov ax,cx
 7559  83 F8 1E		     1		cmp ax,30
 755C  72 23		     1		jb ??03B5
 755E  3D 01CC		     1		cmp ax,460
 7561  77 1E		     1		ja ??03B5
 7563  83 E8 1E		     1		sub ax,30
 7566  2B D2		     1		sub dx,dx
 7568  BB 0032		     1		mov bx,50
 756B  F7 F3		     1		div bx
 756D  83 FA 1E		     1		cmp dx,30
 7570  77 0F		     1		ja ??03B5
 7572  2B D2		     1		sub dx,dx
 7574  BA 0032		     1		mov dx,50
 7577  F7 E2		     1		mul dx
 7579  83 C0 2D		     1		add ax,45
 757C  A3 0024 R	     1		mov pos_cenx,ax
 757F  EB 06		     1		jmp ??03B6
 7581			     1	??03B5:
 7581  C7 06 0024 R 0000     1		mov pos_cenx,0
 7587			     1	??03B6:
 7587  5A		     1		pop dx
 7588  59		     1		pop cx
 7589  5B		     1		pop bx
 758A  58		     1		pop ax
					GET_POSNEARY dx
 758B  50		     1		push ax
 758C  53		     1		push bx
 758D  51		     1		push cx
 758E  52		     1		push dx
 758F  8B C2		     1		mov ax,dx
 7591  83 F8 1E		     1		cmp ax,30
 7594  72 23		     1		jb ??03B7
 7596  3D 01CC		     1		cmp ax,460
 7599  77 1E		     1		ja ??03B7
 759B  83 E8 1E		     1		sub ax,30
 759E  2B D2		     1		sub dx,dx
 75A0  BB 0032		     1		mov bx,50
 75A3  F7 F3		     1		div bx
 75A5  83 FA 1E		     1		cmp dx,30
 75A8  77 0F		     1		ja ??03B7
 75AA  2B D2		     1		sub dx,dx
 75AC  BA 0032		     1		mov dx,50
 75AF  F7 E2		     1		mul dx
 75B1  83 C0 2D		     1		add ax,45
 75B4  A3 0026 R	     1		mov pos_ceny,ax
 75B7  EB 06		     1		jmp ??03B8
 75B9			     1	??03B7:
 75B9  C7 06 0026 R 0000     1		mov pos_ceny,0
 75BF			     1	??03B8:
 75BF  5A		     1		pop dx
 75C0  59		     1		pop cx
 75C1  5B		     1		pop bx
 75C2  58		     1		pop ax
 75C3  E8 CD85				call delay
					
					;判断范围对不对
 75C6  83 3E 0024 R 00			cmp pos_cenx,0
 75CB  75 03 E9 CE2A			jz again
 75D0  83 3E 0026 R 00			cmp pos_ceny,0
 75D5  75 03 E9 CE20			jz again
					
					;判断此处有没有棋子
					JUDGE1 pos_cenx,pos_ceny
 75DA  50		     1		push ax
 75DB  53		     1		push bx
 75DC  51		     1		push cx
 75DD  52		     1		push dx
 75DE  A1 0024 R	     1		mov ax,pos_cenx
 75E1  83 E8 2D		     1		sub ax,45
 75E4  2B D2		     1		sub dx,dx
 75E6  BB 0032		     1		mov bx,50
 75E9  F7 F3		     1		div bx
 75EB  83 C0 04		     1		add ax,4
 75EE  A3 0153 R	     1		mov colx,ax;第几列
 75F1  A1 0026 R	     1		mov ax,pos_ceny
 75F4  83 E8 2D		     1		sub ax,45
 75F7  2B D2		     1		sub dx,dx
 75F9  BB 0032		     1		mov bx,50
 75FC  F7 F3		     1		div bx
 75FE  83 C0 04		     1		add ax,4
 7601  A3 0151 R	     1		mov rowy,ax;第几行
 7604  A1 0151 R	     1		mov ax,rowy
 7607  BB 0011		     1		mov bx,17
 760A  F7 E3		     1		mul bx
 760C  03 06 0153 R	     1		add ax,colx
 7610  A3 0121 R	     1		mov pianyi,ax
 7613  2B C9		     1		sub cx,cx
 7615  BB 0030 R	     1		mov bx,offset map0
 7618  03 1E 0121 R	     1		add bx,pianyi
 761C  8A 0F		     1		mov cl,[bx]
 761E  80 F9 00		     1		cmp cl,0
 7621  74 07		     1		jz ??03B9
 7623  C6 06 0120 R 00	     1		mov jud1,0
 7628  EB 05		     1		jmp ??03BA
 762A			     1	??03B9:
 762A  C6 06 0120 R 01	     1		mov jud1,1
 762F			     1	??03BA:
 762F  5A		     1		pop dx
 7630  59		     1		pop cx
 7631  5B		     1		pop bx
 7632  58		     1		pop ax
 7633  80 3E 0120 R 00			cmp jud1,0
 7638  75 03 E9 CDBD			jz again
					
					;如果没有则画棋子，并在map中标记
					DRAWCIR pos_cenx,pos_ceny,colo
 763D  50		     2	       push ax
 763E  53		     2	       push bx
 763F  51		     2	       push cx
 7640  52		     2	       push dx
 7641  56		     2	       push si
 7642  57		     2	       push di
 7643  55		     2	       push bp
 7644  B4 0C		     2	       mov ah,0ch
 7646  A0 0131 R	     2	       mov al,colo
 7649  B7 00		     2	       mov bh,0
 764B  8B 0E 0024 R	     2	       mov cx,pos_cenx
 764F  8B 16 0026 R	     2	       mov dx,pos_ceny
 7653  BE 0000		     2	       mov si,0         ;X
 7656  BF 0014		     2	       mov di,20    ;Y
 7659  BD FFED		     2	       mov bp,1-20
 765C			     2	??03BB: 
 765C  3B F7		     2		   cmp si,di
 765E  7C 06		     2	       jl ??03BC
 7660  8D 1E 76F9 R	     2	       lea bx,??03C1
 7664  FF E3		     2	       jmp bx
 7666			     2	??03BC:
 7666  46		     2		   inc si
 7667			     2	??03BD: 
 7667  83 FD 00		     2	       cmp bp,0
 766A  7D 09		     2	       jge ??03BE
 766C  03 EE		     2	       add bp,si
 766E  03 EE		     2	       add bp,si
 7670  83 C5 01		     2	       add bp,1
 7673  EB 0C		     2	       jmp ??03BF
 7675			     2	??03BE: 
 7675  4F		     2		   dec di
 7676  03 EE		     2	       add bp,si
 7678  03 EE		     2	       add bp,si
 767A  2B EF		     2	       sub bp,di
 767C  2B EF		     2	       sub bp,di
 767E  83 C5 01		     2	       add bp,1
 7681			     2	??03BF: 
 7681  B7 00		     2		   mov bh,0
 7683  8B 0E 0024 R	     2	       mov cx,pos_cenx
 7687  8B 16 0026 R	     2	       mov dx,pos_ceny
 768B  03 CE		     2	       add cx,si
 768D  03 D7		     2	       add dx,di
 768F  CD 10		     2	       int 10h
 7691  8B 0E 0024 R	     2	       mov cx,pos_cenx
 7695  8B 16 0026 R	     2	       mov dx,pos_ceny
 7699  2B CE		     2	       sub cx,si
 769B  03 D7		     2	       add dx,di
 769D  CD 10		     2	       int 10h
 769F  8B 0E 0024 R	     2	       mov cx,pos_cenx
 76A3  8B 16 0026 R	     2	       mov dx,pos_ceny
 76A7  03 CE		     2	       add cx,si
 76A9  2B D7		     2	       sub dx,di
 76AB  CD 10		     2	       int 10h
 76AD  8B 0E 0024 R	     2	       mov cx,pos_cenx
 76B1  8B 16 0026 R	     2	       mov dx,pos_ceny
 76B5  2B CE		     2	       sub cx,si
 76B7  2B D7		     2	       sub dx,di
 76B9  CD 10		     2	       int 10h
 76BB  8B 0E 0024 R	     2	       mov cx,pos_cenx
 76BF  8B 16 0026 R	     2	       mov dx,pos_ceny
 76C3  03 CF		     2	       add cx,di
 76C5  03 D6		     2	       add dx,si
 76C7  CD 10		     2	       int 10h
 76C9  8B 0E 0024 R	     2	       mov cx,pos_cenx
 76CD  8B 16 0026 R	     2	       mov dx,pos_ceny
 76D1  2B CF		     2	       sub cx,di
 76D3  03 D6		     2	       add dx,si
 76D5  CD 10		     2	       int 10h
 76D7  8B 0E 0024 R	     2	       mov cx,pos_cenx
 76DB  8B 16 0026 R	     2	       mov dx,pos_ceny
 76DF  03 CF		     2	       add cx,di
 76E1  2B D6		     2	       sub dx,si
 76E3  CD 10		     2	       int 10h
 76E5  8B 0E 0024 R	     2	       mov cx,pos_cenx
 76E9  8B 16 0026 R	     2	       mov dx,pos_ceny
 76ED  2B CF		     2	       sub cx,di
 76EF  2B D6		     2	       sub dx,si
 76F1  CD 10		     2	       int 10h
 76F3			     2	??03C0: 
 76F3  8D 1E 765C R	     2		   lea bx,??03BB
 76F7  FF E3		     2	       jmp bx
 76F9			     2	??03C1:
 76F9  B4 0C		     2	       mov ah,0ch
 76FB  A0 0131 R	     2	       mov al,colo
 76FE  B7 00		     2	       mov bh,0
 7700  8B 0E 0010 R	     2	       mov cx,pos_cenx-20
 7704  8B 16 0026 R	     2	       mov dx,pos_ceny
 7708  CD 10		     2	       int 10h
 770A  8B 0E 0038 R	     2	       mov cx,pos_cenx+20
 770E  8B 16 0026 R	     2	       mov dx,pos_ceny
 7712  CD 10		     2	       int 10h
 7714  8B 0E 0024 R	     2	       mov cx,pos_cenx
 7718  8B 16 0012 R	     2	       mov dx,pos_ceny-20
 771C  CD 10		     2	       int 10h
 771E  8B 0E 0024 R	     2	       mov cx,pos_cenx
 7722  8B 16 003A R	     2	       mov dx,pos_ceny+20
 7726  CD 10		     2	       int 10h
 7728  5D		     2	       pop bp
 7729  5F		     2	       pop di
 772A  5E		     2	       pop si
 772B  5A		     2	       pop dx
 772C  59		     2	       pop cx
 772D  5B		     2	       pop bx
 772E  58		     2	       pop ax
 772F  50		     2	       push ax
 7730  53		     2	       push bx
 7731  51		     2	       push cx
 7732  52		     2	       push dx
 7733  56		     2	       push si
 7734  57		     2	       push di
 7735  55		     2	       push bp
 7736  B4 0C		     2	       mov ah,0ch
 7738  A0 0131 R	     2	       mov al,colo
 773B  B7 00		     2	       mov bh,0
 773D  8B 0E 0024 R	     2	       mov cx,pos_cenx
 7741  8B 16 0026 R	     2	       mov dx,pos_ceny
 7745  BE 0000		     2	       mov si,0         ;X
 7748  BF 0013		     2	       mov di,19    ;Y
 774B  BD FFEE		     2	       mov bp,1-19
 774E			     2	??03C2: 
 774E  3B F7		     2		   cmp si,di
 7750  7C 06		     2	       jl ??03C3
 7752  8D 1E 77EB R	     2	       lea bx,??03C8
 7756  FF E3		     2	       jmp bx
 7758			     2	??03C3:
 7758  46		     2		   inc si
 7759			     2	??03C4: 
 7759  83 FD 00		     2	       cmp bp,0
 775C  7D 09		     2	       jge ??03C5
 775E  03 EE		     2	       add bp,si
 7760  03 EE		     2	       add bp,si
 7762  83 C5 01		     2	       add bp,1
 7765  EB 0C		     2	       jmp ??03C6
 7767			     2	??03C5: 
 7767  4F		     2		   dec di
 7768  03 EE		     2	       add bp,si
 776A  03 EE		     2	       add bp,si
 776C  2B EF		     2	       sub bp,di
 776E  2B EF		     2	       sub bp,di
 7770  83 C5 01		     2	       add bp,1
 7773			     2	??03C6: 
 7773  B7 00		     2		   mov bh,0
 7775  8B 0E 0024 R	     2	       mov cx,pos_cenx
 7779  8B 16 0026 R	     2	       mov dx,pos_ceny
 777D  03 CE		     2	       add cx,si
 777F  03 D7		     2	       add dx,di
 7781  CD 10		     2	       int 10h
 7783  8B 0E 0024 R	     2	       mov cx,pos_cenx
 7787  8B 16 0026 R	     2	       mov dx,pos_ceny
 778B  2B CE		     2	       sub cx,si
 778D  03 D7		     2	       add dx,di
 778F  CD 10		     2	       int 10h
 7791  8B 0E 0024 R	     2	       mov cx,pos_cenx
 7795  8B 16 0026 R	     2	       mov dx,pos_ceny
 7799  03 CE		     2	       add cx,si
 779B  2B D7		     2	       sub dx,di
 779D  CD 10		     2	       int 10h
 779F  8B 0E 0024 R	     2	       mov cx,pos_cenx
 77A3  8B 16 0026 R	     2	       mov dx,pos_ceny
 77A7  2B CE		     2	       sub cx,si
 77A9  2B D7		     2	       sub dx,di
 77AB  CD 10		     2	       int 10h
 77AD  8B 0E 0024 R	     2	       mov cx,pos_cenx
 77B1  8B 16 0026 R	     2	       mov dx,pos_ceny
 77B5  03 CF		     2	       add cx,di
 77B7  03 D6		     2	       add dx,si
 77B9  CD 10		     2	       int 10h
 77BB  8B 0E 0024 R	     2	       mov cx,pos_cenx
 77BF  8B 16 0026 R	     2	       mov dx,pos_ceny
 77C3  2B CF		     2	       sub cx,di
 77C5  03 D6		     2	       add dx,si
 77C7  CD 10		     2	       int 10h
 77C9  8B 0E 0024 R	     2	       mov cx,pos_cenx
 77CD  8B 16 0026 R	     2	       mov dx,pos_ceny
 77D1  03 CF		     2	       add cx,di
 77D3  2B D6		     2	       sub dx,si
 77D5  CD 10		     2	       int 10h
 77D7  8B 0E 0024 R	     2	       mov cx,pos_cenx
 77DB  8B 16 0026 R	     2	       mov dx,pos_ceny
 77DF  2B CF		     2	       sub cx,di
 77E1  2B D6		     2	       sub dx,si
 77E3  CD 10		     2	       int 10h
 77E5			     2	??03C7: 
 77E5  8D 1E 774E R	     2		   lea bx,??03C2
 77E9  FF E3		     2	       jmp bx
 77EB			     2	??03C8:
 77EB  B4 0C		     2	       mov ah,0ch
 77ED  A0 0131 R	     2	       mov al,colo
 77F0  B7 00		     2	       mov bh,0
 77F2  8B 0E 0011 R	     2	       mov cx,pos_cenx-19
 77F6  8B 16 0026 R	     2	       mov dx,pos_ceny
 77FA  CD 10		     2	       int 10h
 77FC  8B 0E 0037 R	     2	       mov cx,pos_cenx+19
 7800  8B 16 0026 R	     2	       mov dx,pos_ceny
 7804  CD 10		     2	       int 10h
 7806  8B 0E 0024 R	     2	       mov cx,pos_cenx
 780A  8B 16 0013 R	     2	       mov dx,pos_ceny-19
 780E  CD 10		     2	       int 10h
 7810  8B 0E 0024 R	     2	       mov cx,pos_cenx
 7814  8B 16 0039 R	     2	       mov dx,pos_ceny+19
 7818  CD 10		     2	       int 10h
 781A  5D		     2	       pop bp
 781B  5F		     2	       pop di
 781C  5E		     2	       pop si
 781D  5A		     2	       pop dx
 781E  59		     2	       pop cx
 781F  5B		     2	       pop bx
 7820  58		     2	       pop ax
 7821  50		     2	       push ax
 7822  53		     2	       push bx
 7823  51		     2	       push cx
 7824  52		     2	       push dx
 7825  56		     2	       push si
 7826  57		     2	       push di
 7827  55		     2	       push bp
 7828  B4 0C		     2	       mov ah,0ch
 782A  A0 0131 R	     2	       mov al,colo
 782D  B7 00		     2	       mov bh,0
 782F  8B 0E 0024 R	     2	       mov cx,pos_cenx
 7833  8B 16 0026 R	     2	       mov dx,pos_ceny
 7837  BE 0000		     2	       mov si,0         ;X
 783A  BF 0012		     2	       mov di,18    ;Y
 783D  BD FFEF		     2	       mov bp,1-18
 7840			     2	??03C9: 
 7840  3B F7		     2		   cmp si,di
 7842  7C 06		     2	       jl ??03CA
 7844  8D 1E 78DD R	     2	       lea bx,??03CF
 7848  FF E3		     2	       jmp bx
 784A			     2	??03CA:
 784A  46		     2		   inc si
 784B			     2	??03CB: 
 784B  83 FD 00		     2	       cmp bp,0
 784E  7D 09		     2	       jge ??03CC
 7850  03 EE		     2	       add bp,si
 7852  03 EE		     2	       add bp,si
 7854  83 C5 01		     2	       add bp,1
 7857  EB 0C		     2	       jmp ??03CD
 7859			     2	??03CC: 
 7859  4F		     2		   dec di
 785A  03 EE		     2	       add bp,si
 785C  03 EE		     2	       add bp,si
 785E  2B EF		     2	       sub bp,di
 7860  2B EF		     2	       sub bp,di
 7862  83 C5 01		     2	       add bp,1
 7865			     2	??03CD: 
 7865  B7 00		     2		   mov bh,0
 7867  8B 0E 0024 R	     2	       mov cx,pos_cenx
 786B  8B 16 0026 R	     2	       mov dx,pos_ceny
 786F  03 CE		     2	       add cx,si
 7871  03 D7		     2	       add dx,di
 7873  CD 10		     2	       int 10h
 7875  8B 0E 0024 R	     2	       mov cx,pos_cenx
 7879  8B 16 0026 R	     2	       mov dx,pos_ceny
 787D  2B CE		     2	       sub cx,si
 787F  03 D7		     2	       add dx,di
 7881  CD 10		     2	       int 10h
 7883  8B 0E 0024 R	     2	       mov cx,pos_cenx
 7887  8B 16 0026 R	     2	       mov dx,pos_ceny
 788B  03 CE		     2	       add cx,si
 788D  2B D7		     2	       sub dx,di
 788F  CD 10		     2	       int 10h
 7891  8B 0E 0024 R	     2	       mov cx,pos_cenx
 7895  8B 16 0026 R	     2	       mov dx,pos_ceny
 7899  2B CE		     2	       sub cx,si
 789B  2B D7		     2	       sub dx,di
 789D  CD 10		     2	       int 10h
 789F  8B 0E 0024 R	     2	       mov cx,pos_cenx
 78A3  8B 16 0026 R	     2	       mov dx,pos_ceny
 78A7  03 CF		     2	       add cx,di
 78A9  03 D6		     2	       add dx,si
 78AB  CD 10		     2	       int 10h
 78AD  8B 0E 0024 R	     2	       mov cx,pos_cenx
 78B1  8B 16 0026 R	     2	       mov dx,pos_ceny
 78B5  2B CF		     2	       sub cx,di
 78B7  03 D6		     2	       add dx,si
 78B9  CD 10		     2	       int 10h
 78BB  8B 0E 0024 R	     2	       mov cx,pos_cenx
 78BF  8B 16 0026 R	     2	       mov dx,pos_ceny
 78C3  03 CF		     2	       add cx,di
 78C5  2B D6		     2	       sub dx,si
 78C7  CD 10		     2	       int 10h
 78C9  8B 0E 0024 R	     2	       mov cx,pos_cenx
 78CD  8B 16 0026 R	     2	       mov dx,pos_ceny
 78D1  2B CF		     2	       sub cx,di
 78D3  2B D6		     2	       sub dx,si
 78D5  CD 10		     2	       int 10h
 78D7			     2	??03CE: 
 78D7  8D 1E 7840 R	     2		   lea bx,??03C9
 78DB  FF E3		     2	       jmp bx
 78DD			     2	??03CF:
 78DD  B4 0C		     2	       mov ah,0ch
 78DF  A0 0131 R	     2	       mov al,colo
 78E2  B7 00		     2	       mov bh,0
 78E4  8B 0E 0012 R	     2	       mov cx,pos_cenx-18
 78E8  8B 16 0026 R	     2	       mov dx,pos_ceny
 78EC  CD 10		     2	       int 10h
 78EE  8B 0E 0036 R	     2	       mov cx,pos_cenx+18
 78F2  8B 16 0026 R	     2	       mov dx,pos_ceny
 78F6  CD 10		     2	       int 10h
 78F8  8B 0E 0024 R	     2	       mov cx,pos_cenx
 78FC  8B 16 0014 R	     2	       mov dx,pos_ceny-18
 7900  CD 10		     2	       int 10h
 7902  8B 0E 0024 R	     2	       mov cx,pos_cenx
 7906  8B 16 0038 R	     2	       mov dx,pos_ceny+18
 790A  CD 10		     2	       int 10h
 790C  5D		     2	       pop bp
 790D  5F		     2	       pop di
 790E  5E		     2	       pop si
 790F  5A		     2	       pop dx
 7910  59		     2	       pop cx
 7911  5B		     2	       pop bx
 7912  58		     2	       pop ax
 7913  50		     2	       push ax
 7914  53		     2	       push bx
 7915  51		     2	       push cx
 7916  52		     2	       push dx
 7917  56		     2	       push si
 7918  57		     2	       push di
 7919  55		     2	       push bp
 791A  B4 0C		     2	       mov ah,0ch
 791C  A0 0131 R	     2	       mov al,colo
 791F  B7 00		     2	       mov bh,0
 7921  8B 0E 0024 R	     2	       mov cx,pos_cenx
 7925  8B 16 0026 R	     2	       mov dx,pos_ceny
 7929  BE 0000		     2	       mov si,0         ;X
 792C  BF 0011		     2	       mov di,17    ;Y
 792F  BD FFF0		     2	       mov bp,1-17
 7932			     2	??03D0: 
 7932  3B F7		     2		   cmp si,di
 7934  7C 06		     2	       jl ??03D1
 7936  8D 1E 79CF R	     2	       lea bx,??03D6
 793A  FF E3		     2	       jmp bx
 793C			     2	??03D1:
 793C  46		     2		   inc si
 793D			     2	??03D2: 
 793D  83 FD 00		     2	       cmp bp,0
 7940  7D 09		     2	       jge ??03D3
 7942  03 EE		     2	       add bp,si
 7944  03 EE		     2	       add bp,si
 7946  83 C5 01		     2	       add bp,1
 7949  EB 0C		     2	       jmp ??03D4
 794B			     2	??03D3: 
 794B  4F		     2		   dec di
 794C  03 EE		     2	       add bp,si
 794E  03 EE		     2	       add bp,si
 7950  2B EF		     2	       sub bp,di
 7952  2B EF		     2	       sub bp,di
 7954  83 C5 01		     2	       add bp,1
 7957			     2	??03D4: 
 7957  B7 00		     2		   mov bh,0
 7959  8B 0E 0024 R	     2	       mov cx,pos_cenx
 795D  8B 16 0026 R	     2	       mov dx,pos_ceny
 7961  03 CE		     2	       add cx,si
 7963  03 D7		     2	       add dx,di
 7965  CD 10		     2	       int 10h
 7967  8B 0E 0024 R	     2	       mov cx,pos_cenx
 796B  8B 16 0026 R	     2	       mov dx,pos_ceny
 796F  2B CE		     2	       sub cx,si
 7971  03 D7		     2	       add dx,di
 7973  CD 10		     2	       int 10h
 7975  8B 0E 0024 R	     2	       mov cx,pos_cenx
 7979  8B 16 0026 R	     2	       mov dx,pos_ceny
 797D  03 CE		     2	       add cx,si
 797F  2B D7		     2	       sub dx,di
 7981  CD 10		     2	       int 10h
 7983  8B 0E 0024 R	     2	       mov cx,pos_cenx
 7987  8B 16 0026 R	     2	       mov dx,pos_ceny
 798B  2B CE		     2	       sub cx,si
 798D  2B D7		     2	       sub dx,di
 798F  CD 10		     2	       int 10h
 7991  8B 0E 0024 R	     2	       mov cx,pos_cenx
 7995  8B 16 0026 R	     2	       mov dx,pos_ceny
 7999  03 CF		     2	       add cx,di
 799B  03 D6		     2	       add dx,si
 799D  CD 10		     2	       int 10h
 799F  8B 0E 0024 R	     2	       mov cx,pos_cenx
 79A3  8B 16 0026 R	     2	       mov dx,pos_ceny
 79A7  2B CF		     2	       sub cx,di
 79A9  03 D6		     2	       add dx,si
 79AB  CD 10		     2	       int 10h
 79AD  8B 0E 0024 R	     2	       mov cx,pos_cenx
 79B1  8B 16 0026 R	     2	       mov dx,pos_ceny
 79B5  03 CF		     2	       add cx,di
 79B7  2B D6		     2	       sub dx,si
 79B9  CD 10		     2	       int 10h
 79BB  8B 0E 0024 R	     2	       mov cx,pos_cenx
 79BF  8B 16 0026 R	     2	       mov dx,pos_ceny
 79C3  2B CF		     2	       sub cx,di
 79C5  2B D6		     2	       sub dx,si
 79C7  CD 10		     2	       int 10h
 79C9			     2	??03D5: 
 79C9  8D 1E 7932 R	     2		   lea bx,??03D0
 79CD  FF E3		     2	       jmp bx
 79CF			     2	??03D6:
 79CF  B4 0C		     2	       mov ah,0ch
 79D1  A0 0131 R	     2	       mov al,colo
 79D4  B7 00		     2	       mov bh,0
 79D6  8B 0E 0013 R	     2	       mov cx,pos_cenx-17
 79DA  8B 16 0026 R	     2	       mov dx,pos_ceny
 79DE  CD 10		     2	       int 10h
 79E0  8B 0E 0035 R	     2	       mov cx,pos_cenx+17
 79E4  8B 16 0026 R	     2	       mov dx,pos_ceny
 79E8  CD 10		     2	       int 10h
 79EA  8B 0E 0024 R	     2	       mov cx,pos_cenx
 79EE  8B 16 0015 R	     2	       mov dx,pos_ceny-17
 79F2  CD 10		     2	       int 10h
 79F4  8B 0E 0024 R	     2	       mov cx,pos_cenx
 79F8  8B 16 0037 R	     2	       mov dx,pos_ceny+17
 79FC  CD 10		     2	       int 10h
 79FE  5D		     2	       pop bp
 79FF  5F		     2	       pop di
 7A00  5E		     2	       pop si
 7A01  5A		     2	       pop dx
 7A02  59		     2	       pop cx
 7A03  5B		     2	       pop bx
 7A04  58		     2	       pop ax
 7A05  50		     2	       push ax
 7A06  53		     2	       push bx
 7A07  51		     2	       push cx
 7A08  52		     2	       push dx
 7A09  56		     2	       push si
 7A0A  57		     2	       push di
 7A0B  55		     2	       push bp
 7A0C  B4 0C		     2	       mov ah,0ch
 7A0E  A0 0131 R	     2	       mov al,colo
 7A11  B7 00		     2	       mov bh,0
 7A13  8B 0E 0024 R	     2	       mov cx,pos_cenx
 7A17  8B 16 0026 R	     2	       mov dx,pos_ceny
 7A1B  BE 0000		     2	       mov si,0         ;X
 7A1E  BF 0010		     2	       mov di,16    ;Y
 7A21  BD FFF1		     2	       mov bp,1-16
 7A24			     2	??03D7: 
 7A24  3B F7		     2		   cmp si,di
 7A26  7C 06		     2	       jl ??03D8
 7A28  8D 1E 7AC1 R	     2	       lea bx,??03DD
 7A2C  FF E3		     2	       jmp bx
 7A2E			     2	??03D8:
 7A2E  46		     2		   inc si
 7A2F			     2	??03D9: 
 7A2F  83 FD 00		     2	       cmp bp,0
 7A32  7D 09		     2	       jge ??03DA
 7A34  03 EE		     2	       add bp,si
 7A36  03 EE		     2	       add bp,si
 7A38  83 C5 01		     2	       add bp,1
 7A3B  EB 0C		     2	       jmp ??03DB
 7A3D			     2	??03DA: 
 7A3D  4F		     2		   dec di
 7A3E  03 EE		     2	       add bp,si
 7A40  03 EE		     2	       add bp,si
 7A42  2B EF		     2	       sub bp,di
 7A44  2B EF		     2	       sub bp,di
 7A46  83 C5 01		     2	       add bp,1
 7A49			     2	??03DB: 
 7A49  B7 00		     2		   mov bh,0
 7A4B  8B 0E 0024 R	     2	       mov cx,pos_cenx
 7A4F  8B 16 0026 R	     2	       mov dx,pos_ceny
 7A53  03 CE		     2	       add cx,si
 7A55  03 D7		     2	       add dx,di
 7A57  CD 10		     2	       int 10h
 7A59  8B 0E 0024 R	     2	       mov cx,pos_cenx
 7A5D  8B 16 0026 R	     2	       mov dx,pos_ceny
 7A61  2B CE		     2	       sub cx,si
 7A63  03 D7		     2	       add dx,di
 7A65  CD 10		     2	       int 10h
 7A67  8B 0E 0024 R	     2	       mov cx,pos_cenx
 7A6B  8B 16 0026 R	     2	       mov dx,pos_ceny
 7A6F  03 CE		     2	       add cx,si
 7A71  2B D7		     2	       sub dx,di
 7A73  CD 10		     2	       int 10h
 7A75  8B 0E 0024 R	     2	       mov cx,pos_cenx
 7A79  8B 16 0026 R	     2	       mov dx,pos_ceny
 7A7D  2B CE		     2	       sub cx,si
 7A7F  2B D7		     2	       sub dx,di
 7A81  CD 10		     2	       int 10h
 7A83  8B 0E 0024 R	     2	       mov cx,pos_cenx
 7A87  8B 16 0026 R	     2	       mov dx,pos_ceny
 7A8B  03 CF		     2	       add cx,di
 7A8D  03 D6		     2	       add dx,si
 7A8F  CD 10		     2	       int 10h
 7A91  8B 0E 0024 R	     2	       mov cx,pos_cenx
 7A95  8B 16 0026 R	     2	       mov dx,pos_ceny
 7A99  2B CF		     2	       sub cx,di
 7A9B  03 D6		     2	       add dx,si
 7A9D  CD 10		     2	       int 10h
 7A9F  8B 0E 0024 R	     2	       mov cx,pos_cenx
 7AA3  8B 16 0026 R	     2	       mov dx,pos_ceny
 7AA7  03 CF		     2	       add cx,di
 7AA9  2B D6		     2	       sub dx,si
 7AAB  CD 10		     2	       int 10h
 7AAD  8B 0E 0024 R	     2	       mov cx,pos_cenx
 7AB1  8B 16 0026 R	     2	       mov dx,pos_ceny
 7AB5  2B CF		     2	       sub cx,di
 7AB7  2B D6		     2	       sub dx,si
 7AB9  CD 10		     2	       int 10h
 7ABB			     2	??03DC: 
 7ABB  8D 1E 7A24 R	     2		   lea bx,??03D7
 7ABF  FF E3		     2	       jmp bx
 7AC1			     2	??03DD:
 7AC1  B4 0C		     2	       mov ah,0ch
 7AC3  A0 0131 R	     2	       mov al,colo
 7AC6  B7 00		     2	       mov bh,0
 7AC8  8B 0E 0014 R	     2	       mov cx,pos_cenx-16
 7ACC  8B 16 0026 R	     2	       mov dx,pos_ceny
 7AD0  CD 10		     2	       int 10h
 7AD2  8B 0E 0034 R	     2	       mov cx,pos_cenx+16
 7AD6  8B 16 0026 R	     2	       mov dx,pos_ceny
 7ADA  CD 10		     2	       int 10h
 7ADC  8B 0E 0024 R	     2	       mov cx,pos_cenx
 7AE0  8B 16 0016 R	     2	       mov dx,pos_ceny-16
 7AE4  CD 10		     2	       int 10h
 7AE6  8B 0E 0024 R	     2	       mov cx,pos_cenx
 7AEA  8B 16 0036 R	     2	       mov dx,pos_ceny+16
 7AEE  CD 10		     2	       int 10h
 7AF0  5D		     2	       pop bp
 7AF1  5F		     2	       pop di
 7AF2  5E		     2	       pop si
 7AF3  5A		     2	       pop dx
 7AF4  59		     2	       pop cx
 7AF5  5B		     2	       pop bx
 7AF6  58		     2	       pop ax
 7AF7  50		     2	       push ax
 7AF8  53		     2	       push bx
 7AF9  51		     2	       push cx
 7AFA  52		     2	       push dx
 7AFB  56		     2	       push si
 7AFC  57		     2	       push di
 7AFD  55		     2	       push bp
 7AFE  B4 0C		     2	       mov ah,0ch
 7B00  A0 0131 R	     2	       mov al,colo
 7B03  B7 00		     2	       mov bh,0
 7B05  8B 0E 0024 R	     2	       mov cx,pos_cenx
 7B09  8B 16 0026 R	     2	       mov dx,pos_ceny
 7B0D  BE 0000		     2	       mov si,0         ;X
 7B10  BF 000F		     2	       mov di,15    ;Y
 7B13  BD FFF2		     2	       mov bp,1-15
 7B16			     2	??03DE: 
 7B16  3B F7		     2		   cmp si,di
 7B18  7C 06		     2	       jl ??03DF
 7B1A  8D 1E 7BB3 R	     2	       lea bx,??03E4
 7B1E  FF E3		     2	       jmp bx
 7B20			     2	??03DF:
 7B20  46		     2		   inc si
 7B21			     2	??03E0: 
 7B21  83 FD 00		     2	       cmp bp,0
 7B24  7D 09		     2	       jge ??03E1
 7B26  03 EE		     2	       add bp,si
 7B28  03 EE		     2	       add bp,si
 7B2A  83 C5 01		     2	       add bp,1
 7B2D  EB 0C		     2	       jmp ??03E2
 7B2F			     2	??03E1: 
 7B2F  4F		     2		   dec di
 7B30  03 EE		     2	       add bp,si
 7B32  03 EE		     2	       add bp,si
 7B34  2B EF		     2	       sub bp,di
 7B36  2B EF		     2	       sub bp,di
 7B38  83 C5 01		     2	       add bp,1
 7B3B			     2	??03E2: 
 7B3B  B7 00		     2		   mov bh,0
 7B3D  8B 0E 0024 R	     2	       mov cx,pos_cenx
 7B41  8B 16 0026 R	     2	       mov dx,pos_ceny
 7B45  03 CE		     2	       add cx,si
 7B47  03 D7		     2	       add dx,di
 7B49  CD 10		     2	       int 10h
 7B4B  8B 0E 0024 R	     2	       mov cx,pos_cenx
 7B4F  8B 16 0026 R	     2	       mov dx,pos_ceny
 7B53  2B CE		     2	       sub cx,si
 7B55  03 D7		     2	       add dx,di
 7B57  CD 10		     2	       int 10h
 7B59  8B 0E 0024 R	     2	       mov cx,pos_cenx
 7B5D  8B 16 0026 R	     2	       mov dx,pos_ceny
 7B61  03 CE		     2	       add cx,si
 7B63  2B D7		     2	       sub dx,di
 7B65  CD 10		     2	       int 10h
 7B67  8B 0E 0024 R	     2	       mov cx,pos_cenx
 7B6B  8B 16 0026 R	     2	       mov dx,pos_ceny
 7B6F  2B CE		     2	       sub cx,si
 7B71  2B D7		     2	       sub dx,di
 7B73  CD 10		     2	       int 10h
 7B75  8B 0E 0024 R	     2	       mov cx,pos_cenx
 7B79  8B 16 0026 R	     2	       mov dx,pos_ceny
 7B7D  03 CF		     2	       add cx,di
 7B7F  03 D6		     2	       add dx,si
 7B81  CD 10		     2	       int 10h
 7B83  8B 0E 0024 R	     2	       mov cx,pos_cenx
 7B87  8B 16 0026 R	     2	       mov dx,pos_ceny
 7B8B  2B CF		     2	       sub cx,di
 7B8D  03 D6		     2	       add dx,si
 7B8F  CD 10		     2	       int 10h
 7B91  8B 0E 0024 R	     2	       mov cx,pos_cenx
 7B95  8B 16 0026 R	     2	       mov dx,pos_ceny
 7B99  03 CF		     2	       add cx,di
 7B9B  2B D6		     2	       sub dx,si
 7B9D  CD 10		     2	       int 10h
 7B9F  8B 0E 0024 R	     2	       mov cx,pos_cenx
 7BA3  8B 16 0026 R	     2	       mov dx,pos_ceny
 7BA7  2B CF		     2	       sub cx,di
 7BA9  2B D6		     2	       sub dx,si
 7BAB  CD 10		     2	       int 10h
 7BAD			     2	??03E3: 
 7BAD  8D 1E 7B16 R	     2		   lea bx,??03DE
 7BB1  FF E3		     2	       jmp bx
 7BB3			     2	??03E4:
 7BB3  B4 0C		     2	       mov ah,0ch
 7BB5  A0 0131 R	     2	       mov al,colo
 7BB8  B7 00		     2	       mov bh,0
 7BBA  8B 0E 0015 R	     2	       mov cx,pos_cenx-15
 7BBE  8B 16 0026 R	     2	       mov dx,pos_ceny
 7BC2  CD 10		     2	       int 10h
 7BC4  8B 0E 0033 R	     2	       mov cx,pos_cenx+15
 7BC8  8B 16 0026 R	     2	       mov dx,pos_ceny
 7BCC  CD 10		     2	       int 10h
 7BCE  8B 0E 0024 R	     2	       mov cx,pos_cenx
 7BD2  8B 16 0017 R	     2	       mov dx,pos_ceny-15
 7BD6  CD 10		     2	       int 10h
 7BD8  8B 0E 0024 R	     2	       mov cx,pos_cenx
 7BDC  8B 16 0035 R	     2	       mov dx,pos_ceny+15
 7BE0  CD 10		     2	       int 10h
 7BE2  5D		     2	       pop bp
 7BE3  5F		     2	       pop di
 7BE4  5E		     2	       pop si
 7BE5  5A		     2	       pop dx
 7BE6  59		     2	       pop cx
 7BE7  5B		     2	       pop bx
 7BE8  58		     2	       pop ax
 7BE9  50		     2	       push ax
 7BEA  53		     2	       push bx
 7BEB  51		     2	       push cx
 7BEC  52		     2	       push dx
 7BED  56		     2	       push si
 7BEE  57		     2	       push di
 7BEF  55		     2	       push bp
 7BF0  B4 0C		     2	       mov ah,0ch
 7BF2  A0 0131 R	     2	       mov al,colo
 7BF5  B7 00		     2	       mov bh,0
 7BF7  8B 0E 0024 R	     2	       mov cx,pos_cenx
 7BFB  8B 16 0026 R	     2	       mov dx,pos_ceny
 7BFF  BE 0000		     2	       mov si,0         ;X
 7C02  BF 000E		     2	       mov di,14    ;Y
 7C05  BD FFF3		     2	       mov bp,1-14
 7C08			     2	??03E5: 
 7C08  3B F7		     2		   cmp si,di
 7C0A  7C 06		     2	       jl ??03E6
 7C0C  8D 1E 7CA5 R	     2	       lea bx,??03EB
 7C10  FF E3		     2	       jmp bx
 7C12			     2	??03E6:
 7C12  46		     2		   inc si
 7C13			     2	??03E7: 
 7C13  83 FD 00		     2	       cmp bp,0
 7C16  7D 09		     2	       jge ??03E8
 7C18  03 EE		     2	       add bp,si
 7C1A  03 EE		     2	       add bp,si
 7C1C  83 C5 01		     2	       add bp,1
 7C1F  EB 0C		     2	       jmp ??03E9
 7C21			     2	??03E8: 
 7C21  4F		     2		   dec di
 7C22  03 EE		     2	       add bp,si
 7C24  03 EE		     2	       add bp,si
 7C26  2B EF		     2	       sub bp,di
 7C28  2B EF		     2	       sub bp,di
 7C2A  83 C5 01		     2	       add bp,1
 7C2D			     2	??03E9: 
 7C2D  B7 00		     2		   mov bh,0
 7C2F  8B 0E 0024 R	     2	       mov cx,pos_cenx
 7C33  8B 16 0026 R	     2	       mov dx,pos_ceny
 7C37  03 CE		     2	       add cx,si
 7C39  03 D7		     2	       add dx,di
 7C3B  CD 10		     2	       int 10h
 7C3D  8B 0E 0024 R	     2	       mov cx,pos_cenx
 7C41  8B 16 0026 R	     2	       mov dx,pos_ceny
 7C45  2B CE		     2	       sub cx,si
 7C47  03 D7		     2	       add dx,di
 7C49  CD 10		     2	       int 10h
 7C4B  8B 0E 0024 R	     2	       mov cx,pos_cenx
 7C4F  8B 16 0026 R	     2	       mov dx,pos_ceny
 7C53  03 CE		     2	       add cx,si
 7C55  2B D7		     2	       sub dx,di
 7C57  CD 10		     2	       int 10h
 7C59  8B 0E 0024 R	     2	       mov cx,pos_cenx
 7C5D  8B 16 0026 R	     2	       mov dx,pos_ceny
 7C61  2B CE		     2	       sub cx,si
 7C63  2B D7		     2	       sub dx,di
 7C65  CD 10		     2	       int 10h
 7C67  8B 0E 0024 R	     2	       mov cx,pos_cenx
 7C6B  8B 16 0026 R	     2	       mov dx,pos_ceny
 7C6F  03 CF		     2	       add cx,di
 7C71  03 D6		     2	       add dx,si
 7C73  CD 10		     2	       int 10h
 7C75  8B 0E 0024 R	     2	       mov cx,pos_cenx
 7C79  8B 16 0026 R	     2	       mov dx,pos_ceny
 7C7D  2B CF		     2	       sub cx,di
 7C7F  03 D6		     2	       add dx,si
 7C81  CD 10		     2	       int 10h
 7C83  8B 0E 0024 R	     2	       mov cx,pos_cenx
 7C87  8B 16 0026 R	     2	       mov dx,pos_ceny
 7C8B  03 CF		     2	       add cx,di
 7C8D  2B D6		     2	       sub dx,si
 7C8F  CD 10		     2	       int 10h
 7C91  8B 0E 0024 R	     2	       mov cx,pos_cenx
 7C95  8B 16 0026 R	     2	       mov dx,pos_ceny
 7C99  2B CF		     2	       sub cx,di
 7C9B  2B D6		     2	       sub dx,si
 7C9D  CD 10		     2	       int 10h
 7C9F			     2	??03EA: 
 7C9F  8D 1E 7C08 R	     2		   lea bx,??03E5
 7CA3  FF E3		     2	       jmp bx
 7CA5			     2	??03EB:
 7CA5  B4 0C		     2	       mov ah,0ch
 7CA7  A0 0131 R	     2	       mov al,colo
 7CAA  B7 00		     2	       mov bh,0
 7CAC  8B 0E 0016 R	     2	       mov cx,pos_cenx-14
 7CB0  8B 16 0026 R	     2	       mov dx,pos_ceny
 7CB4  CD 10		     2	       int 10h
 7CB6  8B 0E 0032 R	     2	       mov cx,pos_cenx+14
 7CBA  8B 16 0026 R	     2	       mov dx,pos_ceny
 7CBE  CD 10		     2	       int 10h
 7CC0  8B 0E 0024 R	     2	       mov cx,pos_cenx
 7CC4  8B 16 0018 R	     2	       mov dx,pos_ceny-14
 7CC8  CD 10		     2	       int 10h
 7CCA  8B 0E 0024 R	     2	       mov cx,pos_cenx
 7CCE  8B 16 0034 R	     2	       mov dx,pos_ceny+14
 7CD2  CD 10		     2	       int 10h
 7CD4  5D		     2	       pop bp
 7CD5  5F		     2	       pop di
 7CD6  5E		     2	       pop si
 7CD7  5A		     2	       pop dx
 7CD8  59		     2	       pop cx
 7CD9  5B		     2	       pop bx
 7CDA  58		     2	       pop ax
 7CDB  50		     2	       push ax
 7CDC  53		     2	       push bx
 7CDD  51		     2	       push cx
 7CDE  52		     2	       push dx
 7CDF  56		     2	       push si
 7CE0  57		     2	       push di
 7CE1  55		     2	       push bp
 7CE2  B4 0C		     2	       mov ah,0ch
 7CE4  A0 0131 R	     2	       mov al,colo
 7CE7  B7 00		     2	       mov bh,0
 7CE9  8B 0E 0024 R	     2	       mov cx,pos_cenx
 7CED  8B 16 0026 R	     2	       mov dx,pos_ceny
 7CF1  BE 0000		     2	       mov si,0         ;X
 7CF4  BF 000D		     2	       mov di,13    ;Y
 7CF7  BD FFF4		     2	       mov bp,1-13
 7CFA			     2	??03EC: 
 7CFA  3B F7		     2		   cmp si,di
 7CFC  7C 06		     2	       jl ??03ED
 7CFE  8D 1E 7D97 R	     2	       lea bx,??03F2
 7D02  FF E3		     2	       jmp bx
 7D04			     2	??03ED:
 7D04  46		     2		   inc si
 7D05			     2	??03EE: 
 7D05  83 FD 00		     2	       cmp bp,0
 7D08  7D 09		     2	       jge ??03EF
 7D0A  03 EE		     2	       add bp,si
 7D0C  03 EE		     2	       add bp,si
 7D0E  83 C5 01		     2	       add bp,1
 7D11  EB 0C		     2	       jmp ??03F0
 7D13			     2	??03EF: 
 7D13  4F		     2		   dec di
 7D14  03 EE		     2	       add bp,si
 7D16  03 EE		     2	       add bp,si
 7D18  2B EF		     2	       sub bp,di
 7D1A  2B EF		     2	       sub bp,di
 7D1C  83 C5 01		     2	       add bp,1
 7D1F			     2	??03F0: 
 7D1F  B7 00		     2		   mov bh,0
 7D21  8B 0E 0024 R	     2	       mov cx,pos_cenx
 7D25  8B 16 0026 R	     2	       mov dx,pos_ceny
 7D29  03 CE		     2	       add cx,si
 7D2B  03 D7		     2	       add dx,di
 7D2D  CD 10		     2	       int 10h
 7D2F  8B 0E 0024 R	     2	       mov cx,pos_cenx
 7D33  8B 16 0026 R	     2	       mov dx,pos_ceny
 7D37  2B CE		     2	       sub cx,si
 7D39  03 D7		     2	       add dx,di
 7D3B  CD 10		     2	       int 10h
 7D3D  8B 0E 0024 R	     2	       mov cx,pos_cenx
 7D41  8B 16 0026 R	     2	       mov dx,pos_ceny
 7D45  03 CE		     2	       add cx,si
 7D47  2B D7		     2	       sub dx,di
 7D49  CD 10		     2	       int 10h
 7D4B  8B 0E 0024 R	     2	       mov cx,pos_cenx
 7D4F  8B 16 0026 R	     2	       mov dx,pos_ceny
 7D53  2B CE		     2	       sub cx,si
 7D55  2B D7		     2	       sub dx,di
 7D57  CD 10		     2	       int 10h
 7D59  8B 0E 0024 R	     2	       mov cx,pos_cenx
 7D5D  8B 16 0026 R	     2	       mov dx,pos_ceny
 7D61  03 CF		     2	       add cx,di
 7D63  03 D6		     2	       add dx,si
 7D65  CD 10		     2	       int 10h
 7D67  8B 0E 0024 R	     2	       mov cx,pos_cenx
 7D6B  8B 16 0026 R	     2	       mov dx,pos_ceny
 7D6F  2B CF		     2	       sub cx,di
 7D71  03 D6		     2	       add dx,si
 7D73  CD 10		     2	       int 10h
 7D75  8B 0E 0024 R	     2	       mov cx,pos_cenx
 7D79  8B 16 0026 R	     2	       mov dx,pos_ceny
 7D7D  03 CF		     2	       add cx,di
 7D7F  2B D6		     2	       sub dx,si
 7D81  CD 10		     2	       int 10h
 7D83  8B 0E 0024 R	     2	       mov cx,pos_cenx
 7D87  8B 16 0026 R	     2	       mov dx,pos_ceny
 7D8B  2B CF		     2	       sub cx,di
 7D8D  2B D6		     2	       sub dx,si
 7D8F  CD 10		     2	       int 10h
 7D91			     2	??03F1: 
 7D91  8D 1E 7CFA R	     2		   lea bx,??03EC
 7D95  FF E3		     2	       jmp bx
 7D97			     2	??03F2:
 7D97  B4 0C		     2	       mov ah,0ch
 7D99  A0 0131 R	     2	       mov al,colo
 7D9C  B7 00		     2	       mov bh,0
 7D9E  8B 0E 0017 R	     2	       mov cx,pos_cenx-13
 7DA2  8B 16 0026 R	     2	       mov dx,pos_ceny
 7DA6  CD 10		     2	       int 10h
 7DA8  8B 0E 0031 R	     2	       mov cx,pos_cenx+13
 7DAC  8B 16 0026 R	     2	       mov dx,pos_ceny
 7DB0  CD 10		     2	       int 10h
 7DB2  8B 0E 0024 R	     2	       mov cx,pos_cenx
 7DB6  8B 16 0019 R	     2	       mov dx,pos_ceny-13
 7DBA  CD 10		     2	       int 10h
 7DBC  8B 0E 0024 R	     2	       mov cx,pos_cenx
 7DC0  8B 16 0033 R	     2	       mov dx,pos_ceny+13
 7DC4  CD 10		     2	       int 10h
 7DC6  5D		     2	       pop bp
 7DC7  5F		     2	       pop di
 7DC8  5E		     2	       pop si
 7DC9  5A		     2	       pop dx
 7DCA  59		     2	       pop cx
 7DCB  5B		     2	       pop bx
 7DCC  58		     2	       pop ax
 7DCD  50		     2	       push ax
 7DCE  53		     2	       push bx
 7DCF  51		     2	       push cx
 7DD0  52		     2	       push dx
 7DD1  56		     2	       push si
 7DD2  57		     2	       push di
 7DD3  55		     2	       push bp
 7DD4  B4 0C		     2	       mov ah,0ch
 7DD6  A0 0131 R	     2	       mov al,colo
 7DD9  B7 00		     2	       mov bh,0
 7DDB  8B 0E 0024 R	     2	       mov cx,pos_cenx
 7DDF  8B 16 0026 R	     2	       mov dx,pos_ceny
 7DE3  BE 0000		     2	       mov si,0         ;X
 7DE6  BF 000C		     2	       mov di,12    ;Y
 7DE9  BD FFF5		     2	       mov bp,1-12
 7DEC			     2	??03F3: 
 7DEC  3B F7		     2		   cmp si,di
 7DEE  7C 06		     2	       jl ??03F4
 7DF0  8D 1E 7E89 R	     2	       lea bx,??03F9
 7DF4  FF E3		     2	       jmp bx
 7DF6			     2	??03F4:
 7DF6  46		     2		   inc si
 7DF7			     2	??03F5: 
 7DF7  83 FD 00		     2	       cmp bp,0
 7DFA  7D 09		     2	       jge ??03F6
 7DFC  03 EE		     2	       add bp,si
 7DFE  03 EE		     2	       add bp,si
 7E00  83 C5 01		     2	       add bp,1
 7E03  EB 0C		     2	       jmp ??03F7
 7E05			     2	??03F6: 
 7E05  4F		     2		   dec di
 7E06  03 EE		     2	       add bp,si
 7E08  03 EE		     2	       add bp,si
 7E0A  2B EF		     2	       sub bp,di
 7E0C  2B EF		     2	       sub bp,di
 7E0E  83 C5 01		     2	       add bp,1
 7E11			     2	??03F7: 
 7E11  B7 00		     2		   mov bh,0
 7E13  8B 0E 0024 R	     2	       mov cx,pos_cenx
 7E17  8B 16 0026 R	     2	       mov dx,pos_ceny
 7E1B  03 CE		     2	       add cx,si
 7E1D  03 D7		     2	       add dx,di
 7E1F  CD 10		     2	       int 10h
 7E21  8B 0E 0024 R	     2	       mov cx,pos_cenx
 7E25  8B 16 0026 R	     2	       mov dx,pos_ceny
 7E29  2B CE		     2	       sub cx,si
 7E2B  03 D7		     2	       add dx,di
 7E2D  CD 10		     2	       int 10h
 7E2F  8B 0E 0024 R	     2	       mov cx,pos_cenx
 7E33  8B 16 0026 R	     2	       mov dx,pos_ceny
 7E37  03 CE		     2	       add cx,si
 7E39  2B D7		     2	       sub dx,di
 7E3B  CD 10		     2	       int 10h
 7E3D  8B 0E 0024 R	     2	       mov cx,pos_cenx
 7E41  8B 16 0026 R	     2	       mov dx,pos_ceny
 7E45  2B CE		     2	       sub cx,si
 7E47  2B D7		     2	       sub dx,di
 7E49  CD 10		     2	       int 10h
 7E4B  8B 0E 0024 R	     2	       mov cx,pos_cenx
 7E4F  8B 16 0026 R	     2	       mov dx,pos_ceny
 7E53  03 CF		     2	       add cx,di
 7E55  03 D6		     2	       add dx,si
 7E57  CD 10		     2	       int 10h
 7E59  8B 0E 0024 R	     2	       mov cx,pos_cenx
 7E5D  8B 16 0026 R	     2	       mov dx,pos_ceny
 7E61  2B CF		     2	       sub cx,di
 7E63  03 D6		     2	       add dx,si
 7E65  CD 10		     2	       int 10h
 7E67  8B 0E 0024 R	     2	       mov cx,pos_cenx
 7E6B  8B 16 0026 R	     2	       mov dx,pos_ceny
 7E6F  03 CF		     2	       add cx,di
 7E71  2B D6		     2	       sub dx,si
 7E73  CD 10		     2	       int 10h
 7E75  8B 0E 0024 R	     2	       mov cx,pos_cenx
 7E79  8B 16 0026 R	     2	       mov dx,pos_ceny
 7E7D  2B CF		     2	       sub cx,di
 7E7F  2B D6		     2	       sub dx,si
 7E81  CD 10		     2	       int 10h
 7E83			     2	??03F8: 
 7E83  8D 1E 7DEC R	     2		   lea bx,??03F3
 7E87  FF E3		     2	       jmp bx
 7E89			     2	??03F9:
 7E89  B4 0C		     2	       mov ah,0ch
 7E8B  A0 0131 R	     2	       mov al,colo
 7E8E  B7 00		     2	       mov bh,0
 7E90  8B 0E 0018 R	     2	       mov cx,pos_cenx-12
 7E94  8B 16 0026 R	     2	       mov dx,pos_ceny
 7E98  CD 10		     2	       int 10h
 7E9A  8B 0E 0030 R	     2	       mov cx,pos_cenx+12
 7E9E  8B 16 0026 R	     2	       mov dx,pos_ceny
 7EA2  CD 10		     2	       int 10h
 7EA4  8B 0E 0024 R	     2	       mov cx,pos_cenx
 7EA8  8B 16 001A R	     2	       mov dx,pos_ceny-12
 7EAC  CD 10		     2	       int 10h
 7EAE  8B 0E 0024 R	     2	       mov cx,pos_cenx
 7EB2  8B 16 0032 R	     2	       mov dx,pos_ceny+12
 7EB6  CD 10		     2	       int 10h
 7EB8  5D		     2	       pop bp
 7EB9  5F		     2	       pop di
 7EBA  5E		     2	       pop si
 7EBB  5A		     2	       pop dx
 7EBC  59		     2	       pop cx
 7EBD  5B		     2	       pop bx
 7EBE  58		     2	       pop ax
 7EBF  50		     2	       push ax
 7EC0  53		     2	       push bx
 7EC1  51		     2	       push cx
 7EC2  52		     2	       push dx
 7EC3  56		     2	       push si
 7EC4  57		     2	       push di
 7EC5  55		     2	       push bp
 7EC6  B4 0C		     2	       mov ah,0ch
 7EC8  A0 0131 R	     2	       mov al,colo
 7ECB  B7 00		     2	       mov bh,0
 7ECD  8B 0E 0024 R	     2	       mov cx,pos_cenx
 7ED1  8B 16 0026 R	     2	       mov dx,pos_ceny
 7ED5  BE 0000		     2	       mov si,0         ;X
 7ED8  BF 000B		     2	       mov di,11    ;Y
 7EDB  BD FFF6		     2	       mov bp,1-11
 7EDE			     2	??03FA: 
 7EDE  3B F7		     2		   cmp si,di
 7EE0  7C 06		     2	       jl ??03FB
 7EE2  8D 1E 7F7B R	     2	       lea bx,??0400
 7EE6  FF E3		     2	       jmp bx
 7EE8			     2	??03FB:
 7EE8  46		     2		   inc si
 7EE9			     2	??03FC: 
 7EE9  83 FD 00		     2	       cmp bp,0
 7EEC  7D 09		     2	       jge ??03FD
 7EEE  03 EE		     2	       add bp,si
 7EF0  03 EE		     2	       add bp,si
 7EF2  83 C5 01		     2	       add bp,1
 7EF5  EB 0C		     2	       jmp ??03FE
 7EF7			     2	??03FD: 
 7EF7  4F		     2		   dec di
 7EF8  03 EE		     2	       add bp,si
 7EFA  03 EE		     2	       add bp,si
 7EFC  2B EF		     2	       sub bp,di
 7EFE  2B EF		     2	       sub bp,di
 7F00  83 C5 01		     2	       add bp,1
 7F03			     2	??03FE: 
 7F03  B7 00		     2		   mov bh,0
 7F05  8B 0E 0024 R	     2	       mov cx,pos_cenx
 7F09  8B 16 0026 R	     2	       mov dx,pos_ceny
 7F0D  03 CE		     2	       add cx,si
 7F0F  03 D7		     2	       add dx,di
 7F11  CD 10		     2	       int 10h
 7F13  8B 0E 0024 R	     2	       mov cx,pos_cenx
 7F17  8B 16 0026 R	     2	       mov dx,pos_ceny
 7F1B  2B CE		     2	       sub cx,si
 7F1D  03 D7		     2	       add dx,di
 7F1F  CD 10		     2	       int 10h
 7F21  8B 0E 0024 R	     2	       mov cx,pos_cenx
 7F25  8B 16 0026 R	     2	       mov dx,pos_ceny
 7F29  03 CE		     2	       add cx,si
 7F2B  2B D7		     2	       sub dx,di
 7F2D  CD 10		     2	       int 10h
 7F2F  8B 0E 0024 R	     2	       mov cx,pos_cenx
 7F33  8B 16 0026 R	     2	       mov dx,pos_ceny
 7F37  2B CE		     2	       sub cx,si
 7F39  2B D7		     2	       sub dx,di
 7F3B  CD 10		     2	       int 10h
 7F3D  8B 0E 0024 R	     2	       mov cx,pos_cenx
 7F41  8B 16 0026 R	     2	       mov dx,pos_ceny
 7F45  03 CF		     2	       add cx,di
 7F47  03 D6		     2	       add dx,si
 7F49  CD 10		     2	       int 10h
 7F4B  8B 0E 0024 R	     2	       mov cx,pos_cenx
 7F4F  8B 16 0026 R	     2	       mov dx,pos_ceny
 7F53  2B CF		     2	       sub cx,di
 7F55  03 D6		     2	       add dx,si
 7F57  CD 10		     2	       int 10h
 7F59  8B 0E 0024 R	     2	       mov cx,pos_cenx
 7F5D  8B 16 0026 R	     2	       mov dx,pos_ceny
 7F61  03 CF		     2	       add cx,di
 7F63  2B D6		     2	       sub dx,si
 7F65  CD 10		     2	       int 10h
 7F67  8B 0E 0024 R	     2	       mov cx,pos_cenx
 7F6B  8B 16 0026 R	     2	       mov dx,pos_ceny
 7F6F  2B CF		     2	       sub cx,di
 7F71  2B D6		     2	       sub dx,si
 7F73  CD 10		     2	       int 10h
 7F75			     2	??03FF: 
 7F75  8D 1E 7EDE R	     2		   lea bx,??03FA
 7F79  FF E3		     2	       jmp bx
 7F7B			     2	??0400:
 7F7B  B4 0C		     2	       mov ah,0ch
 7F7D  A0 0131 R	     2	       mov al,colo
 7F80  B7 00		     2	       mov bh,0
 7F82  8B 0E 0019 R	     2	       mov cx,pos_cenx-11
 7F86  8B 16 0026 R	     2	       mov dx,pos_ceny
 7F8A  CD 10		     2	       int 10h
 7F8C  8B 0E 002F R	     2	       mov cx,pos_cenx+11
 7F90  8B 16 0026 R	     2	       mov dx,pos_ceny
 7F94  CD 10		     2	       int 10h
 7F96  8B 0E 0024 R	     2	       mov cx,pos_cenx
 7F9A  8B 16 001B R	     2	       mov dx,pos_ceny-11
 7F9E  CD 10		     2	       int 10h
 7FA0  8B 0E 0024 R	     2	       mov cx,pos_cenx
 7FA4  8B 16 0031 R	     2	       mov dx,pos_ceny+11
 7FA8  CD 10		     2	       int 10h
 7FAA  5D		     2	       pop bp
 7FAB  5F		     2	       pop di
 7FAC  5E		     2	       pop si
 7FAD  5A		     2	       pop dx
 7FAE  59		     2	       pop cx
 7FAF  5B		     2	       pop bx
 7FB0  58		     2	       pop ax
 7FB1  50		     2	       push ax
 7FB2  53		     2	       push bx
 7FB3  51		     2	       push cx
 7FB4  52		     2	       push dx
 7FB5  56		     2	       push si
 7FB6  57		     2	       push di
 7FB7  55		     2	       push bp
 7FB8  B4 0C		     2	       mov ah,0ch
 7FBA  A0 0131 R	     2	       mov al,colo
 7FBD  B7 00		     2	       mov bh,0
 7FBF  8B 0E 0024 R	     2	       mov cx,pos_cenx
 7FC3  8B 16 0026 R	     2	       mov dx,pos_ceny
 7FC7  BE 0000		     2	       mov si,0         ;X
 7FCA  BF 000A		     2	       mov di,10    ;Y
 7FCD  BD FFF7		     2	       mov bp,1-10
 7FD0			     2	??0401: 
 7FD0  3B F7		     2		   cmp si,di
 7FD2  7C 06		     2	       jl ??0402
 7FD4  8D 1E 806D R	     2	       lea bx,??0407
 7FD8  FF E3		     2	       jmp bx
 7FDA			     2	??0402:
 7FDA  46		     2		   inc si
 7FDB			     2	??0403: 
 7FDB  83 FD 00		     2	       cmp bp,0
 7FDE  7D 09		     2	       jge ??0404
 7FE0  03 EE		     2	       add bp,si
 7FE2  03 EE		     2	       add bp,si
 7FE4  83 C5 01		     2	       add bp,1
 7FE7  EB 0C		     2	       jmp ??0405
 7FE9			     2	??0404: 
 7FE9  4F		     2		   dec di
 7FEA  03 EE		     2	       add bp,si
 7FEC  03 EE		     2	       add bp,si
 7FEE  2B EF		     2	       sub bp,di
 7FF0  2B EF		     2	       sub bp,di
 7FF2  83 C5 01		     2	       add bp,1
 7FF5			     2	??0405: 
 7FF5  B7 00		     2		   mov bh,0
 7FF7  8B 0E 0024 R	     2	       mov cx,pos_cenx
 7FFB  8B 16 0026 R	     2	       mov dx,pos_ceny
 7FFF  03 CE		     2	       add cx,si
 8001  03 D7		     2	       add dx,di
 8003  CD 10		     2	       int 10h
 8005  8B 0E 0024 R	     2	       mov cx,pos_cenx
 8009  8B 16 0026 R	     2	       mov dx,pos_ceny
 800D  2B CE		     2	       sub cx,si
 800F  03 D7		     2	       add dx,di
 8011  CD 10		     2	       int 10h
 8013  8B 0E 0024 R	     2	       mov cx,pos_cenx
 8017  8B 16 0026 R	     2	       mov dx,pos_ceny
 801B  03 CE		     2	       add cx,si
 801D  2B D7		     2	       sub dx,di
 801F  CD 10		     2	       int 10h
 8021  8B 0E 0024 R	     2	       mov cx,pos_cenx
 8025  8B 16 0026 R	     2	       mov dx,pos_ceny
 8029  2B CE		     2	       sub cx,si
 802B  2B D7		     2	       sub dx,di
 802D  CD 10		     2	       int 10h
 802F  8B 0E 0024 R	     2	       mov cx,pos_cenx
 8033  8B 16 0026 R	     2	       mov dx,pos_ceny
 8037  03 CF		     2	       add cx,di
 8039  03 D6		     2	       add dx,si
 803B  CD 10		     2	       int 10h
 803D  8B 0E 0024 R	     2	       mov cx,pos_cenx
 8041  8B 16 0026 R	     2	       mov dx,pos_ceny
 8045  2B CF		     2	       sub cx,di
 8047  03 D6		     2	       add dx,si
 8049  CD 10		     2	       int 10h
 804B  8B 0E 0024 R	     2	       mov cx,pos_cenx
 804F  8B 16 0026 R	     2	       mov dx,pos_ceny
 8053  03 CF		     2	       add cx,di
 8055  2B D6		     2	       sub dx,si
 8057  CD 10		     2	       int 10h
 8059  8B 0E 0024 R	     2	       mov cx,pos_cenx
 805D  8B 16 0026 R	     2	       mov dx,pos_ceny
 8061  2B CF		     2	       sub cx,di
 8063  2B D6		     2	       sub dx,si
 8065  CD 10		     2	       int 10h
 8067			     2	??0406: 
 8067  8D 1E 7FD0 R	     2		   lea bx,??0401
 806B  FF E3		     2	       jmp bx
 806D			     2	??0407:
 806D  B4 0C		     2	       mov ah,0ch
 806F  A0 0131 R	     2	       mov al,colo
 8072  B7 00		     2	       mov bh,0
 8074  8B 0E 001A R	     2	       mov cx,pos_cenx-10
 8078  8B 16 0026 R	     2	       mov dx,pos_ceny
 807C  CD 10		     2	       int 10h
 807E  8B 0E 002E R	     2	       mov cx,pos_cenx+10
 8082  8B 16 0026 R	     2	       mov dx,pos_ceny
 8086  CD 10		     2	       int 10h
 8088  8B 0E 0024 R	     2	       mov cx,pos_cenx
 808C  8B 16 001C R	     2	       mov dx,pos_ceny-10
 8090  CD 10		     2	       int 10h
 8092  8B 0E 0024 R	     2	       mov cx,pos_cenx
 8096  8B 16 0030 R	     2	       mov dx,pos_ceny+10
 809A  CD 10		     2	       int 10h
 809C  5D		     2	       pop bp
 809D  5F		     2	       pop di
 809E  5E		     2	       pop si
 809F  5A		     2	       pop dx
 80A0  59		     2	       pop cx
 80A1  5B		     2	       pop bx
 80A2  58		     2	       pop ax
 80A3  50		     2	       push ax
 80A4  53		     2	       push bx
 80A5  51		     2	       push cx
 80A6  52		     2	       push dx
 80A7  56		     2	       push si
 80A8  57		     2	       push di
 80A9  55		     2	       push bp
 80AA  B4 0C		     2	       mov ah,0ch
 80AC  A0 0131 R	     2	       mov al,colo
 80AF  B7 00		     2	       mov bh,0
 80B1  8B 0E 0024 R	     2	       mov cx,pos_cenx
 80B5  8B 16 0026 R	     2	       mov dx,pos_ceny
 80B9  BE 0000		     2	       mov si,0         ;X
 80BC  BF 0009		     2	       mov di,09    ;Y
 80BF  BD FFF8		     2	       mov bp,1-09
 80C2			     2	??0408: 
 80C2  3B F7		     2		   cmp si,di
 80C4  7C 06		     2	       jl ??0409
 80C6  8D 1E 815F R	     2	       lea bx,??040E
 80CA  FF E3		     2	       jmp bx
 80CC			     2	??0409:
 80CC  46		     2		   inc si
 80CD			     2	??040A: 
 80CD  83 FD 00		     2	       cmp bp,0
 80D0  7D 09		     2	       jge ??040B
 80D2  03 EE		     2	       add bp,si
 80D4  03 EE		     2	       add bp,si
 80D6  83 C5 01		     2	       add bp,1
 80D9  EB 0C		     2	       jmp ??040C
 80DB			     2	??040B: 
 80DB  4F		     2		   dec di
 80DC  03 EE		     2	       add bp,si
 80DE  03 EE		     2	       add bp,si
 80E0  2B EF		     2	       sub bp,di
 80E2  2B EF		     2	       sub bp,di
 80E4  83 C5 01		     2	       add bp,1
 80E7			     2	??040C: 
 80E7  B7 00		     2		   mov bh,0
 80E9  8B 0E 0024 R	     2	       mov cx,pos_cenx
 80ED  8B 16 0026 R	     2	       mov dx,pos_ceny
 80F1  03 CE		     2	       add cx,si
 80F3  03 D7		     2	       add dx,di
 80F5  CD 10		     2	       int 10h
 80F7  8B 0E 0024 R	     2	       mov cx,pos_cenx
 80FB  8B 16 0026 R	     2	       mov dx,pos_ceny
 80FF  2B CE		     2	       sub cx,si
 8101  03 D7		     2	       add dx,di
 8103  CD 10		     2	       int 10h
 8105  8B 0E 0024 R	     2	       mov cx,pos_cenx
 8109  8B 16 0026 R	     2	       mov dx,pos_ceny
 810D  03 CE		     2	       add cx,si
 810F  2B D7		     2	       sub dx,di
 8111  CD 10		     2	       int 10h
 8113  8B 0E 0024 R	     2	       mov cx,pos_cenx
 8117  8B 16 0026 R	     2	       mov dx,pos_ceny
 811B  2B CE		     2	       sub cx,si
 811D  2B D7		     2	       sub dx,di
 811F  CD 10		     2	       int 10h
 8121  8B 0E 0024 R	     2	       mov cx,pos_cenx
 8125  8B 16 0026 R	     2	       mov dx,pos_ceny
 8129  03 CF		     2	       add cx,di
 812B  03 D6		     2	       add dx,si
 812D  CD 10		     2	       int 10h
 812F  8B 0E 0024 R	     2	       mov cx,pos_cenx
 8133  8B 16 0026 R	     2	       mov dx,pos_ceny
 8137  2B CF		     2	       sub cx,di
 8139  03 D6		     2	       add dx,si
 813B  CD 10		     2	       int 10h
 813D  8B 0E 0024 R	     2	       mov cx,pos_cenx
 8141  8B 16 0026 R	     2	       mov dx,pos_ceny
 8145  03 CF		     2	       add cx,di
 8147  2B D6		     2	       sub dx,si
 8149  CD 10		     2	       int 10h
 814B  8B 0E 0024 R	     2	       mov cx,pos_cenx
 814F  8B 16 0026 R	     2	       mov dx,pos_ceny
 8153  2B CF		     2	       sub cx,di
 8155  2B D6		     2	       sub dx,si
 8157  CD 10		     2	       int 10h
 8159			     2	??040D: 
 8159  8D 1E 80C2 R	     2		   lea bx,??0408
 815D  FF E3		     2	       jmp bx
 815F			     2	??040E:
 815F  B4 0C		     2	       mov ah,0ch
 8161  A0 0131 R	     2	       mov al,colo
 8164  B7 00		     2	       mov bh,0
 8166  8B 0E 001B R	     2	       mov cx,pos_cenx-09
 816A  8B 16 0026 R	     2	       mov dx,pos_ceny
 816E  CD 10		     2	       int 10h
 8170  8B 0E 002D R	     2	       mov cx,pos_cenx+09
 8174  8B 16 0026 R	     2	       mov dx,pos_ceny
 8178  CD 10		     2	       int 10h
 817A  8B 0E 0024 R	     2	       mov cx,pos_cenx
 817E  8B 16 001D R	     2	       mov dx,pos_ceny-09
 8182  CD 10		     2	       int 10h
 8184  8B 0E 0024 R	     2	       mov cx,pos_cenx
 8188  8B 16 002F R	     2	       mov dx,pos_ceny+09
 818C  CD 10		     2	       int 10h
 818E  5D		     2	       pop bp
 818F  5F		     2	       pop di
 8190  5E		     2	       pop si
 8191  5A		     2	       pop dx
 8192  59		     2	       pop cx
 8193  5B		     2	       pop bx
 8194  58		     2	       pop ax
 8195  50		     2	       push ax
 8196  53		     2	       push bx
 8197  51		     2	       push cx
 8198  52		     2	       push dx
 8199  56		     2	       push si
 819A  57		     2	       push di
 819B  55		     2	       push bp
 819C  B4 0C		     2	       mov ah,0ch
 819E  A0 0131 R	     2	       mov al,colo
 81A1  B7 00		     2	       mov bh,0
 81A3  8B 0E 0024 R	     2	       mov cx,pos_cenx
 81A7  8B 16 0026 R	     2	       mov dx,pos_ceny
 81AB  BE 0000		     2	       mov si,0         ;X
 81AE  BF 0008		     2	       mov di,08    ;Y
 81B1  BD FFF9		     2	       mov bp,1-08
 81B4			     2	??040F: 
 81B4  3B F7		     2		   cmp si,di
 81B6  7C 06		     2	       jl ??0410
 81B8  8D 1E 8251 R	     2	       lea bx,??0415
 81BC  FF E3		     2	       jmp bx
 81BE			     2	??0410:
 81BE  46		     2		   inc si
 81BF			     2	??0411: 
 81BF  83 FD 00		     2	       cmp bp,0
 81C2  7D 09		     2	       jge ??0412
 81C4  03 EE		     2	       add bp,si
 81C6  03 EE		     2	       add bp,si
 81C8  83 C5 01		     2	       add bp,1
 81CB  EB 0C		     2	       jmp ??0413
 81CD			     2	??0412: 
 81CD  4F		     2		   dec di
 81CE  03 EE		     2	       add bp,si
 81D0  03 EE		     2	       add bp,si
 81D2  2B EF		     2	       sub bp,di
 81D4  2B EF		     2	       sub bp,di
 81D6  83 C5 01		     2	       add bp,1
 81D9			     2	??0413: 
 81D9  B7 00		     2		   mov bh,0
 81DB  8B 0E 0024 R	     2	       mov cx,pos_cenx
 81DF  8B 16 0026 R	     2	       mov dx,pos_ceny
 81E3  03 CE		     2	       add cx,si
 81E5  03 D7		     2	       add dx,di
 81E7  CD 10		     2	       int 10h
 81E9  8B 0E 0024 R	     2	       mov cx,pos_cenx
 81ED  8B 16 0026 R	     2	       mov dx,pos_ceny
 81F1  2B CE		     2	       sub cx,si
 81F3  03 D7		     2	       add dx,di
 81F5  CD 10		     2	       int 10h
 81F7  8B 0E 0024 R	     2	       mov cx,pos_cenx
 81FB  8B 16 0026 R	     2	       mov dx,pos_ceny
 81FF  03 CE		     2	       add cx,si
 8201  2B D7		     2	       sub dx,di
 8203  CD 10		     2	       int 10h
 8205  8B 0E 0024 R	     2	       mov cx,pos_cenx
 8209  8B 16 0026 R	     2	       mov dx,pos_ceny
 820D  2B CE		     2	       sub cx,si
 820F  2B D7		     2	       sub dx,di
 8211  CD 10		     2	       int 10h
 8213  8B 0E 0024 R	     2	       mov cx,pos_cenx
 8217  8B 16 0026 R	     2	       mov dx,pos_ceny
 821B  03 CF		     2	       add cx,di
 821D  03 D6		     2	       add dx,si
 821F  CD 10		     2	       int 10h
 8221  8B 0E 0024 R	     2	       mov cx,pos_cenx
 8225  8B 16 0026 R	     2	       mov dx,pos_ceny
 8229  2B CF		     2	       sub cx,di
 822B  03 D6		     2	       add dx,si
 822D  CD 10		     2	       int 10h
 822F  8B 0E 0024 R	     2	       mov cx,pos_cenx
 8233  8B 16 0026 R	     2	       mov dx,pos_ceny
 8237  03 CF		     2	       add cx,di
 8239  2B D6		     2	       sub dx,si
 823B  CD 10		     2	       int 10h
 823D  8B 0E 0024 R	     2	       mov cx,pos_cenx
 8241  8B 16 0026 R	     2	       mov dx,pos_ceny
 8245  2B CF		     2	       sub cx,di
 8247  2B D6		     2	       sub dx,si
 8249  CD 10		     2	       int 10h
 824B			     2	??0414: 
 824B  8D 1E 81B4 R	     2		   lea bx,??040F
 824F  FF E3		     2	       jmp bx
 8251			     2	??0415:
 8251  B4 0C		     2	       mov ah,0ch
 8253  A0 0131 R	     2	       mov al,colo
 8256  B7 00		     2	       mov bh,0
 8258  8B 0E 001C R	     2	       mov cx,pos_cenx-08
 825C  8B 16 0026 R	     2	       mov dx,pos_ceny
 8260  CD 10		     2	       int 10h
 8262  8B 0E 002C R	     2	       mov cx,pos_cenx+08
 8266  8B 16 0026 R	     2	       mov dx,pos_ceny
 826A  CD 10		     2	       int 10h
 826C  8B 0E 0024 R	     2	       mov cx,pos_cenx
 8270  8B 16 001E R	     2	       mov dx,pos_ceny-08
 8274  CD 10		     2	       int 10h
 8276  8B 0E 0024 R	     2	       mov cx,pos_cenx
 827A  8B 16 002E R	     2	       mov dx,pos_ceny+08
 827E  CD 10		     2	       int 10h
 8280  5D		     2	       pop bp
 8281  5F		     2	       pop di
 8282  5E		     2	       pop si
 8283  5A		     2	       pop dx
 8284  59		     2	       pop cx
 8285  5B		     2	       pop bx
 8286  58		     2	       pop ax
 8287  50		     2	       push ax
 8288  53		     2	       push bx
 8289  51		     2	       push cx
 828A  52		     2	       push dx
 828B  56		     2	       push si
 828C  57		     2	       push di
 828D  55		     2	       push bp
 828E  B4 0C		     2	       mov ah,0ch
 8290  A0 0131 R	     2	       mov al,colo
 8293  B7 00		     2	       mov bh,0
 8295  8B 0E 0024 R	     2	       mov cx,pos_cenx
 8299  8B 16 0026 R	     2	       mov dx,pos_ceny
 829D  BE 0000		     2	       mov si,0         ;X
 82A0  BF 0007		     2	       mov di,07    ;Y
 82A3  BD FFFA		     2	       mov bp,1-07
 82A6			     2	??0416: 
 82A6  3B F7		     2		   cmp si,di
 82A8  7C 06		     2	       jl ??0417
 82AA  8D 1E 8343 R	     2	       lea bx,??041C
 82AE  FF E3		     2	       jmp bx
 82B0			     2	??0417:
 82B0  46		     2		   inc si
 82B1			     2	??0418: 
 82B1  83 FD 00		     2	       cmp bp,0
 82B4  7D 09		     2	       jge ??0419
 82B6  03 EE		     2	       add bp,si
 82B8  03 EE		     2	       add bp,si
 82BA  83 C5 01		     2	       add bp,1
 82BD  EB 0C		     2	       jmp ??041A
 82BF			     2	??0419: 
 82BF  4F		     2		   dec di
 82C0  03 EE		     2	       add bp,si
 82C2  03 EE		     2	       add bp,si
 82C4  2B EF		     2	       sub bp,di
 82C6  2B EF		     2	       sub bp,di
 82C8  83 C5 01		     2	       add bp,1
 82CB			     2	??041A: 
 82CB  B7 00		     2		   mov bh,0
 82CD  8B 0E 0024 R	     2	       mov cx,pos_cenx
 82D1  8B 16 0026 R	     2	       mov dx,pos_ceny
 82D5  03 CE		     2	       add cx,si
 82D7  03 D7		     2	       add dx,di
 82D9  CD 10		     2	       int 10h
 82DB  8B 0E 0024 R	     2	       mov cx,pos_cenx
 82DF  8B 16 0026 R	     2	       mov dx,pos_ceny
 82E3  2B CE		     2	       sub cx,si
 82E5  03 D7		     2	       add dx,di
 82E7  CD 10		     2	       int 10h
 82E9  8B 0E 0024 R	     2	       mov cx,pos_cenx
 82ED  8B 16 0026 R	     2	       mov dx,pos_ceny
 82F1  03 CE		     2	       add cx,si
 82F3  2B D7		     2	       sub dx,di
 82F5  CD 10		     2	       int 10h
 82F7  8B 0E 0024 R	     2	       mov cx,pos_cenx
 82FB  8B 16 0026 R	     2	       mov dx,pos_ceny
 82FF  2B CE		     2	       sub cx,si
 8301  2B D7		     2	       sub dx,di
 8303  CD 10		     2	       int 10h
 8305  8B 0E 0024 R	     2	       mov cx,pos_cenx
 8309  8B 16 0026 R	     2	       mov dx,pos_ceny
 830D  03 CF		     2	       add cx,di
 830F  03 D6		     2	       add dx,si
 8311  CD 10		     2	       int 10h
 8313  8B 0E 0024 R	     2	       mov cx,pos_cenx
 8317  8B 16 0026 R	     2	       mov dx,pos_ceny
 831B  2B CF		     2	       sub cx,di
 831D  03 D6		     2	       add dx,si
 831F  CD 10		     2	       int 10h
 8321  8B 0E 0024 R	     2	       mov cx,pos_cenx
 8325  8B 16 0026 R	     2	       mov dx,pos_ceny
 8329  03 CF		     2	       add cx,di
 832B  2B D6		     2	       sub dx,si
 832D  CD 10		     2	       int 10h
 832F  8B 0E 0024 R	     2	       mov cx,pos_cenx
 8333  8B 16 0026 R	     2	       mov dx,pos_ceny
 8337  2B CF		     2	       sub cx,di
 8339  2B D6		     2	       sub dx,si
 833B  CD 10		     2	       int 10h
 833D			     2	??041B: 
 833D  8D 1E 82A6 R	     2		   lea bx,??0416
 8341  FF E3		     2	       jmp bx
 8343			     2	??041C:
 8343  B4 0C		     2	       mov ah,0ch
 8345  A0 0131 R	     2	       mov al,colo
 8348  B7 00		     2	       mov bh,0
 834A  8B 0E 001D R	     2	       mov cx,pos_cenx-07
 834E  8B 16 0026 R	     2	       mov dx,pos_ceny
 8352  CD 10		     2	       int 10h
 8354  8B 0E 002B R	     2	       mov cx,pos_cenx+07
 8358  8B 16 0026 R	     2	       mov dx,pos_ceny
 835C  CD 10		     2	       int 10h
 835E  8B 0E 0024 R	     2	       mov cx,pos_cenx
 8362  8B 16 001F R	     2	       mov dx,pos_ceny-07
 8366  CD 10		     2	       int 10h
 8368  8B 0E 0024 R	     2	       mov cx,pos_cenx
 836C  8B 16 002D R	     2	       mov dx,pos_ceny+07
 8370  CD 10		     2	       int 10h
 8372  5D		     2	       pop bp
 8373  5F		     2	       pop di
 8374  5E		     2	       pop si
 8375  5A		     2	       pop dx
 8376  59		     2	       pop cx
 8377  5B		     2	       pop bx
 8378  58		     2	       pop ax
 8379  50		     2	       push ax
 837A  53		     2	       push bx
 837B  51		     2	       push cx
 837C  52		     2	       push dx
 837D  56		     2	       push si
 837E  57		     2	       push di
 837F  55		     2	       push bp
 8380  B4 0C		     2	       mov ah,0ch
 8382  A0 0131 R	     2	       mov al,colo
 8385  B7 00		     2	       mov bh,0
 8387  8B 0E 0024 R	     2	       mov cx,pos_cenx
 838B  8B 16 0026 R	     2	       mov dx,pos_ceny
 838F  BE 0000		     2	       mov si,0         ;X
 8392  BF 0006		     2	       mov di,06    ;Y
 8395  BD FFFB		     2	       mov bp,1-06
 8398			     2	??041D: 
 8398  3B F7		     2		   cmp si,di
 839A  7C 06		     2	       jl ??041E
 839C  8D 1E 8435 R	     2	       lea bx,??0423
 83A0  FF E3		     2	       jmp bx
 83A2			     2	??041E:
 83A2  46		     2		   inc si
 83A3			     2	??041F: 
 83A3  83 FD 00		     2	       cmp bp,0
 83A6  7D 09		     2	       jge ??0420
 83A8  03 EE		     2	       add bp,si
 83AA  03 EE		     2	       add bp,si
 83AC  83 C5 01		     2	       add bp,1
 83AF  EB 0C		     2	       jmp ??0421
 83B1			     2	??0420: 
 83B1  4F		     2		   dec di
 83B2  03 EE		     2	       add bp,si
 83B4  03 EE		     2	       add bp,si
 83B6  2B EF		     2	       sub bp,di
 83B8  2B EF		     2	       sub bp,di
 83BA  83 C5 01		     2	       add bp,1
 83BD			     2	??0421: 
 83BD  B7 00		     2		   mov bh,0
 83BF  8B 0E 0024 R	     2	       mov cx,pos_cenx
 83C3  8B 16 0026 R	     2	       mov dx,pos_ceny
 83C7  03 CE		     2	       add cx,si
 83C9  03 D7		     2	       add dx,di
 83CB  CD 10		     2	       int 10h
 83CD  8B 0E 0024 R	     2	       mov cx,pos_cenx
 83D1  8B 16 0026 R	     2	       mov dx,pos_ceny
 83D5  2B CE		     2	       sub cx,si
 83D7  03 D7		     2	       add dx,di
 83D9  CD 10		     2	       int 10h
 83DB  8B 0E 0024 R	     2	       mov cx,pos_cenx
 83DF  8B 16 0026 R	     2	       mov dx,pos_ceny
 83E3  03 CE		     2	       add cx,si
 83E5  2B D7		     2	       sub dx,di
 83E7  CD 10		     2	       int 10h
 83E9  8B 0E 0024 R	     2	       mov cx,pos_cenx
 83ED  8B 16 0026 R	     2	       mov dx,pos_ceny
 83F1  2B CE		     2	       sub cx,si
 83F3  2B D7		     2	       sub dx,di
 83F5  CD 10		     2	       int 10h
 83F7  8B 0E 0024 R	     2	       mov cx,pos_cenx
 83FB  8B 16 0026 R	     2	       mov dx,pos_ceny
 83FF  03 CF		     2	       add cx,di
 8401  03 D6		     2	       add dx,si
 8403  CD 10		     2	       int 10h
 8405  8B 0E 0024 R	     2	       mov cx,pos_cenx
 8409  8B 16 0026 R	     2	       mov dx,pos_ceny
 840D  2B CF		     2	       sub cx,di
 840F  03 D6		     2	       add dx,si
 8411  CD 10		     2	       int 10h
 8413  8B 0E 0024 R	     2	       mov cx,pos_cenx
 8417  8B 16 0026 R	     2	       mov dx,pos_ceny
 841B  03 CF		     2	       add cx,di
 841D  2B D6		     2	       sub dx,si
 841F  CD 10		     2	       int 10h
 8421  8B 0E 0024 R	     2	       mov cx,pos_cenx
 8425  8B 16 0026 R	     2	       mov dx,pos_ceny
 8429  2B CF		     2	       sub cx,di
 842B  2B D6		     2	       sub dx,si
 842D  CD 10		     2	       int 10h
 842F			     2	??0422: 
 842F  8D 1E 8398 R	     2		   lea bx,??041D
 8433  FF E3		     2	       jmp bx
 8435			     2	??0423:
 8435  B4 0C		     2	       mov ah,0ch
 8437  A0 0131 R	     2	       mov al,colo
 843A  B7 00		     2	       mov bh,0
 843C  8B 0E 001E R	     2	       mov cx,pos_cenx-06
 8440  8B 16 0026 R	     2	       mov dx,pos_ceny
 8444  CD 10		     2	       int 10h
 8446  8B 0E 002A R	     2	       mov cx,pos_cenx+06
 844A  8B 16 0026 R	     2	       mov dx,pos_ceny
 844E  CD 10		     2	       int 10h
 8450  8B 0E 0024 R	     2	       mov cx,pos_cenx
 8454  8B 16 0020 R	     2	       mov dx,pos_ceny-06
 8458  CD 10		     2	       int 10h
 845A  8B 0E 0024 R	     2	       mov cx,pos_cenx
 845E  8B 16 002C R	     2	       mov dx,pos_ceny+06
 8462  CD 10		     2	       int 10h
 8464  5D		     2	       pop bp
 8465  5F		     2	       pop di
 8466  5E		     2	       pop si
 8467  5A		     2	       pop dx
 8468  59		     2	       pop cx
 8469  5B		     2	       pop bx
 846A  58		     2	       pop ax
 846B  50		     2	       push ax
 846C  53		     2	       push bx
 846D  51		     2	       push cx
 846E  52		     2	       push dx
 846F  56		     2	       push si
 8470  57		     2	       push di
 8471  55		     2	       push bp
 8472  B4 0C		     2	       mov ah,0ch
 8474  A0 0131 R	     2	       mov al,colo
 8477  B7 00		     2	       mov bh,0
 8479  8B 0E 0024 R	     2	       mov cx,pos_cenx
 847D  8B 16 0026 R	     2	       mov dx,pos_ceny
 8481  BE 0000		     2	       mov si,0         ;X
 8484  BF 0005		     2	       mov di,05    ;Y
 8487  BD FFFC		     2	       mov bp,1-05
 848A			     2	??0424: 
 848A  3B F7		     2		   cmp si,di
 848C  7C 06		     2	       jl ??0425
 848E  8D 1E 8527 R	     2	       lea bx,??042A
 8492  FF E3		     2	       jmp bx
 8494			     2	??0425:
 8494  46		     2		   inc si
 8495			     2	??0426: 
 8495  83 FD 00		     2	       cmp bp,0
 8498  7D 09		     2	       jge ??0427
 849A  03 EE		     2	       add bp,si
 849C  03 EE		     2	       add bp,si
 849E  83 C5 01		     2	       add bp,1
 84A1  EB 0C		     2	       jmp ??0428
 84A3			     2	??0427: 
 84A3  4F		     2		   dec di
 84A4  03 EE		     2	       add bp,si
 84A6  03 EE		     2	       add bp,si
 84A8  2B EF		     2	       sub bp,di
 84AA  2B EF		     2	       sub bp,di
 84AC  83 C5 01		     2	       add bp,1
 84AF			     2	??0428: 
 84AF  B7 00		     2		   mov bh,0
 84B1  8B 0E 0024 R	     2	       mov cx,pos_cenx
 84B5  8B 16 0026 R	     2	       mov dx,pos_ceny
 84B9  03 CE		     2	       add cx,si
 84BB  03 D7		     2	       add dx,di
 84BD  CD 10		     2	       int 10h
 84BF  8B 0E 0024 R	     2	       mov cx,pos_cenx
 84C3  8B 16 0026 R	     2	       mov dx,pos_ceny
 84C7  2B CE		     2	       sub cx,si
 84C9  03 D7		     2	       add dx,di
 84CB  CD 10		     2	       int 10h
 84CD  8B 0E 0024 R	     2	       mov cx,pos_cenx
 84D1  8B 16 0026 R	     2	       mov dx,pos_ceny
 84D5  03 CE		     2	       add cx,si
 84D7  2B D7		     2	       sub dx,di
 84D9  CD 10		     2	       int 10h
 84DB  8B 0E 0024 R	     2	       mov cx,pos_cenx
 84DF  8B 16 0026 R	     2	       mov dx,pos_ceny
 84E3  2B CE		     2	       sub cx,si
 84E5  2B D7		     2	       sub dx,di
 84E7  CD 10		     2	       int 10h
 84E9  8B 0E 0024 R	     2	       mov cx,pos_cenx
 84ED  8B 16 0026 R	     2	       mov dx,pos_ceny
 84F1  03 CF		     2	       add cx,di
 84F3  03 D6		     2	       add dx,si
 84F5  CD 10		     2	       int 10h
 84F7  8B 0E 0024 R	     2	       mov cx,pos_cenx
 84FB  8B 16 0026 R	     2	       mov dx,pos_ceny
 84FF  2B CF		     2	       sub cx,di
 8501  03 D6		     2	       add dx,si
 8503  CD 10		     2	       int 10h
 8505  8B 0E 0024 R	     2	       mov cx,pos_cenx
 8509  8B 16 0026 R	     2	       mov dx,pos_ceny
 850D  03 CF		     2	       add cx,di
 850F  2B D6		     2	       sub dx,si
 8511  CD 10		     2	       int 10h
 8513  8B 0E 0024 R	     2	       mov cx,pos_cenx
 8517  8B 16 0026 R	     2	       mov dx,pos_ceny
 851B  2B CF		     2	       sub cx,di
 851D  2B D6		     2	       sub dx,si
 851F  CD 10		     2	       int 10h
 8521			     2	??0429: 
 8521  8D 1E 848A R	     2		   lea bx,??0424
 8525  FF E3		     2	       jmp bx
 8527			     2	??042A:
 8527  B4 0C		     2	       mov ah,0ch
 8529  A0 0131 R	     2	       mov al,colo
 852C  B7 00		     2	       mov bh,0
 852E  8B 0E 001F R	     2	       mov cx,pos_cenx-05
 8532  8B 16 0026 R	     2	       mov dx,pos_ceny
 8536  CD 10		     2	       int 10h
 8538  8B 0E 0029 R	     2	       mov cx,pos_cenx+05
 853C  8B 16 0026 R	     2	       mov dx,pos_ceny
 8540  CD 10		     2	       int 10h
 8542  8B 0E 0024 R	     2	       mov cx,pos_cenx
 8546  8B 16 0021 R	     2	       mov dx,pos_ceny-05
 854A  CD 10		     2	       int 10h
 854C  8B 0E 0024 R	     2	       mov cx,pos_cenx
 8550  8B 16 002B R	     2	       mov dx,pos_ceny+05
 8554  CD 10		     2	       int 10h
 8556  5D		     2	       pop bp
 8557  5F		     2	       pop di
 8558  5E		     2	       pop si
 8559  5A		     2	       pop dx
 855A  59		     2	       pop cx
 855B  5B		     2	       pop bx
 855C  58		     2	       pop ax
 855D  50		     2	       push ax
 855E  53		     2	       push bx
 855F  51		     2	       push cx
 8560  52		     2	       push dx
 8561  56		     2	       push si
 8562  57		     2	       push di
 8563  55		     2	       push bp
 8564  B4 0C		     2	       mov ah,0ch
 8566  A0 0131 R	     2	       mov al,colo
 8569  B7 00		     2	       mov bh,0
 856B  8B 0E 0024 R	     2	       mov cx,pos_cenx
 856F  8B 16 0026 R	     2	       mov dx,pos_ceny
 8573  BE 0000		     2	       mov si,0         ;X
 8576  BF 0004		     2	       mov di,04    ;Y
 8579  BD FFFD		     2	       mov bp,1-04
 857C			     2	??042B: 
 857C  3B F7		     2		   cmp si,di
 857E  7C 06		     2	       jl ??042C
 8580  8D 1E 8619 R	     2	       lea bx,??0431
 8584  FF E3		     2	       jmp bx
 8586			     2	??042C:
 8586  46		     2		   inc si
 8587			     2	??042D: 
 8587  83 FD 00		     2	       cmp bp,0
 858A  7D 09		     2	       jge ??042E
 858C  03 EE		     2	       add bp,si
 858E  03 EE		     2	       add bp,si
 8590  83 C5 01		     2	       add bp,1
 8593  EB 0C		     2	       jmp ??042F
 8595			     2	??042E: 
 8595  4F		     2		   dec di
 8596  03 EE		     2	       add bp,si
 8598  03 EE		     2	       add bp,si
 859A  2B EF		     2	       sub bp,di
 859C  2B EF		     2	       sub bp,di
 859E  83 C5 01		     2	       add bp,1
 85A1			     2	??042F: 
 85A1  B7 00		     2		   mov bh,0
 85A3  8B 0E 0024 R	     2	       mov cx,pos_cenx
 85A7  8B 16 0026 R	     2	       mov dx,pos_ceny
 85AB  03 CE		     2	       add cx,si
 85AD  03 D7		     2	       add dx,di
 85AF  CD 10		     2	       int 10h
 85B1  8B 0E 0024 R	     2	       mov cx,pos_cenx
 85B5  8B 16 0026 R	     2	       mov dx,pos_ceny
 85B9  2B CE		     2	       sub cx,si
 85BB  03 D7		     2	       add dx,di
 85BD  CD 10		     2	       int 10h
 85BF  8B 0E 0024 R	     2	       mov cx,pos_cenx
 85C3  8B 16 0026 R	     2	       mov dx,pos_ceny
 85C7  03 CE		     2	       add cx,si
 85C9  2B D7		     2	       sub dx,di
 85CB  CD 10		     2	       int 10h
 85CD  8B 0E 0024 R	     2	       mov cx,pos_cenx
 85D1  8B 16 0026 R	     2	       mov dx,pos_ceny
 85D5  2B CE		     2	       sub cx,si
 85D7  2B D7		     2	       sub dx,di
 85D9  CD 10		     2	       int 10h
 85DB  8B 0E 0024 R	     2	       mov cx,pos_cenx
 85DF  8B 16 0026 R	     2	       mov dx,pos_ceny
 85E3  03 CF		     2	       add cx,di
 85E5  03 D6		     2	       add dx,si
 85E7  CD 10		     2	       int 10h
 85E9  8B 0E 0024 R	     2	       mov cx,pos_cenx
 85ED  8B 16 0026 R	     2	       mov dx,pos_ceny
 85F1  2B CF		     2	       sub cx,di
 85F3  03 D6		     2	       add dx,si
 85F5  CD 10		     2	       int 10h
 85F7  8B 0E 0024 R	     2	       mov cx,pos_cenx
 85FB  8B 16 0026 R	     2	       mov dx,pos_ceny
 85FF  03 CF		     2	       add cx,di
 8601  2B D6		     2	       sub dx,si
 8603  CD 10		     2	       int 10h
 8605  8B 0E 0024 R	     2	       mov cx,pos_cenx
 8609  8B 16 0026 R	     2	       mov dx,pos_ceny
 860D  2B CF		     2	       sub cx,di
 860F  2B D6		     2	       sub dx,si
 8611  CD 10		     2	       int 10h
 8613			     2	??0430: 
 8613  8D 1E 857C R	     2		   lea bx,??042B
 8617  FF E3		     2	       jmp bx
 8619			     2	??0431:
 8619  B4 0C		     2	       mov ah,0ch
 861B  A0 0131 R	     2	       mov al,colo
 861E  B7 00		     2	       mov bh,0
 8620  8B 0E 0020 R	     2	       mov cx,pos_cenx-04
 8624  8B 16 0026 R	     2	       mov dx,pos_ceny
 8628  CD 10		     2	       int 10h
 862A  8B 0E 0028 R	     2	       mov cx,pos_cenx+04
 862E  8B 16 0026 R	     2	       mov dx,pos_ceny
 8632  CD 10		     2	       int 10h
 8634  8B 0E 0024 R	     2	       mov cx,pos_cenx
 8638  8B 16 0022 R	     2	       mov dx,pos_ceny-04
 863C  CD 10		     2	       int 10h
 863E  8B 0E 0024 R	     2	       mov cx,pos_cenx
 8642  8B 16 002A R	     2	       mov dx,pos_ceny+04
 8646  CD 10		     2	       int 10h
 8648  5D		     2	       pop bp
 8649  5F		     2	       pop di
 864A  5E		     2	       pop si
 864B  5A		     2	       pop dx
 864C  59		     2	       pop cx
 864D  5B		     2	       pop bx
 864E  58		     2	       pop ax
 864F  50		     2	       push ax
 8650  53		     2	       push bx
 8651  51		     2	       push cx
 8652  52		     2	       push dx
 8653  56		     2	       push si
 8654  57		     2	       push di
 8655  55		     2	       push bp
 8656  B4 0C		     2	       mov ah,0ch
 8658  A0 0131 R	     2	       mov al,colo
 865B  B7 00		     2	       mov bh,0
 865D  8B 0E 0024 R	     2	       mov cx,pos_cenx
 8661  8B 16 0026 R	     2	       mov dx,pos_ceny
 8665  BE 0000		     2	       mov si,0         ;X
 8668  BF 0003		     2	       mov di,03    ;Y
 866B  BD FFFE		     2	       mov bp,1-03
 866E			     2	??0432: 
 866E  3B F7		     2		   cmp si,di
 8670  7C 06		     2	       jl ??0433
 8672  8D 1E 870B R	     2	       lea bx,??0438
 8676  FF E3		     2	       jmp bx
 8678			     2	??0433:
 8678  46		     2		   inc si
 8679			     2	??0434: 
 8679  83 FD 00		     2	       cmp bp,0
 867C  7D 09		     2	       jge ??0435
 867E  03 EE		     2	       add bp,si
 8680  03 EE		     2	       add bp,si
 8682  83 C5 01		     2	       add bp,1
 8685  EB 0C		     2	       jmp ??0436
 8687			     2	??0435: 
 8687  4F		     2		   dec di
 8688  03 EE		     2	       add bp,si
 868A  03 EE		     2	       add bp,si
 868C  2B EF		     2	       sub bp,di
 868E  2B EF		     2	       sub bp,di
 8690  83 C5 01		     2	       add bp,1
 8693			     2	??0436: 
 8693  B7 00		     2		   mov bh,0
 8695  8B 0E 0024 R	     2	       mov cx,pos_cenx
 8699  8B 16 0026 R	     2	       mov dx,pos_ceny
 869D  03 CE		     2	       add cx,si
 869F  03 D7		     2	       add dx,di
 86A1  CD 10		     2	       int 10h
 86A3  8B 0E 0024 R	     2	       mov cx,pos_cenx
 86A7  8B 16 0026 R	     2	       mov dx,pos_ceny
 86AB  2B CE		     2	       sub cx,si
 86AD  03 D7		     2	       add dx,di
 86AF  CD 10		     2	       int 10h
 86B1  8B 0E 0024 R	     2	       mov cx,pos_cenx
 86B5  8B 16 0026 R	     2	       mov dx,pos_ceny
 86B9  03 CE		     2	       add cx,si
 86BB  2B D7		     2	       sub dx,di
 86BD  CD 10		     2	       int 10h
 86BF  8B 0E 0024 R	     2	       mov cx,pos_cenx
 86C3  8B 16 0026 R	     2	       mov dx,pos_ceny
 86C7  2B CE		     2	       sub cx,si
 86C9  2B D7		     2	       sub dx,di
 86CB  CD 10		     2	       int 10h
 86CD  8B 0E 0024 R	     2	       mov cx,pos_cenx
 86D1  8B 16 0026 R	     2	       mov dx,pos_ceny
 86D5  03 CF		     2	       add cx,di
 86D7  03 D6		     2	       add dx,si
 86D9  CD 10		     2	       int 10h
 86DB  8B 0E 0024 R	     2	       mov cx,pos_cenx
 86DF  8B 16 0026 R	     2	       mov dx,pos_ceny
 86E3  2B CF		     2	       sub cx,di
 86E5  03 D6		     2	       add dx,si
 86E7  CD 10		     2	       int 10h
 86E9  8B 0E 0024 R	     2	       mov cx,pos_cenx
 86ED  8B 16 0026 R	     2	       mov dx,pos_ceny
 86F1  03 CF		     2	       add cx,di
 86F3  2B D6		     2	       sub dx,si
 86F5  CD 10		     2	       int 10h
 86F7  8B 0E 0024 R	     2	       mov cx,pos_cenx
 86FB  8B 16 0026 R	     2	       mov dx,pos_ceny
 86FF  2B CF		     2	       sub cx,di
 8701  2B D6		     2	       sub dx,si
 8703  CD 10		     2	       int 10h
 8705			     2	??0437: 
 8705  8D 1E 866E R	     2		   lea bx,??0432
 8709  FF E3		     2	       jmp bx
 870B			     2	??0438:
 870B  B4 0C		     2	       mov ah,0ch
 870D  A0 0131 R	     2	       mov al,colo
 8710  B7 00		     2	       mov bh,0
 8712  8B 0E 0021 R	     2	       mov cx,pos_cenx-03
 8716  8B 16 0026 R	     2	       mov dx,pos_ceny
 871A  CD 10		     2	       int 10h
 871C  8B 0E 0027 R	     2	       mov cx,pos_cenx+03
 8720  8B 16 0026 R	     2	       mov dx,pos_ceny
 8724  CD 10		     2	       int 10h
 8726  8B 0E 0024 R	     2	       mov cx,pos_cenx
 872A  8B 16 0023 R	     2	       mov dx,pos_ceny-03
 872E  CD 10		     2	       int 10h
 8730  8B 0E 0024 R	     2	       mov cx,pos_cenx
 8734  8B 16 0029 R	     2	       mov dx,pos_ceny+03
 8738  CD 10		     2	       int 10h
 873A  5D		     2	       pop bp
 873B  5F		     2	       pop di
 873C  5E		     2	       pop si
 873D  5A		     2	       pop dx
 873E  59		     2	       pop cx
 873F  5B		     2	       pop bx
 8740  58		     2	       pop ax
 8741  50		     2	       push ax
 8742  53		     2	       push bx
 8743  51		     2	       push cx
 8744  52		     2	       push dx
 8745  56		     2	       push si
 8746  57		     2	       push di
 8747  55		     2	       push bp
 8748  B4 0C		     2	       mov ah,0ch
 874A  A0 0131 R	     2	       mov al,colo
 874D  B7 00		     2	       mov bh,0
 874F  8B 0E 0024 R	     2	       mov cx,pos_cenx
 8753  8B 16 0026 R	     2	       mov dx,pos_ceny
 8757  BE 0000		     2	       mov si,0         ;X
 875A  BF 0002		     2	       mov di,02    ;Y
 875D  BD FFFF		     2	       mov bp,1-02
 8760			     2	??0439: 
 8760  3B F7		     2		   cmp si,di
 8762  7C 06		     2	       jl ??043A
 8764  8D 1E 87FD R	     2	       lea bx,??043F
 8768  FF E3		     2	       jmp bx
 876A			     2	??043A:
 876A  46		     2		   inc si
 876B			     2	??043B: 
 876B  83 FD 00		     2	       cmp bp,0
 876E  7D 09		     2	       jge ??043C
 8770  03 EE		     2	       add bp,si
 8772  03 EE		     2	       add bp,si
 8774  83 C5 01		     2	       add bp,1
 8777  EB 0C		     2	       jmp ??043D
 8779			     2	??043C: 
 8779  4F		     2		   dec di
 877A  03 EE		     2	       add bp,si
 877C  03 EE		     2	       add bp,si
 877E  2B EF		     2	       sub bp,di
 8780  2B EF		     2	       sub bp,di
 8782  83 C5 01		     2	       add bp,1
 8785			     2	??043D: 
 8785  B7 00		     2		   mov bh,0
 8787  8B 0E 0024 R	     2	       mov cx,pos_cenx
 878B  8B 16 0026 R	     2	       mov dx,pos_ceny
 878F  03 CE		     2	       add cx,si
 8791  03 D7		     2	       add dx,di
 8793  CD 10		     2	       int 10h
 8795  8B 0E 0024 R	     2	       mov cx,pos_cenx
 8799  8B 16 0026 R	     2	       mov dx,pos_ceny
 879D  2B CE		     2	       sub cx,si
 879F  03 D7		     2	       add dx,di
 87A1  CD 10		     2	       int 10h
 87A3  8B 0E 0024 R	     2	       mov cx,pos_cenx
 87A7  8B 16 0026 R	     2	       mov dx,pos_ceny
 87AB  03 CE		     2	       add cx,si
 87AD  2B D7		     2	       sub dx,di
 87AF  CD 10		     2	       int 10h
 87B1  8B 0E 0024 R	     2	       mov cx,pos_cenx
 87B5  8B 16 0026 R	     2	       mov dx,pos_ceny
 87B9  2B CE		     2	       sub cx,si
 87BB  2B D7		     2	       sub dx,di
 87BD  CD 10		     2	       int 10h
 87BF  8B 0E 0024 R	     2	       mov cx,pos_cenx
 87C3  8B 16 0026 R	     2	       mov dx,pos_ceny
 87C7  03 CF		     2	       add cx,di
 87C9  03 D6		     2	       add dx,si
 87CB  CD 10		     2	       int 10h
 87CD  8B 0E 0024 R	     2	       mov cx,pos_cenx
 87D1  8B 16 0026 R	     2	       mov dx,pos_ceny
 87D5  2B CF		     2	       sub cx,di
 87D7  03 D6		     2	       add dx,si
 87D9  CD 10		     2	       int 10h
 87DB  8B 0E 0024 R	     2	       mov cx,pos_cenx
 87DF  8B 16 0026 R	     2	       mov dx,pos_ceny
 87E3  03 CF		     2	       add cx,di
 87E5  2B D6		     2	       sub dx,si
 87E7  CD 10		     2	       int 10h
 87E9  8B 0E 0024 R	     2	       mov cx,pos_cenx
 87ED  8B 16 0026 R	     2	       mov dx,pos_ceny
 87F1  2B CF		     2	       sub cx,di
 87F3  2B D6		     2	       sub dx,si
 87F5  CD 10		     2	       int 10h
 87F7			     2	??043E: 
 87F7  8D 1E 8760 R	     2		   lea bx,??0439
 87FB  FF E3		     2	       jmp bx
 87FD			     2	??043F:
 87FD  B4 0C		     2	       mov ah,0ch
 87FF  A0 0131 R	     2	       mov al,colo
 8802  B7 00		     2	       mov bh,0
 8804  8B 0E 0022 R	     2	       mov cx,pos_cenx-02
 8808  8B 16 0026 R	     2	       mov dx,pos_ceny
 880C  CD 10		     2	       int 10h
 880E  8B 0E 0026 R	     2	       mov cx,pos_cenx+02
 8812  8B 16 0026 R	     2	       mov dx,pos_ceny
 8816  CD 10		     2	       int 10h
 8818  8B 0E 0024 R	     2	       mov cx,pos_cenx
 881C  8B 16 0024 R	     2	       mov dx,pos_ceny-02
 8820  CD 10		     2	       int 10h
 8822  8B 0E 0024 R	     2	       mov cx,pos_cenx
 8826  8B 16 0028 R	     2	       mov dx,pos_ceny+02
 882A  CD 10		     2	       int 10h
 882C  5D		     2	       pop bp
 882D  5F		     2	       pop di
 882E  5E		     2	       pop si
 882F  5A		     2	       pop dx
 8830  59		     2	       pop cx
 8831  5B		     2	       pop bx
 8832  58		     2	       pop ax
 8833  50		     2	       push ax
 8834  53		     2	       push bx
 8835  51		     2	       push cx
 8836  52		     2	       push dx
 8837  56		     2	       push si
 8838  57		     2	       push di
 8839  55		     2	       push bp
 883A  B4 0C		     2	       mov ah,0ch
 883C  A0 0131 R	     2	       mov al,colo
 883F  B7 00		     2	       mov bh,0
 8841  8B 0E 0024 R	     2	       mov cx,pos_cenx
 8845  8B 16 0026 R	     2	       mov dx,pos_ceny
 8849  BE 0000		     2	       mov si,0         ;X
 884C  BF 0001		     2	       mov di,01    ;Y
 884F  BD 0000		     2	       mov bp,1-01
 8852			     2	??0440: 
 8852  3B F7		     2		   cmp si,di
 8854  7C 06		     2	       jl ??0441
 8856  8D 1E 88EF R	     2	       lea bx,??0446
 885A  FF E3		     2	       jmp bx
 885C			     2	??0441:
 885C  46		     2		   inc si
 885D			     2	??0442: 
 885D  83 FD 00		     2	       cmp bp,0
 8860  7D 09		     2	       jge ??0443
 8862  03 EE		     2	       add bp,si
 8864  03 EE		     2	       add bp,si
 8866  83 C5 01		     2	       add bp,1
 8869  EB 0C		     2	       jmp ??0444
 886B			     2	??0443: 
 886B  4F		     2		   dec di
 886C  03 EE		     2	       add bp,si
 886E  03 EE		     2	       add bp,si
 8870  2B EF		     2	       sub bp,di
 8872  2B EF		     2	       sub bp,di
 8874  83 C5 01		     2	       add bp,1
 8877			     2	??0444: 
 8877  B7 00		     2		   mov bh,0
 8879  8B 0E 0024 R	     2	       mov cx,pos_cenx
 887D  8B 16 0026 R	     2	       mov dx,pos_ceny
 8881  03 CE		     2	       add cx,si
 8883  03 D7		     2	       add dx,di
 8885  CD 10		     2	       int 10h
 8887  8B 0E 0024 R	     2	       mov cx,pos_cenx
 888B  8B 16 0026 R	     2	       mov dx,pos_ceny
 888F  2B CE		     2	       sub cx,si
 8891  03 D7		     2	       add dx,di
 8893  CD 10		     2	       int 10h
 8895  8B 0E 0024 R	     2	       mov cx,pos_cenx
 8899  8B 16 0026 R	     2	       mov dx,pos_ceny
 889D  03 CE		     2	       add cx,si
 889F  2B D7		     2	       sub dx,di
 88A1  CD 10		     2	       int 10h
 88A3  8B 0E 0024 R	     2	       mov cx,pos_cenx
 88A7  8B 16 0026 R	     2	       mov dx,pos_ceny
 88AB  2B CE		     2	       sub cx,si
 88AD  2B D7		     2	       sub dx,di
 88AF  CD 10		     2	       int 10h
 88B1  8B 0E 0024 R	     2	       mov cx,pos_cenx
 88B5  8B 16 0026 R	     2	       mov dx,pos_ceny
 88B9  03 CF		     2	       add cx,di
 88BB  03 D6		     2	       add dx,si
 88BD  CD 10		     2	       int 10h
 88BF  8B 0E 0024 R	     2	       mov cx,pos_cenx
 88C3  8B 16 0026 R	     2	       mov dx,pos_ceny
 88C7  2B CF		     2	       sub cx,di
 88C9  03 D6		     2	       add dx,si
 88CB  CD 10		     2	       int 10h
 88CD  8B 0E 0024 R	     2	       mov cx,pos_cenx
 88D1  8B 16 0026 R	     2	       mov dx,pos_ceny
 88D5  03 CF		     2	       add cx,di
 88D7  2B D6		     2	       sub dx,si
 88D9  CD 10		     2	       int 10h
 88DB  8B 0E 0024 R	     2	       mov cx,pos_cenx
 88DF  8B 16 0026 R	     2	       mov dx,pos_ceny
 88E3  2B CF		     2	       sub cx,di
 88E5  2B D6		     2	       sub dx,si
 88E7  CD 10		     2	       int 10h
 88E9			     2	??0445: 
 88E9  8D 1E 8852 R	     2		   lea bx,??0440
 88ED  FF E3		     2	       jmp bx
 88EF			     2	??0446:
 88EF  B4 0C		     2	       mov ah,0ch
 88F1  A0 0131 R	     2	       mov al,colo
 88F4  B7 00		     2	       mov bh,0
 88F6  8B 0E 0023 R	     2	       mov cx,pos_cenx-01
 88FA  8B 16 0026 R	     2	       mov dx,pos_ceny
 88FE  CD 10		     2	       int 10h
 8900  8B 0E 0025 R	     2	       mov cx,pos_cenx+01
 8904  8B 16 0026 R	     2	       mov dx,pos_ceny
 8908  CD 10		     2	       int 10h
 890A  8B 0E 0024 R	     2	       mov cx,pos_cenx
 890E  8B 16 0025 R	     2	       mov dx,pos_ceny-01
 8912  CD 10		     2	       int 10h
 8914  8B 0E 0024 R	     2	       mov cx,pos_cenx
 8918  8B 16 0027 R	     2	       mov dx,pos_ceny+01
 891C  CD 10		     2	       int 10h
 891E  5D		     2	       pop bp
 891F  5F		     2	       pop di
 8920  5E		     2	       pop si
 8921  5A		     2	       pop dx
 8922  59		     2	       pop cx
 8923  5B		     2	       pop bx
 8924  58		     2	       pop ax
					
					DROP pos_cenx,pos_ceny,state
 8925  50		     1		push ax
 8926  53		     1		push bx
 8927  51		     1		push cx
 8928  52		     1		push dx
 8929  A1 0024 R	     1		mov ax,pos_cenx
 892C  83 E8 2D		     1		sub ax,45
 892F  2B D2		     1		sub dx,dx
 8931  BB 0032		     1		mov bx,50
 8934  F7 F3		     1		div bx
 8936  83 C0 04		     1		add ax,4
 8939  A3 0153 R	     1		mov colx,ax;第几列
 893C  A1 0026 R	     1		mov ax,pos_ceny
 893F  83 E8 2D		     1		sub ax,45
 8942  2B D2		     1		sub dx,dx
 8944  BB 0032		     1		mov bx,50
 8947  F7 F3		     1		div bx
 8949  83 C0 04		     1		add ax,4
 894C  A3 0151 R	     1		mov rowy,ax;第几行
 894F  A1 0151 R	     1		mov ax,rowy
 8952  BB 0011		     1		mov bx,17
 8955  F7 E3		     1		mul bx
 8957  03 06 0153 R	     1		add ax,colx
 895B  A3 0121 R	     1		mov pianyi,ax
 895E  BB 0030 R	     1		mov bx,offset map0
 8961  03 1E 0121 R	     1		add bx,pianyi
 8965  A0 0130 R	     1		mov al,state
 8968  88 07		     1		mov [bx],al
 896A  5A		     1		pop dx
 896B  59		     1		pop cx
 896C  5B		     1		pop bx
 896D  58		     1		pop ax

					;查看游戏是否结束
					JUDGEROW pos_cenx,pos_ceny,state
 896E  50		     1		push ax
 896F  53		     1		push bx
 8970  51		     1		push cx
 8971  52		     1		push dx
 8972  A1 0024 R	     1		mov ax,pos_cenx
 8975  83 E8 2D		     1		sub ax,45
 8978  2B D2		     1		sub dx,dx
 897A  BB 0032		     1		mov bx,50
 897D  F7 F3		     1		div bx
 897F  83 C0 04		     1		add ax,4
 8982  A3 0157 R	     1		mov jcolx,ax;第几列
 8985  A1 0026 R	     1		mov ax,pos_ceny
 8988  83 E8 2D		     1		sub ax,45
 898B  2B D2		     1		sub dx,dx
 898D  BB 0032		     1		mov bx,50
 8990  F7 F3		     1		div bx
 8992  83 C0 04		     1		add ax,4
 8995  A3 0155 R	     1		mov jrowy,ax;第几行
 8998  A1 0155 R	     1		mov ax,jrowy
 899B  BB 0011		     1		mov bx,17
 899E  F7 E3		     1		mul bx
 89A0  03 06 0157 R	     1		add ax,jcolx
 89A4  A3 0121 R	     1		mov pianyi,ax
 89A7  BB 0030 R	     1		mov bx,offset map0
 89AA  A1 0121 R	     1		mov ax,pianyi
 89AD  03 D8		     1		add bx,ax
 89AF  C6 06 0132 R 01	     1		mov qizinum,1
 89B4  8A 16 0132 R	     1		mov dl,qizinum
 89B8  8A 36 0130 R	     1		mov dh,state
 89BC  53		     1		push bx
 89BD  B1 01		     1		mov cl,1
 89BF			     1	??0447:
 89BF  83 C3 01		     1		add bx,1
 89C2  8A 2F		     1		mov ch,[bx]
 89C4  38 F5		     1		cmp ch,dh
 89C6  75 0B		     1		jnz ??0449
 89C8  80 C2 01		     1		add dl,1
 89CB  80 C1 01		     1		add cl,1
 89CE  80 F9 05		     1		cmp cl,5
 89D1  75 EC		     1		jnz ??0447
 89D3			     1	??0449:
 89D3  5B		     1		pop bx
 89D4  B1 01		     1		mov cl,1
 89D6			     1	??0448:
 89D6  83 EB 01		     1		sub bx,1
 89D9  8A 2F		     1		mov ch,[bx]
 89DB  38 F5		     1		cmp ch,dh
 89DD  75 0B		     1		jnz ??044A
 89DF  80 C2 01		     1		add dl,1
 89E2  80 C1 01		     1		add cl,1
 89E5  80 F9 05		     1		cmp cl,5
 89E8  75 EC		     1		jnz ??0448
 89EA			     1	??044A:
 89EA  88 16 0140 R	     1		mov lianzigeshu,dl
 89EE  80 FA 05		     1		cmp dl,5
 89F1  73 02		     1		jae ??044B
 89F3  EB 07		     1		jmp ??044C
 89F5			     1	??044B:
 89F5  C6 06 0123 R 01	     1		mov judg,1
 89FA  EB 05		     1		jmp ??044D
 89FC			     1	??044C:
 89FC  C6 06 0123 R 00	     1		mov judg,0
 8A01			     1	??044D:
 8A01  5A		     1		pop dx
 8A02  59		     1		pop cx
 8A03  5B		     1		pop bx
 8A04  58		     1		pop ax
 8A05  80 3E 0123 R 01			cmp judg,1
 8A0A  75 03 E9 1711			jz exitgame
					JUDGECOL pos_cenx,pos_ceny,state
 8A0F  50		     1		push ax
 8A10  53		     1		push bx
 8A11  51		     1		push cx
 8A12  52		     1		push dx
 8A13  A1 0024 R	     1		mov ax,pos_cenx
 8A16  83 E8 2D		     1		sub ax,45
 8A19  2B D2		     1		sub dx,dx
 8A1B  BB 0032		     1		mov bx,50
 8A1E  F7 F3		     1		div bx
 8A20  83 C0 04		     1		add ax,4
 8A23  A3 0157 R	     1		mov jcolx,ax;第几列
 8A26  A1 0026 R	     1		mov ax,pos_ceny
 8A29  83 E8 2D		     1		sub ax,45
 8A2C  2B D2		     1		sub dx,dx
 8A2E  BB 0032		     1		mov bx,50
 8A31  F7 F3		     1		div bx
 8A33  83 C0 04		     1		add ax,4
 8A36  A3 0155 R	     1		mov jrowy,ax;第几行
 8A39  A1 0155 R	     1		mov ax,jrowy
 8A3C  BB 0011		     1		mov bx,17
 8A3F  F7 E3		     1		mul bx
 8A41  03 06 0157 R	     1		add ax,jcolx
 8A45  A3 0121 R	     1		mov pianyi,ax
 8A48  BB 0030 R	     1		mov bx,offset map0
 8A4B  A1 0121 R	     1		mov ax,pianyi
 8A4E  03 D8		     1		add bx,ax
 8A50  C6 06 0132 R 01	     1		mov qizinum,1
 8A55  8A 16 0132 R	     1		mov dl,qizinum
 8A59  8A 36 0130 R	     1		mov dh,state
 8A5D  53		     1		push bx
 8A5E  B1 01		     1		mov cl,1
 8A60			     1	??044E:
 8A60  83 C3 11		     1		add bx,17
 8A63  8A 2F		     1		mov ch,[bx]
 8A65  38 F5		     1		cmp ch,dh
 8A67  75 0B		     1		jnz ??0450
 8A69  80 C2 01		     1		add dl,1
 8A6C  80 C1 01		     1		add cl,1
 8A6F  80 F9 05		     1		cmp cl,5
 8A72  75 EC		     1		jnz ??044E
 8A74			     1	??0450:
 8A74  5B		     1		pop bx
 8A75  B1 01		     1		mov cl,1
 8A77			     1	??044F:
 8A77  83 EB 11		     1		sub bx,17
 8A7A  8A 2F		     1		mov ch,[bx]
 8A7C  38 F5		     1		cmp ch,dh
 8A7E  75 0B		     1		jnz ??0451
 8A80  80 C2 01		     1		add dl,1
 8A83  80 C1 01		     1		add cl,1
 8A86  80 F9 05		     1		cmp cl,5
 8A89  75 EC		     1		jnz ??044F
 8A8B			     1	??0451:
 8A8B  88 16 0140 R	     1		mov lianzigeshu,dl
 8A8F  80 FA 05		     1		cmp dl,5
 8A92  73 02		     1		jae ??0452
 8A94  EB 07		     1		jmp ??0453
 8A96			     1	??0452:
 8A96  C6 06 0123 R 01	     1		mov judg,1
 8A9B  EB 05		     1		jmp ??0454
 8A9D			     1	??0453:
 8A9D  C6 06 0123 R 00	     1		mov judg,0
 8AA2			     1	??0454:
 8AA2  5A		     1		pop dx
 8AA3  59		     1		pop cx
 8AA4  5B		     1		pop bx
 8AA5  58		     1		pop ax
 8AA6  80 3E 0123 R 01			cmp judg,1
 8AAB  75 03 E9 1670			jz exitgame
					JUDGELUTORD pos_cenx,pos_ceny,state
 8AB0  50		     1		push ax
 8AB1  53		     1		push bx
 8AB2  51		     1		push cx
 8AB3  52		     1		push dx
 8AB4  A1 0024 R	     1		mov ax,pos_cenx
 8AB7  83 E8 2D		     1		sub ax,45
 8ABA  2B D2		     1		sub dx,dx
 8ABC  BB 0032		     1		mov bx,50
 8ABF  F7 F3		     1		div bx
 8AC1  83 C0 04		     1		add ax,4
 8AC4  A3 0157 R	     1		mov jcolx,ax;第几列
 8AC7  A1 0026 R	     1		mov ax,pos_ceny
 8ACA  83 E8 2D		     1		sub ax,45
 8ACD  2B D2		     1		sub dx,dx
 8ACF  BB 0032		     1		mov bx,50
 8AD2  F7 F3		     1		div bx
 8AD4  83 C0 04		     1		add ax,4
 8AD7  A3 0155 R	     1		mov jrowy,ax;第几行
 8ADA  A1 0155 R	     1		mov ax,jrowy
 8ADD  BB 0011		     1		mov bx,17
 8AE0  F7 E3		     1		mul bx
 8AE2  03 06 0157 R	     1		add ax,jcolx
 8AE6  A3 0121 R	     1		mov pianyi,ax
 8AE9  BB 0030 R	     1		mov bx,offset map0
 8AEC  A1 0121 R	     1		mov ax,pianyi
 8AEF  03 D8		     1		add bx,ax
 8AF1  C6 06 0132 R 01	     1		mov qizinum,1
 8AF6  8A 16 0132 R	     1		mov dl,qizinum
 8AFA  8A 36 0130 R	     1		mov dh,state
 8AFE  53		     1		push bx
 8AFF  B1 01		     1		mov cl,1
 8B01			     1	??0455:
 8B01  83 C3 12		     1		add bx,18
 8B04  8A 2F		     1		mov ch,[bx]
 8B06  38 F5		     1		cmp ch,dh
 8B08  75 0B		     1		jnz ??0457
 8B0A  80 C2 01		     1		add dl,1
 8B0D  80 C1 01		     1		add cl,1
 8B10  80 F9 05		     1		cmp cl,5
 8B13  75 EC		     1		jnz ??0455
 8B15			     1	??0457:
 8B15  5B		     1		pop bx
 8B16  B1 01		     1		mov cl,1
 8B18			     1	??0456:
 8B18  83 EB 12		     1		sub bx,18
 8B1B  8A 2F		     1		mov ch,[bx]
 8B1D  38 F5		     1		cmp ch,dh
 8B1F  75 0B		     1		jnz ??0458
 8B21  80 C2 01		     1		add dl,1
 8B24  80 C1 01		     1		add cl,1
 8B27  80 F9 05		     1		cmp cl,5
 8B2A  75 EC		     1		jnz ??0456
 8B2C			     1	??0458:
 8B2C  88 16 0140 R	     1		mov lianzigeshu,dl
 8B30  80 FA 05		     1		cmp dl,5
 8B33  73 02		     1		jae ??0459
 8B35  EB 07		     1		jmp ??045A
 8B37			     1	??0459:
 8B37  C6 06 0123 R 01	     1		mov judg,1
 8B3C  EB 05		     1		jmp ??045B
 8B3E			     1	??045A:
 8B3E  C6 06 0123 R 00	     1		mov judg,0
 8B43			     1	??045B:
 8B43  5A		     1		pop dx
 8B44  59		     1		pop cx
 8B45  5B		     1		pop bx
 8B46  58		     1		pop ax
 8B47  80 3E 0123 R 01			cmp judg,1
 8B4C  75 03 E9 15CF			jz exitgame
					JUDGERUTOLD pos_cenx,pos_ceny,state
 8B51  50		     1		push ax
 8B52  53		     1		push bx
 8B53  51		     1		push cx
 8B54  52		     1		push dx
 8B55  A1 0024 R	     1		mov ax,pos_cenx
 8B58  83 E8 2D		     1		sub ax,45
 8B5B  2B D2		     1		sub dx,dx
 8B5D  BB 0032		     1		mov bx,50
 8B60  F7 F3		     1		div bx
 8B62  83 C0 04		     1		add ax,4
 8B65  A3 0157 R	     1		mov jcolx,ax;第几列
 8B68  A1 0026 R	     1		mov ax,pos_ceny
 8B6B  83 E8 2D		     1		sub ax,45
 8B6E  2B D2		     1		sub dx,dx
 8B70  BB 0032		     1		mov bx,50
 8B73  F7 F3		     1		div bx
 8B75  83 C0 04		     1		add ax,4
 8B78  A3 0155 R	     1		mov jrowy,ax;第几行
 8B7B  A1 0155 R	     1		mov ax,jrowy
 8B7E  BB 0011		     1		mov bx,17
 8B81  F7 E3		     1		mul bx
 8B83  03 06 0157 R	     1		add ax,jcolx
 8B87  A3 0121 R	     1		mov pianyi,ax
 8B8A  BB 0030 R	     1		mov bx,offset map0
 8B8D  A1 0121 R	     1		mov ax,pianyi
 8B90  03 D8		     1		add bx,ax
 8B92  C6 06 0132 R 01	     1		mov qizinum,1
 8B97  8A 16 0132 R	     1		mov dl,qizinum
 8B9B  8A 36 0130 R	     1		mov dh,state
 8B9F  53		     1		push bx
 8BA0  B1 01		     1		mov cl,1
 8BA2			     1	??045C:
 8BA2  83 C3 10		     1		add bx,16
 8BA5  8A 2F		     1		mov ch,[bx]
 8BA7  38 F5		     1		cmp ch,dh
 8BA9  75 0B		     1		jnz ??045E
 8BAB  80 C2 01		     1		add dl,1
 8BAE  80 C1 01		     1		add cl,1
 8BB1  80 F9 05		     1		cmp cl,5
 8BB4  75 EC		     1		jnz ??045C
 8BB6			     1	??045E:
 8BB6  5B		     1		pop bx
 8BB7  B1 01		     1		mov cl,1
 8BB9			     1	??045D:
 8BB9  83 EB 10		     1		sub bx,16
 8BBC  8A 2F		     1		mov ch,[bx]
 8BBE  38 F5		     1		cmp ch,dh
 8BC0  75 0B		     1		jnz ??045F
 8BC2  80 C2 01		     1		add dl,1
 8BC5  80 C1 01		     1		add cl,1
 8BC8  80 F9 05		     1		cmp cl,5
 8BCB  75 EC		     1		jnz ??045D
 8BCD			     1	??045F:
 8BCD  88 16 0140 R	     1		mov lianzigeshu,dl
 8BD1  80 FA 05		     1		cmp dl,5
 8BD4  73 02		     1		jae ??0460
 8BD6  EB 07		     1		jmp ??0461
 8BD8			     1	??0460:
 8BD8  C6 06 0123 R 01	     1		mov judg,1
 8BDD  EB 05		     1		jmp ??0462
 8BDF			     1	??0461:
 8BDF  C6 06 0123 R 00	     1		mov judg,0
 8BE4			     1	??0462:
 8BE4  5A		     1		pop dx
 8BE5  59		     1		pop cx
 8BE6  5B		     1		pop bx
 8BE7  58		     1		pop ax
 8BE8  80 3E 0123 R 01			cmp judg,1
 8BED  75 03 E9 152E			jz exitgame	
					
					;获得鼠标位置直到发生改变
 8BF2				reget:	
 8BF2  B8 0003				mov ax,03h
 8BF5  CD 33				int 33h
 8BF7  8B C1				mov ax,cx
 8BF9  A3 0020 R			mov pos_x,ax
 8BFC  8B C2				mov ax,dx
 8BFE  A3 0022 R			mov pos_y,ax
					
					GET_POSNEARX pos_x
 8C01  50		     1		push ax
 8C02  53		     1		push bx
 8C03  51		     1		push cx
 8C04  52		     1		push dx
 8C05  A1 0020 R	     1		mov ax,pos_x
 8C08  83 F8 1E		     1		cmp ax,30
 8C0B  72 23		     1		jb ??0463
 8C0D  3D 01CC		     1		cmp ax,460
 8C10  77 1E		     1		ja ??0463
 8C12  83 E8 1E		     1		sub ax,30
 8C15  2B D2		     1		sub dx,dx
 8C17  BB 0032		     1		mov bx,50
 8C1A  F7 F3		     1		div bx
 8C1C  83 FA 1E		     1		cmp dx,30
 8C1F  77 0F		     1		ja ??0463
 8C21  2B D2		     1		sub dx,dx
 8C23  BA 0032		     1		mov dx,50
 8C26  F7 E2		     1		mul dx
 8C28  83 C0 2D		     1		add ax,45
 8C2B  A3 0024 R	     1		mov pos_cenx,ax
 8C2E  EB 06		     1		jmp ??0464
 8C30			     1	??0463:
 8C30  C7 06 0024 R 0000     1		mov pos_cenx,0
 8C36			     1	??0464:
 8C36  5A		     1		pop dx
 8C37  59		     1		pop cx
 8C38  5B		     1		pop bx
 8C39  58		     1		pop ax
					GET_POSNEARY pos_y

 8C3A  50		     1		push ax
 8C3B  53		     1		push bx
 8C3C  51		     1		push cx
 8C3D  52		     1		push dx
 8C3E  A1 0022 R	     1		mov ax,pos_y
 8C41  83 F8 1E		     1		cmp ax,30
 8C44  72 23		     1		jb ??0465
 8C46  3D 01CC		     1		cmp ax,460
 8C49  77 1E		     1		ja ??0465
 8C4B  83 E8 1E		     1		sub ax,30
 8C4E  2B D2		     1		sub dx,dx
 8C50  BB 0032		     1		mov bx,50
 8C53  F7 F3		     1		div bx
 8C55  83 FA 1E		     1		cmp dx,30
 8C58  77 0F		     1		ja ??0465
 8C5A  2B D2		     1		sub dx,dx
 8C5C  BA 0032		     1		mov dx,50
 8C5F  F7 E2		     1		mul dx
 8C61  83 C0 2D		     1		add ax,45
 8C64  A3 0026 R	     1		mov pos_ceny,ax
 8C67  EB 06		     1		jmp ??0466
 8C69			     1	??0465:
 8C69  C7 06 0026 R 0000     1		mov pos_ceny,0
 8C6F			     1	??0466:
 8C6F  5A		     1		pop dx
 8C70  59		     1		pop cx
 8C71  5B		     1		pop bx
 8C72  58		     1		pop ax

 8C73  83 3E 0024 R 00			cmp pos_cenx,0
 8C78  75 03 E9 FF75			jz reget
 8C7D  83 3E 0026 R 00			cmp pos_ceny,0
 8C82  75 03 E9 FF6B			jz reget
					;如果当前鼠标坐标值发生改变
 8C87  A1 0024 R			mov ax,pos_cenx
 8C8A  8B 1E 0028 R			mov bx,pos_lastx
 8C8E  3B C3				cmp ax,bx
 8C90  75 0E				jnz redrawcircle
 8C92  A1 0026 R			mov ax,pos_ceny
 8C95  8B 1E 002A R			mov bx,pos_lasty
 8C99  3B C3				cmp ax,bx
 8C9B  75 03				jnz redrawcircle
 8C9D  E9 FF52				jmp reget
					
 8CA0				redrawcircle:

					DRAWCIR pos_lastx,pos_lasty,colo
 8CA0  50		     2	       push ax
 8CA1  53		     2	       push bx
 8CA2  51		     2	       push cx
 8CA3  52		     2	       push dx
 8CA4  56		     2	       push si
 8CA5  57		     2	       push di
 8CA6  55		     2	       push bp
 8CA7  B4 0C		     2	       mov ah,0ch
 8CA9  A0 0131 R	     2	       mov al,colo
 8CAC  B7 00		     2	       mov bh,0
 8CAE  8B 0E 0028 R	     2	       mov cx,pos_lastx
 8CB2  8B 16 002A R	     2	       mov dx,pos_lasty
 8CB6  BE 0000		     2	       mov si,0         ;X
 8CB9  BF 0014		     2	       mov di,20    ;Y
 8CBC  BD FFED		     2	       mov bp,1-20
 8CBF			     2	??0467: 
 8CBF  3B F7		     2		   cmp si,di
 8CC1  7C 06		     2	       jl ??0468
 8CC3  8D 1E 8D5C R	     2	       lea bx,??046D
 8CC7  FF E3		     2	       jmp bx
 8CC9			     2	??0468:
 8CC9  46		     2		   inc si
 8CCA			     2	??0469: 
 8CCA  83 FD 00		     2	       cmp bp,0
 8CCD  7D 09		     2	       jge ??046A
 8CCF  03 EE		     2	       add bp,si
 8CD1  03 EE		     2	       add bp,si
 8CD3  83 C5 01		     2	       add bp,1
 8CD6  EB 0C		     2	       jmp ??046B
 8CD8			     2	??046A: 
 8CD8  4F		     2		   dec di
 8CD9  03 EE		     2	       add bp,si
 8CDB  03 EE		     2	       add bp,si
 8CDD  2B EF		     2	       sub bp,di
 8CDF  2B EF		     2	       sub bp,di
 8CE1  83 C5 01		     2	       add bp,1
 8CE4			     2	??046B: 
 8CE4  B7 00		     2		   mov bh,0
 8CE6  8B 0E 0028 R	     2	       mov cx,pos_lastx
 8CEA  8B 16 002A R	     2	       mov dx,pos_lasty
 8CEE  03 CE		     2	       add cx,si
 8CF0  03 D7		     2	       add dx,di
 8CF2  CD 10		     2	       int 10h
 8CF4  8B 0E 0028 R	     2	       mov cx,pos_lastx
 8CF8  8B 16 002A R	     2	       mov dx,pos_lasty
 8CFC  2B CE		     2	       sub cx,si
 8CFE  03 D7		     2	       add dx,di
 8D00  CD 10		     2	       int 10h
 8D02  8B 0E 0028 R	     2	       mov cx,pos_lastx
 8D06  8B 16 002A R	     2	       mov dx,pos_lasty
 8D0A  03 CE		     2	       add cx,si
 8D0C  2B D7		     2	       sub dx,di
 8D0E  CD 10		     2	       int 10h
 8D10  8B 0E 0028 R	     2	       mov cx,pos_lastx
 8D14  8B 16 002A R	     2	       mov dx,pos_lasty
 8D18  2B CE		     2	       sub cx,si
 8D1A  2B D7		     2	       sub dx,di
 8D1C  CD 10		     2	       int 10h
 8D1E  8B 0E 0028 R	     2	       mov cx,pos_lastx
 8D22  8B 16 002A R	     2	       mov dx,pos_lasty
 8D26  03 CF		     2	       add cx,di
 8D28  03 D6		     2	       add dx,si
 8D2A  CD 10		     2	       int 10h
 8D2C  8B 0E 0028 R	     2	       mov cx,pos_lastx
 8D30  8B 16 002A R	     2	       mov dx,pos_lasty
 8D34  2B CF		     2	       sub cx,di
 8D36  03 D6		     2	       add dx,si
 8D38  CD 10		     2	       int 10h
 8D3A  8B 0E 0028 R	     2	       mov cx,pos_lastx
 8D3E  8B 16 002A R	     2	       mov dx,pos_lasty
 8D42  03 CF		     2	       add cx,di
 8D44  2B D6		     2	       sub dx,si
 8D46  CD 10		     2	       int 10h
 8D48  8B 0E 0028 R	     2	       mov cx,pos_lastx
 8D4C  8B 16 002A R	     2	       mov dx,pos_lasty
 8D50  2B CF		     2	       sub cx,di
 8D52  2B D6		     2	       sub dx,si
 8D54  CD 10		     2	       int 10h
 8D56			     2	??046C: 
 8D56  8D 1E 8CBF R	     2		   lea bx,??0467
 8D5A  FF E3		     2	       jmp bx
 8D5C			     2	??046D:
 8D5C  B4 0C		     2	       mov ah,0ch
 8D5E  A0 0131 R	     2	       mov al,colo
 8D61  B7 00		     2	       mov bh,0
 8D63  8B 0E 0014 R	     2	       mov cx,pos_lastx-20
 8D67  8B 16 002A R	     2	       mov dx,pos_lasty
 8D6B  CD 10		     2	       int 10h
 8D6D  8B 0E 003C R	     2	       mov cx,pos_lastx+20
 8D71  8B 16 002A R	     2	       mov dx,pos_lasty
 8D75  CD 10		     2	       int 10h
 8D77  8B 0E 0028 R	     2	       mov cx,pos_lastx
 8D7B  8B 16 0016 R	     2	       mov dx,pos_lasty-20
 8D7F  CD 10		     2	       int 10h
 8D81  8B 0E 0028 R	     2	       mov cx,pos_lastx
 8D85  8B 16 003E R	     2	       mov dx,pos_lasty+20
 8D89  CD 10		     2	       int 10h
 8D8B  5D		     2	       pop bp
 8D8C  5F		     2	       pop di
 8D8D  5E		     2	       pop si
 8D8E  5A		     2	       pop dx
 8D8F  59		     2	       pop cx
 8D90  5B		     2	       pop bx
 8D91  58		     2	       pop ax
 8D92  50		     2	       push ax
 8D93  53		     2	       push bx
 8D94  51		     2	       push cx
 8D95  52		     2	       push dx
 8D96  56		     2	       push si
 8D97  57		     2	       push di
 8D98  55		     2	       push bp
 8D99  B4 0C		     2	       mov ah,0ch
 8D9B  A0 0131 R	     2	       mov al,colo
 8D9E  B7 00		     2	       mov bh,0
 8DA0  8B 0E 0028 R	     2	       mov cx,pos_lastx
 8DA4  8B 16 002A R	     2	       mov dx,pos_lasty
 8DA8  BE 0000		     2	       mov si,0         ;X
 8DAB  BF 0013		     2	       mov di,19    ;Y
 8DAE  BD FFEE		     2	       mov bp,1-19
 8DB1			     2	??046E: 
 8DB1  3B F7		     2		   cmp si,di
 8DB3  7C 06		     2	       jl ??046F
 8DB5  8D 1E 8E4E R	     2	       lea bx,??0474
 8DB9  FF E3		     2	       jmp bx
 8DBB			     2	??046F:
 8DBB  46		     2		   inc si
 8DBC			     2	??0470: 
 8DBC  83 FD 00		     2	       cmp bp,0
 8DBF  7D 09		     2	       jge ??0471
 8DC1  03 EE		     2	       add bp,si
 8DC3  03 EE		     2	       add bp,si
 8DC5  83 C5 01		     2	       add bp,1
 8DC8  EB 0C		     2	       jmp ??0472
 8DCA			     2	??0471: 
 8DCA  4F		     2		   dec di
 8DCB  03 EE		     2	       add bp,si
 8DCD  03 EE		     2	       add bp,si
 8DCF  2B EF		     2	       sub bp,di
 8DD1  2B EF		     2	       sub bp,di
 8DD3  83 C5 01		     2	       add bp,1
 8DD6			     2	??0472: 
 8DD6  B7 00		     2		   mov bh,0
 8DD8  8B 0E 0028 R	     2	       mov cx,pos_lastx
 8DDC  8B 16 002A R	     2	       mov dx,pos_lasty
 8DE0  03 CE		     2	       add cx,si
 8DE2  03 D7		     2	       add dx,di
 8DE4  CD 10		     2	       int 10h
 8DE6  8B 0E 0028 R	     2	       mov cx,pos_lastx
 8DEA  8B 16 002A R	     2	       mov dx,pos_lasty
 8DEE  2B CE		     2	       sub cx,si
 8DF0  03 D7		     2	       add dx,di
 8DF2  CD 10		     2	       int 10h
 8DF4  8B 0E 0028 R	     2	       mov cx,pos_lastx
 8DF8  8B 16 002A R	     2	       mov dx,pos_lasty
 8DFC  03 CE		     2	       add cx,si
 8DFE  2B D7		     2	       sub dx,di
 8E00  CD 10		     2	       int 10h
 8E02  8B 0E 0028 R	     2	       mov cx,pos_lastx
 8E06  8B 16 002A R	     2	       mov dx,pos_lasty
 8E0A  2B CE		     2	       sub cx,si
 8E0C  2B D7		     2	       sub dx,di
 8E0E  CD 10		     2	       int 10h
 8E10  8B 0E 0028 R	     2	       mov cx,pos_lastx
 8E14  8B 16 002A R	     2	       mov dx,pos_lasty
 8E18  03 CF		     2	       add cx,di
 8E1A  03 D6		     2	       add dx,si
 8E1C  CD 10		     2	       int 10h
 8E1E  8B 0E 0028 R	     2	       mov cx,pos_lastx
 8E22  8B 16 002A R	     2	       mov dx,pos_lasty
 8E26  2B CF		     2	       sub cx,di
 8E28  03 D6		     2	       add dx,si
 8E2A  CD 10		     2	       int 10h
 8E2C  8B 0E 0028 R	     2	       mov cx,pos_lastx
 8E30  8B 16 002A R	     2	       mov dx,pos_lasty
 8E34  03 CF		     2	       add cx,di
 8E36  2B D6		     2	       sub dx,si
 8E38  CD 10		     2	       int 10h
 8E3A  8B 0E 0028 R	     2	       mov cx,pos_lastx
 8E3E  8B 16 002A R	     2	       mov dx,pos_lasty
 8E42  2B CF		     2	       sub cx,di
 8E44  2B D6		     2	       sub dx,si
 8E46  CD 10		     2	       int 10h
 8E48			     2	??0473: 
 8E48  8D 1E 8DB1 R	     2		   lea bx,??046E
 8E4C  FF E3		     2	       jmp bx
 8E4E			     2	??0474:
 8E4E  B4 0C		     2	       mov ah,0ch
 8E50  A0 0131 R	     2	       mov al,colo
 8E53  B7 00		     2	       mov bh,0
 8E55  8B 0E 0015 R	     2	       mov cx,pos_lastx-19
 8E59  8B 16 002A R	     2	       mov dx,pos_lasty
 8E5D  CD 10		     2	       int 10h
 8E5F  8B 0E 003B R	     2	       mov cx,pos_lastx+19
 8E63  8B 16 002A R	     2	       mov dx,pos_lasty
 8E67  CD 10		     2	       int 10h
 8E69  8B 0E 0028 R	     2	       mov cx,pos_lastx
 8E6D  8B 16 0017 R	     2	       mov dx,pos_lasty-19
 8E71  CD 10		     2	       int 10h
 8E73  8B 0E 0028 R	     2	       mov cx,pos_lastx
 8E77  8B 16 003D R	     2	       mov dx,pos_lasty+19
 8E7B  CD 10		     2	       int 10h
 8E7D  5D		     2	       pop bp
 8E7E  5F		     2	       pop di
 8E7F  5E		     2	       pop si
 8E80  5A		     2	       pop dx
 8E81  59		     2	       pop cx
 8E82  5B		     2	       pop bx
 8E83  58		     2	       pop ax
 8E84  50		     2	       push ax
 8E85  53		     2	       push bx
 8E86  51		     2	       push cx
 8E87  52		     2	       push dx
 8E88  56		     2	       push si
 8E89  57		     2	       push di
 8E8A  55		     2	       push bp
 8E8B  B4 0C		     2	       mov ah,0ch
 8E8D  A0 0131 R	     2	       mov al,colo
 8E90  B7 00		     2	       mov bh,0
 8E92  8B 0E 0028 R	     2	       mov cx,pos_lastx
 8E96  8B 16 002A R	     2	       mov dx,pos_lasty
 8E9A  BE 0000		     2	       mov si,0         ;X
 8E9D  BF 0012		     2	       mov di,18    ;Y
 8EA0  BD FFEF		     2	       mov bp,1-18
 8EA3			     2	??0475: 
 8EA3  3B F7		     2		   cmp si,di
 8EA5  7C 06		     2	       jl ??0476
 8EA7  8D 1E 8F40 R	     2	       lea bx,??047B
 8EAB  FF E3		     2	       jmp bx
 8EAD			     2	??0476:
 8EAD  46		     2		   inc si
 8EAE			     2	??0477: 
 8EAE  83 FD 00		     2	       cmp bp,0
 8EB1  7D 09		     2	       jge ??0478
 8EB3  03 EE		     2	       add bp,si
 8EB5  03 EE		     2	       add bp,si
 8EB7  83 C5 01		     2	       add bp,1
 8EBA  EB 0C		     2	       jmp ??0479
 8EBC			     2	??0478: 
 8EBC  4F		     2		   dec di
 8EBD  03 EE		     2	       add bp,si
 8EBF  03 EE		     2	       add bp,si
 8EC1  2B EF		     2	       sub bp,di
 8EC3  2B EF		     2	       sub bp,di
 8EC5  83 C5 01		     2	       add bp,1
 8EC8			     2	??0479: 
 8EC8  B7 00		     2		   mov bh,0
 8ECA  8B 0E 0028 R	     2	       mov cx,pos_lastx
 8ECE  8B 16 002A R	     2	       mov dx,pos_lasty
 8ED2  03 CE		     2	       add cx,si
 8ED4  03 D7		     2	       add dx,di
 8ED6  CD 10		     2	       int 10h
 8ED8  8B 0E 0028 R	     2	       mov cx,pos_lastx
 8EDC  8B 16 002A R	     2	       mov dx,pos_lasty
 8EE0  2B CE		     2	       sub cx,si
 8EE2  03 D7		     2	       add dx,di
 8EE4  CD 10		     2	       int 10h
 8EE6  8B 0E 0028 R	     2	       mov cx,pos_lastx
 8EEA  8B 16 002A R	     2	       mov dx,pos_lasty
 8EEE  03 CE		     2	       add cx,si
 8EF0  2B D7		     2	       sub dx,di
 8EF2  CD 10		     2	       int 10h
 8EF4  8B 0E 0028 R	     2	       mov cx,pos_lastx
 8EF8  8B 16 002A R	     2	       mov dx,pos_lasty
 8EFC  2B CE		     2	       sub cx,si
 8EFE  2B D7		     2	       sub dx,di
 8F00  CD 10		     2	       int 10h
 8F02  8B 0E 0028 R	     2	       mov cx,pos_lastx
 8F06  8B 16 002A R	     2	       mov dx,pos_lasty
 8F0A  03 CF		     2	       add cx,di
 8F0C  03 D6		     2	       add dx,si
 8F0E  CD 10		     2	       int 10h
 8F10  8B 0E 0028 R	     2	       mov cx,pos_lastx
 8F14  8B 16 002A R	     2	       mov dx,pos_lasty
 8F18  2B CF		     2	       sub cx,di
 8F1A  03 D6		     2	       add dx,si
 8F1C  CD 10		     2	       int 10h
 8F1E  8B 0E 0028 R	     2	       mov cx,pos_lastx
 8F22  8B 16 002A R	     2	       mov dx,pos_lasty
 8F26  03 CF		     2	       add cx,di
 8F28  2B D6		     2	       sub dx,si
 8F2A  CD 10		     2	       int 10h
 8F2C  8B 0E 0028 R	     2	       mov cx,pos_lastx
 8F30  8B 16 002A R	     2	       mov dx,pos_lasty
 8F34  2B CF		     2	       sub cx,di
 8F36  2B D6		     2	       sub dx,si
 8F38  CD 10		     2	       int 10h
 8F3A			     2	??047A: 
 8F3A  8D 1E 8EA3 R	     2		   lea bx,??0475
 8F3E  FF E3		     2	       jmp bx
 8F40			     2	??047B:
 8F40  B4 0C		     2	       mov ah,0ch
 8F42  A0 0131 R	     2	       mov al,colo
 8F45  B7 00		     2	       mov bh,0
 8F47  8B 0E 0016 R	     2	       mov cx,pos_lastx-18
 8F4B  8B 16 002A R	     2	       mov dx,pos_lasty
 8F4F  CD 10		     2	       int 10h
 8F51  8B 0E 003A R	     2	       mov cx,pos_lastx+18
 8F55  8B 16 002A R	     2	       mov dx,pos_lasty
 8F59  CD 10		     2	       int 10h
 8F5B  8B 0E 0028 R	     2	       mov cx,pos_lastx
 8F5F  8B 16 0018 R	     2	       mov dx,pos_lasty-18
 8F63  CD 10		     2	       int 10h
 8F65  8B 0E 0028 R	     2	       mov cx,pos_lastx
 8F69  8B 16 003C R	     2	       mov dx,pos_lasty+18
 8F6D  CD 10		     2	       int 10h
 8F6F  5D		     2	       pop bp
 8F70  5F		     2	       pop di
 8F71  5E		     2	       pop si
 8F72  5A		     2	       pop dx
 8F73  59		     2	       pop cx
 8F74  5B		     2	       pop bx
 8F75  58		     2	       pop ax
 8F76  50		     2	       push ax
 8F77  53		     2	       push bx
 8F78  51		     2	       push cx
 8F79  52		     2	       push dx
 8F7A  56		     2	       push si
 8F7B  57		     2	       push di
 8F7C  55		     2	       push bp
 8F7D  B4 0C		     2	       mov ah,0ch
 8F7F  A0 0131 R	     2	       mov al,colo
 8F82  B7 00		     2	       mov bh,0
 8F84  8B 0E 0028 R	     2	       mov cx,pos_lastx
 8F88  8B 16 002A R	     2	       mov dx,pos_lasty
 8F8C  BE 0000		     2	       mov si,0         ;X
 8F8F  BF 0011		     2	       mov di,17    ;Y
 8F92  BD FFF0		     2	       mov bp,1-17
 8F95			     2	??047C: 
 8F95  3B F7		     2		   cmp si,di
 8F97  7C 06		     2	       jl ??047D
 8F99  8D 1E 9032 R	     2	       lea bx,??0482
 8F9D  FF E3		     2	       jmp bx
 8F9F			     2	??047D:
 8F9F  46		     2		   inc si
 8FA0			     2	??047E: 
 8FA0  83 FD 00		     2	       cmp bp,0
 8FA3  7D 09		     2	       jge ??047F
 8FA5  03 EE		     2	       add bp,si
 8FA7  03 EE		     2	       add bp,si
 8FA9  83 C5 01		     2	       add bp,1
 8FAC  EB 0C		     2	       jmp ??0480
 8FAE			     2	??047F: 
 8FAE  4F		     2		   dec di
 8FAF  03 EE		     2	       add bp,si
 8FB1  03 EE		     2	       add bp,si
 8FB3  2B EF		     2	       sub bp,di
 8FB5  2B EF		     2	       sub bp,di
 8FB7  83 C5 01		     2	       add bp,1
 8FBA			     2	??0480: 
 8FBA  B7 00		     2		   mov bh,0
 8FBC  8B 0E 0028 R	     2	       mov cx,pos_lastx
 8FC0  8B 16 002A R	     2	       mov dx,pos_lasty
 8FC4  03 CE		     2	       add cx,si
 8FC6  03 D7		     2	       add dx,di
 8FC8  CD 10		     2	       int 10h
 8FCA  8B 0E 0028 R	     2	       mov cx,pos_lastx
 8FCE  8B 16 002A R	     2	       mov dx,pos_lasty
 8FD2  2B CE		     2	       sub cx,si
 8FD4  03 D7		     2	       add dx,di
 8FD6  CD 10		     2	       int 10h
 8FD8  8B 0E 0028 R	     2	       mov cx,pos_lastx
 8FDC  8B 16 002A R	     2	       mov dx,pos_lasty
 8FE0  03 CE		     2	       add cx,si
 8FE2  2B D7		     2	       sub dx,di
 8FE4  CD 10		     2	       int 10h
 8FE6  8B 0E 0028 R	     2	       mov cx,pos_lastx
 8FEA  8B 16 002A R	     2	       mov dx,pos_lasty
 8FEE  2B CE		     2	       sub cx,si
 8FF0  2B D7		     2	       sub dx,di
 8FF2  CD 10		     2	       int 10h
 8FF4  8B 0E 0028 R	     2	       mov cx,pos_lastx
 8FF8  8B 16 002A R	     2	       mov dx,pos_lasty
 8FFC  03 CF		     2	       add cx,di
 8FFE  03 D6		     2	       add dx,si
 9000  CD 10		     2	       int 10h
 9002  8B 0E 0028 R	     2	       mov cx,pos_lastx
 9006  8B 16 002A R	     2	       mov dx,pos_lasty
 900A  2B CF		     2	       sub cx,di
 900C  03 D6		     2	       add dx,si
 900E  CD 10		     2	       int 10h
 9010  8B 0E 0028 R	     2	       mov cx,pos_lastx
 9014  8B 16 002A R	     2	       mov dx,pos_lasty
 9018  03 CF		     2	       add cx,di
 901A  2B D6		     2	       sub dx,si
 901C  CD 10		     2	       int 10h
 901E  8B 0E 0028 R	     2	       mov cx,pos_lastx
 9022  8B 16 002A R	     2	       mov dx,pos_lasty
 9026  2B CF		     2	       sub cx,di
 9028  2B D6		     2	       sub dx,si
 902A  CD 10		     2	       int 10h
 902C			     2	??0481: 
 902C  8D 1E 8F95 R	     2		   lea bx,??047C
 9030  FF E3		     2	       jmp bx
 9032			     2	??0482:
 9032  B4 0C		     2	       mov ah,0ch
 9034  A0 0131 R	     2	       mov al,colo
 9037  B7 00		     2	       mov bh,0
 9039  8B 0E 0017 R	     2	       mov cx,pos_lastx-17
 903D  8B 16 002A R	     2	       mov dx,pos_lasty
 9041  CD 10		     2	       int 10h
 9043  8B 0E 0039 R	     2	       mov cx,pos_lastx+17
 9047  8B 16 002A R	     2	       mov dx,pos_lasty
 904B  CD 10		     2	       int 10h
 904D  8B 0E 0028 R	     2	       mov cx,pos_lastx
 9051  8B 16 0019 R	     2	       mov dx,pos_lasty-17
 9055  CD 10		     2	       int 10h
 9057  8B 0E 0028 R	     2	       mov cx,pos_lastx
 905B  8B 16 003B R	     2	       mov dx,pos_lasty+17
 905F  CD 10		     2	       int 10h
 9061  5D		     2	       pop bp
 9062  5F		     2	       pop di
 9063  5E		     2	       pop si
 9064  5A		     2	       pop dx
 9065  59		     2	       pop cx
 9066  5B		     2	       pop bx
 9067  58		     2	       pop ax
 9068  50		     2	       push ax
 9069  53		     2	       push bx
 906A  51		     2	       push cx
 906B  52		     2	       push dx
 906C  56		     2	       push si
 906D  57		     2	       push di
 906E  55		     2	       push bp
 906F  B4 0C		     2	       mov ah,0ch
 9071  A0 0131 R	     2	       mov al,colo
 9074  B7 00		     2	       mov bh,0
 9076  8B 0E 0028 R	     2	       mov cx,pos_lastx
 907A  8B 16 002A R	     2	       mov dx,pos_lasty
 907E  BE 0000		     2	       mov si,0         ;X
 9081  BF 0010		     2	       mov di,16    ;Y
 9084  BD FFF1		     2	       mov bp,1-16
 9087			     2	??0483: 
 9087  3B F7		     2		   cmp si,di
 9089  7C 06		     2	       jl ??0484
 908B  8D 1E 9124 R	     2	       lea bx,??0489
 908F  FF E3		     2	       jmp bx
 9091			     2	??0484:
 9091  46		     2		   inc si
 9092			     2	??0485: 
 9092  83 FD 00		     2	       cmp bp,0
 9095  7D 09		     2	       jge ??0486
 9097  03 EE		     2	       add bp,si
 9099  03 EE		     2	       add bp,si
 909B  83 C5 01		     2	       add bp,1
 909E  EB 0C		     2	       jmp ??0487
 90A0			     2	??0486: 
 90A0  4F		     2		   dec di
 90A1  03 EE		     2	       add bp,si
 90A3  03 EE		     2	       add bp,si
 90A5  2B EF		     2	       sub bp,di
 90A7  2B EF		     2	       sub bp,di
 90A9  83 C5 01		     2	       add bp,1
 90AC			     2	??0487: 
 90AC  B7 00		     2		   mov bh,0
 90AE  8B 0E 0028 R	     2	       mov cx,pos_lastx
 90B2  8B 16 002A R	     2	       mov dx,pos_lasty
 90B6  03 CE		     2	       add cx,si
 90B8  03 D7		     2	       add dx,di
 90BA  CD 10		     2	       int 10h
 90BC  8B 0E 0028 R	     2	       mov cx,pos_lastx
 90C0  8B 16 002A R	     2	       mov dx,pos_lasty
 90C4  2B CE		     2	       sub cx,si
 90C6  03 D7		     2	       add dx,di
 90C8  CD 10		     2	       int 10h
 90CA  8B 0E 0028 R	     2	       mov cx,pos_lastx
 90CE  8B 16 002A R	     2	       mov dx,pos_lasty
 90D2  03 CE		     2	       add cx,si
 90D4  2B D7		     2	       sub dx,di
 90D6  CD 10		     2	       int 10h
 90D8  8B 0E 0028 R	     2	       mov cx,pos_lastx
 90DC  8B 16 002A R	     2	       mov dx,pos_lasty
 90E0  2B CE		     2	       sub cx,si
 90E2  2B D7		     2	       sub dx,di
 90E4  CD 10		     2	       int 10h
 90E6  8B 0E 0028 R	     2	       mov cx,pos_lastx
 90EA  8B 16 002A R	     2	       mov dx,pos_lasty
 90EE  03 CF		     2	       add cx,di
 90F0  03 D6		     2	       add dx,si
 90F2  CD 10		     2	       int 10h
 90F4  8B 0E 0028 R	     2	       mov cx,pos_lastx
 90F8  8B 16 002A R	     2	       mov dx,pos_lasty
 90FC  2B CF		     2	       sub cx,di
 90FE  03 D6		     2	       add dx,si
 9100  CD 10		     2	       int 10h
 9102  8B 0E 0028 R	     2	       mov cx,pos_lastx
 9106  8B 16 002A R	     2	       mov dx,pos_lasty
 910A  03 CF		     2	       add cx,di
 910C  2B D6		     2	       sub dx,si
 910E  CD 10		     2	       int 10h
 9110  8B 0E 0028 R	     2	       mov cx,pos_lastx
 9114  8B 16 002A R	     2	       mov dx,pos_lasty
 9118  2B CF		     2	       sub cx,di
 911A  2B D6		     2	       sub dx,si
 911C  CD 10		     2	       int 10h
 911E			     2	??0488: 
 911E  8D 1E 9087 R	     2		   lea bx,??0483
 9122  FF E3		     2	       jmp bx
 9124			     2	??0489:
 9124  B4 0C		     2	       mov ah,0ch
 9126  A0 0131 R	     2	       mov al,colo
 9129  B7 00		     2	       mov bh,0
 912B  8B 0E 0018 R	     2	       mov cx,pos_lastx-16
 912F  8B 16 002A R	     2	       mov dx,pos_lasty
 9133  CD 10		     2	       int 10h
 9135  8B 0E 0038 R	     2	       mov cx,pos_lastx+16
 9139  8B 16 002A R	     2	       mov dx,pos_lasty
 913D  CD 10		     2	       int 10h
 913F  8B 0E 0028 R	     2	       mov cx,pos_lastx
 9143  8B 16 001A R	     2	       mov dx,pos_lasty-16
 9147  CD 10		     2	       int 10h
 9149  8B 0E 0028 R	     2	       mov cx,pos_lastx
 914D  8B 16 003A R	     2	       mov dx,pos_lasty+16
 9151  CD 10		     2	       int 10h
 9153  5D		     2	       pop bp
 9154  5F		     2	       pop di
 9155  5E		     2	       pop si
 9156  5A		     2	       pop dx
 9157  59		     2	       pop cx
 9158  5B		     2	       pop bx
 9159  58		     2	       pop ax
 915A  50		     2	       push ax
 915B  53		     2	       push bx
 915C  51		     2	       push cx
 915D  52		     2	       push dx
 915E  56		     2	       push si
 915F  57		     2	       push di
 9160  55		     2	       push bp
 9161  B4 0C		     2	       mov ah,0ch
 9163  A0 0131 R	     2	       mov al,colo
 9166  B7 00		     2	       mov bh,0
 9168  8B 0E 0028 R	     2	       mov cx,pos_lastx
 916C  8B 16 002A R	     2	       mov dx,pos_lasty
 9170  BE 0000		     2	       mov si,0         ;X
 9173  BF 000F		     2	       mov di,15    ;Y
 9176  BD FFF2		     2	       mov bp,1-15
 9179			     2	??048A: 
 9179  3B F7		     2		   cmp si,di
 917B  7C 06		     2	       jl ??048B
 917D  8D 1E 9216 R	     2	       lea bx,??0490
 9181  FF E3		     2	       jmp bx
 9183			     2	??048B:
 9183  46		     2		   inc si
 9184			     2	??048C: 
 9184  83 FD 00		     2	       cmp bp,0
 9187  7D 09		     2	       jge ??048D
 9189  03 EE		     2	       add bp,si
 918B  03 EE		     2	       add bp,si
 918D  83 C5 01		     2	       add bp,1
 9190  EB 0C		     2	       jmp ??048E
 9192			     2	??048D: 
 9192  4F		     2		   dec di
 9193  03 EE		     2	       add bp,si
 9195  03 EE		     2	       add bp,si
 9197  2B EF		     2	       sub bp,di
 9199  2B EF		     2	       sub bp,di
 919B  83 C5 01		     2	       add bp,1
 919E			     2	??048E: 
 919E  B7 00		     2		   mov bh,0
 91A0  8B 0E 0028 R	     2	       mov cx,pos_lastx
 91A4  8B 16 002A R	     2	       mov dx,pos_lasty
 91A8  03 CE		     2	       add cx,si
 91AA  03 D7		     2	       add dx,di
 91AC  CD 10		     2	       int 10h
 91AE  8B 0E 0028 R	     2	       mov cx,pos_lastx
 91B2  8B 16 002A R	     2	       mov dx,pos_lasty
 91B6  2B CE		     2	       sub cx,si
 91B8  03 D7		     2	       add dx,di
 91BA  CD 10		     2	       int 10h
 91BC  8B 0E 0028 R	     2	       mov cx,pos_lastx
 91C0  8B 16 002A R	     2	       mov dx,pos_lasty
 91C4  03 CE		     2	       add cx,si
 91C6  2B D7		     2	       sub dx,di
 91C8  CD 10		     2	       int 10h
 91CA  8B 0E 0028 R	     2	       mov cx,pos_lastx
 91CE  8B 16 002A R	     2	       mov dx,pos_lasty
 91D2  2B CE		     2	       sub cx,si
 91D4  2B D7		     2	       sub dx,di
 91D6  CD 10		     2	       int 10h
 91D8  8B 0E 0028 R	     2	       mov cx,pos_lastx
 91DC  8B 16 002A R	     2	       mov dx,pos_lasty
 91E0  03 CF		     2	       add cx,di
 91E2  03 D6		     2	       add dx,si
 91E4  CD 10		     2	       int 10h
 91E6  8B 0E 0028 R	     2	       mov cx,pos_lastx
 91EA  8B 16 002A R	     2	       mov dx,pos_lasty
 91EE  2B CF		     2	       sub cx,di
 91F0  03 D6		     2	       add dx,si
 91F2  CD 10		     2	       int 10h
 91F4  8B 0E 0028 R	     2	       mov cx,pos_lastx
 91F8  8B 16 002A R	     2	       mov dx,pos_lasty
 91FC  03 CF		     2	       add cx,di
 91FE  2B D6		     2	       sub dx,si
 9200  CD 10		     2	       int 10h
 9202  8B 0E 0028 R	     2	       mov cx,pos_lastx
 9206  8B 16 002A R	     2	       mov dx,pos_lasty
 920A  2B CF		     2	       sub cx,di
 920C  2B D6		     2	       sub dx,si
 920E  CD 10		     2	       int 10h
 9210			     2	??048F: 
 9210  8D 1E 9179 R	     2		   lea bx,??048A
 9214  FF E3		     2	       jmp bx
 9216			     2	??0490:
 9216  B4 0C		     2	       mov ah,0ch
 9218  A0 0131 R	     2	       mov al,colo
 921B  B7 00		     2	       mov bh,0
 921D  8B 0E 0019 R	     2	       mov cx,pos_lastx-15
 9221  8B 16 002A R	     2	       mov dx,pos_lasty
 9225  CD 10		     2	       int 10h
 9227  8B 0E 0037 R	     2	       mov cx,pos_lastx+15
 922B  8B 16 002A R	     2	       mov dx,pos_lasty
 922F  CD 10		     2	       int 10h
 9231  8B 0E 0028 R	     2	       mov cx,pos_lastx
 9235  8B 16 001B R	     2	       mov dx,pos_lasty-15
 9239  CD 10		     2	       int 10h
 923B  8B 0E 0028 R	     2	       mov cx,pos_lastx
 923F  8B 16 0039 R	     2	       mov dx,pos_lasty+15
 9243  CD 10		     2	       int 10h
 9245  5D		     2	       pop bp
 9246  5F		     2	       pop di
 9247  5E		     2	       pop si
 9248  5A		     2	       pop dx
 9249  59		     2	       pop cx
 924A  5B		     2	       pop bx
 924B  58		     2	       pop ax
 924C  50		     2	       push ax
 924D  53		     2	       push bx
 924E  51		     2	       push cx
 924F  52		     2	       push dx
 9250  56		     2	       push si
 9251  57		     2	       push di
 9252  55		     2	       push bp
 9253  B4 0C		     2	       mov ah,0ch
 9255  A0 0131 R	     2	       mov al,colo
 9258  B7 00		     2	       mov bh,0
 925A  8B 0E 0028 R	     2	       mov cx,pos_lastx
 925E  8B 16 002A R	     2	       mov dx,pos_lasty
 9262  BE 0000		     2	       mov si,0         ;X
 9265  BF 000E		     2	       mov di,14    ;Y
 9268  BD FFF3		     2	       mov bp,1-14
 926B			     2	??0491: 
 926B  3B F7		     2		   cmp si,di
 926D  7C 06		     2	       jl ??0492
 926F  8D 1E 9308 R	     2	       lea bx,??0497
 9273  FF E3		     2	       jmp bx
 9275			     2	??0492:
 9275  46		     2		   inc si
 9276			     2	??0493: 
 9276  83 FD 00		     2	       cmp bp,0
 9279  7D 09		     2	       jge ??0494
 927B  03 EE		     2	       add bp,si
 927D  03 EE		     2	       add bp,si
 927F  83 C5 01		     2	       add bp,1
 9282  EB 0C		     2	       jmp ??0495
 9284			     2	??0494: 
 9284  4F		     2		   dec di
 9285  03 EE		     2	       add bp,si
 9287  03 EE		     2	       add bp,si
 9289  2B EF		     2	       sub bp,di
 928B  2B EF		     2	       sub bp,di
 928D  83 C5 01		     2	       add bp,1
 9290			     2	??0495: 
 9290  B7 00		     2		   mov bh,0
 9292  8B 0E 0028 R	     2	       mov cx,pos_lastx
 9296  8B 16 002A R	     2	       mov dx,pos_lasty
 929A  03 CE		     2	       add cx,si
 929C  03 D7		     2	       add dx,di
 929E  CD 10		     2	       int 10h
 92A0  8B 0E 0028 R	     2	       mov cx,pos_lastx
 92A4  8B 16 002A R	     2	       mov dx,pos_lasty
 92A8  2B CE		     2	       sub cx,si
 92AA  03 D7		     2	       add dx,di
 92AC  CD 10		     2	       int 10h
 92AE  8B 0E 0028 R	     2	       mov cx,pos_lastx
 92B2  8B 16 002A R	     2	       mov dx,pos_lasty
 92B6  03 CE		     2	       add cx,si
 92B8  2B D7		     2	       sub dx,di
 92BA  CD 10		     2	       int 10h
 92BC  8B 0E 0028 R	     2	       mov cx,pos_lastx
 92C0  8B 16 002A R	     2	       mov dx,pos_lasty
 92C4  2B CE		     2	       sub cx,si
 92C6  2B D7		     2	       sub dx,di
 92C8  CD 10		     2	       int 10h
 92CA  8B 0E 0028 R	     2	       mov cx,pos_lastx
 92CE  8B 16 002A R	     2	       mov dx,pos_lasty
 92D2  03 CF		     2	       add cx,di
 92D4  03 D6		     2	       add dx,si
 92D6  CD 10		     2	       int 10h
 92D8  8B 0E 0028 R	     2	       mov cx,pos_lastx
 92DC  8B 16 002A R	     2	       mov dx,pos_lasty
 92E0  2B CF		     2	       sub cx,di
 92E2  03 D6		     2	       add dx,si
 92E4  CD 10		     2	       int 10h
 92E6  8B 0E 0028 R	     2	       mov cx,pos_lastx
 92EA  8B 16 002A R	     2	       mov dx,pos_lasty
 92EE  03 CF		     2	       add cx,di
 92F0  2B D6		     2	       sub dx,si
 92F2  CD 10		     2	       int 10h
 92F4  8B 0E 0028 R	     2	       mov cx,pos_lastx
 92F8  8B 16 002A R	     2	       mov dx,pos_lasty
 92FC  2B CF		     2	       sub cx,di
 92FE  2B D6		     2	       sub dx,si
 9300  CD 10		     2	       int 10h
 9302			     2	??0496: 
 9302  8D 1E 926B R	     2		   lea bx,??0491
 9306  FF E3		     2	       jmp bx
 9308			     2	??0497:
 9308  B4 0C		     2	       mov ah,0ch
 930A  A0 0131 R	     2	       mov al,colo
 930D  B7 00		     2	       mov bh,0
 930F  8B 0E 001A R	     2	       mov cx,pos_lastx-14
 9313  8B 16 002A R	     2	       mov dx,pos_lasty
 9317  CD 10		     2	       int 10h
 9319  8B 0E 0036 R	     2	       mov cx,pos_lastx+14
 931D  8B 16 002A R	     2	       mov dx,pos_lasty
 9321  CD 10		     2	       int 10h
 9323  8B 0E 0028 R	     2	       mov cx,pos_lastx
 9327  8B 16 001C R	     2	       mov dx,pos_lasty-14
 932B  CD 10		     2	       int 10h
 932D  8B 0E 0028 R	     2	       mov cx,pos_lastx
 9331  8B 16 0038 R	     2	       mov dx,pos_lasty+14
 9335  CD 10		     2	       int 10h
 9337  5D		     2	       pop bp
 9338  5F		     2	       pop di
 9339  5E		     2	       pop si
 933A  5A		     2	       pop dx
 933B  59		     2	       pop cx
 933C  5B		     2	       pop bx
 933D  58		     2	       pop ax
 933E  50		     2	       push ax
 933F  53		     2	       push bx
 9340  51		     2	       push cx
 9341  52		     2	       push dx
 9342  56		     2	       push si
 9343  57		     2	       push di
 9344  55		     2	       push bp
 9345  B4 0C		     2	       mov ah,0ch
 9347  A0 0131 R	     2	       mov al,colo
 934A  B7 00		     2	       mov bh,0
 934C  8B 0E 0028 R	     2	       mov cx,pos_lastx
 9350  8B 16 002A R	     2	       mov dx,pos_lasty
 9354  BE 0000		     2	       mov si,0         ;X
 9357  BF 000D		     2	       mov di,13    ;Y
 935A  BD FFF4		     2	       mov bp,1-13
 935D			     2	??0498: 
 935D  3B F7		     2		   cmp si,di
 935F  7C 06		     2	       jl ??0499
 9361  8D 1E 93FA R	     2	       lea bx,??049E
 9365  FF E3		     2	       jmp bx
 9367			     2	??0499:
 9367  46		     2		   inc si
 9368			     2	??049A: 
 9368  83 FD 00		     2	       cmp bp,0
 936B  7D 09		     2	       jge ??049B
 936D  03 EE		     2	       add bp,si
 936F  03 EE		     2	       add bp,si
 9371  83 C5 01		     2	       add bp,1
 9374  EB 0C		     2	       jmp ??049C
 9376			     2	??049B: 
 9376  4F		     2		   dec di
 9377  03 EE		     2	       add bp,si
 9379  03 EE		     2	       add bp,si
 937B  2B EF		     2	       sub bp,di
 937D  2B EF		     2	       sub bp,di
 937F  83 C5 01		     2	       add bp,1
 9382			     2	??049C: 
 9382  B7 00		     2		   mov bh,0
 9384  8B 0E 0028 R	     2	       mov cx,pos_lastx
 9388  8B 16 002A R	     2	       mov dx,pos_lasty
 938C  03 CE		     2	       add cx,si
 938E  03 D7		     2	       add dx,di
 9390  CD 10		     2	       int 10h
 9392  8B 0E 0028 R	     2	       mov cx,pos_lastx
 9396  8B 16 002A R	     2	       mov dx,pos_lasty
 939A  2B CE		     2	       sub cx,si
 939C  03 D7		     2	       add dx,di
 939E  CD 10		     2	       int 10h
 93A0  8B 0E 0028 R	     2	       mov cx,pos_lastx
 93A4  8B 16 002A R	     2	       mov dx,pos_lasty
 93A8  03 CE		     2	       add cx,si
 93AA  2B D7		     2	       sub dx,di
 93AC  CD 10		     2	       int 10h
 93AE  8B 0E 0028 R	     2	       mov cx,pos_lastx
 93B2  8B 16 002A R	     2	       mov dx,pos_lasty
 93B6  2B CE		     2	       sub cx,si
 93B8  2B D7		     2	       sub dx,di
 93BA  CD 10		     2	       int 10h
 93BC  8B 0E 0028 R	     2	       mov cx,pos_lastx
 93C0  8B 16 002A R	     2	       mov dx,pos_lasty
 93C4  03 CF		     2	       add cx,di
 93C6  03 D6		     2	       add dx,si
 93C8  CD 10		     2	       int 10h
 93CA  8B 0E 0028 R	     2	       mov cx,pos_lastx
 93CE  8B 16 002A R	     2	       mov dx,pos_lasty
 93D2  2B CF		     2	       sub cx,di
 93D4  03 D6		     2	       add dx,si
 93D6  CD 10		     2	       int 10h
 93D8  8B 0E 0028 R	     2	       mov cx,pos_lastx
 93DC  8B 16 002A R	     2	       mov dx,pos_lasty
 93E0  03 CF		     2	       add cx,di
 93E2  2B D6		     2	       sub dx,si
 93E4  CD 10		     2	       int 10h
 93E6  8B 0E 0028 R	     2	       mov cx,pos_lastx
 93EA  8B 16 002A R	     2	       mov dx,pos_lasty
 93EE  2B CF		     2	       sub cx,di
 93F0  2B D6		     2	       sub dx,si
 93F2  CD 10		     2	       int 10h
 93F4			     2	??049D: 
 93F4  8D 1E 935D R	     2		   lea bx,??0498
 93F8  FF E3		     2	       jmp bx
 93FA			     2	??049E:
 93FA  B4 0C		     2	       mov ah,0ch
 93FC  A0 0131 R	     2	       mov al,colo
 93FF  B7 00		     2	       mov bh,0
 9401  8B 0E 001B R	     2	       mov cx,pos_lastx-13
 9405  8B 16 002A R	     2	       mov dx,pos_lasty
 9409  CD 10		     2	       int 10h
 940B  8B 0E 0035 R	     2	       mov cx,pos_lastx+13
 940F  8B 16 002A R	     2	       mov dx,pos_lasty
 9413  CD 10		     2	       int 10h
 9415  8B 0E 0028 R	     2	       mov cx,pos_lastx
 9419  8B 16 001D R	     2	       mov dx,pos_lasty-13
 941D  CD 10		     2	       int 10h
 941F  8B 0E 0028 R	     2	       mov cx,pos_lastx
 9423  8B 16 0037 R	     2	       mov dx,pos_lasty+13
 9427  CD 10		     2	       int 10h
 9429  5D		     2	       pop bp
 942A  5F		     2	       pop di
 942B  5E		     2	       pop si
 942C  5A		     2	       pop dx
 942D  59		     2	       pop cx
 942E  5B		     2	       pop bx
 942F  58		     2	       pop ax
 9430  50		     2	       push ax
 9431  53		     2	       push bx
 9432  51		     2	       push cx
 9433  52		     2	       push dx
 9434  56		     2	       push si
 9435  57		     2	       push di
 9436  55		     2	       push bp
 9437  B4 0C		     2	       mov ah,0ch
 9439  A0 0131 R	     2	       mov al,colo
 943C  B7 00		     2	       mov bh,0
 943E  8B 0E 0028 R	     2	       mov cx,pos_lastx
 9442  8B 16 002A R	     2	       mov dx,pos_lasty
 9446  BE 0000		     2	       mov si,0         ;X
 9449  BF 000C		     2	       mov di,12    ;Y
 944C  BD FFF5		     2	       mov bp,1-12
 944F			     2	??049F: 
 944F  3B F7		     2		   cmp si,di
 9451  7C 06		     2	       jl ??04A0
 9453  8D 1E 94EC R	     2	       lea bx,??04A5
 9457  FF E3		     2	       jmp bx
 9459			     2	??04A0:
 9459  46		     2		   inc si
 945A			     2	??04A1: 
 945A  83 FD 00		     2	       cmp bp,0
 945D  7D 09		     2	       jge ??04A2
 945F  03 EE		     2	       add bp,si
 9461  03 EE		     2	       add bp,si
 9463  83 C5 01		     2	       add bp,1
 9466  EB 0C		     2	       jmp ??04A3
 9468			     2	??04A2: 
 9468  4F		     2		   dec di
 9469  03 EE		     2	       add bp,si
 946B  03 EE		     2	       add bp,si
 946D  2B EF		     2	       sub bp,di
 946F  2B EF		     2	       sub bp,di
 9471  83 C5 01		     2	       add bp,1
 9474			     2	??04A3: 
 9474  B7 00		     2		   mov bh,0
 9476  8B 0E 0028 R	     2	       mov cx,pos_lastx
 947A  8B 16 002A R	     2	       mov dx,pos_lasty
 947E  03 CE		     2	       add cx,si
 9480  03 D7		     2	       add dx,di
 9482  CD 10		     2	       int 10h
 9484  8B 0E 0028 R	     2	       mov cx,pos_lastx
 9488  8B 16 002A R	     2	       mov dx,pos_lasty
 948C  2B CE		     2	       sub cx,si
 948E  03 D7		     2	       add dx,di
 9490  CD 10		     2	       int 10h
 9492  8B 0E 0028 R	     2	       mov cx,pos_lastx
 9496  8B 16 002A R	     2	       mov dx,pos_lasty
 949A  03 CE		     2	       add cx,si
 949C  2B D7		     2	       sub dx,di
 949E  CD 10		     2	       int 10h
 94A0  8B 0E 0028 R	     2	       mov cx,pos_lastx
 94A4  8B 16 002A R	     2	       mov dx,pos_lasty
 94A8  2B CE		     2	       sub cx,si
 94AA  2B D7		     2	       sub dx,di
 94AC  CD 10		     2	       int 10h
 94AE  8B 0E 0028 R	     2	       mov cx,pos_lastx
 94B2  8B 16 002A R	     2	       mov dx,pos_lasty
 94B6  03 CF		     2	       add cx,di
 94B8  03 D6		     2	       add dx,si
 94BA  CD 10		     2	       int 10h
 94BC  8B 0E 0028 R	     2	       mov cx,pos_lastx
 94C0  8B 16 002A R	     2	       mov dx,pos_lasty
 94C4  2B CF		     2	       sub cx,di
 94C6  03 D6		     2	       add dx,si
 94C8  CD 10		     2	       int 10h
 94CA  8B 0E 0028 R	     2	       mov cx,pos_lastx
 94CE  8B 16 002A R	     2	       mov dx,pos_lasty
 94D2  03 CF		     2	       add cx,di
 94D4  2B D6		     2	       sub dx,si
 94D6  CD 10		     2	       int 10h
 94D8  8B 0E 0028 R	     2	       mov cx,pos_lastx
 94DC  8B 16 002A R	     2	       mov dx,pos_lasty
 94E0  2B CF		     2	       sub cx,di
 94E2  2B D6		     2	       sub dx,si
 94E4  CD 10		     2	       int 10h
 94E6			     2	??04A4: 
 94E6  8D 1E 944F R	     2		   lea bx,??049F
 94EA  FF E3		     2	       jmp bx
 94EC			     2	??04A5:
 94EC  B4 0C		     2	       mov ah,0ch
 94EE  A0 0131 R	     2	       mov al,colo
 94F1  B7 00		     2	       mov bh,0
 94F3  8B 0E 001C R	     2	       mov cx,pos_lastx-12
 94F7  8B 16 002A R	     2	       mov dx,pos_lasty
 94FB  CD 10		     2	       int 10h
 94FD  8B 0E 0034 R	     2	       mov cx,pos_lastx+12
 9501  8B 16 002A R	     2	       mov dx,pos_lasty
 9505  CD 10		     2	       int 10h
 9507  8B 0E 0028 R	     2	       mov cx,pos_lastx
 950B  8B 16 001E R	     2	       mov dx,pos_lasty-12
 950F  CD 10		     2	       int 10h
 9511  8B 0E 0028 R	     2	       mov cx,pos_lastx
 9515  8B 16 0036 R	     2	       mov dx,pos_lasty+12
 9519  CD 10		     2	       int 10h
 951B  5D		     2	       pop bp
 951C  5F		     2	       pop di
 951D  5E		     2	       pop si
 951E  5A		     2	       pop dx
 951F  59		     2	       pop cx
 9520  5B		     2	       pop bx
 9521  58		     2	       pop ax
 9522  50		     2	       push ax
 9523  53		     2	       push bx
 9524  51		     2	       push cx
 9525  52		     2	       push dx
 9526  56		     2	       push si
 9527  57		     2	       push di
 9528  55		     2	       push bp
 9529  B4 0C		     2	       mov ah,0ch
 952B  A0 0131 R	     2	       mov al,colo
 952E  B7 00		     2	       mov bh,0
 9530  8B 0E 0028 R	     2	       mov cx,pos_lastx
 9534  8B 16 002A R	     2	       mov dx,pos_lasty
 9538  BE 0000		     2	       mov si,0         ;X
 953B  BF 000B		     2	       mov di,11    ;Y
 953E  BD FFF6		     2	       mov bp,1-11
 9541			     2	??04A6: 
 9541  3B F7		     2		   cmp si,di
 9543  7C 06		     2	       jl ??04A7
 9545  8D 1E 95DE R	     2	       lea bx,??04AC
 9549  FF E3		     2	       jmp bx
 954B			     2	??04A7:
 954B  46		     2		   inc si
 954C			     2	??04A8: 
 954C  83 FD 00		     2	       cmp bp,0
 954F  7D 09		     2	       jge ??04A9
 9551  03 EE		     2	       add bp,si
 9553  03 EE		     2	       add bp,si
 9555  83 C5 01		     2	       add bp,1
 9558  EB 0C		     2	       jmp ??04AA
 955A			     2	??04A9: 
 955A  4F		     2		   dec di
 955B  03 EE		     2	       add bp,si
 955D  03 EE		     2	       add bp,si
 955F  2B EF		     2	       sub bp,di
 9561  2B EF		     2	       sub bp,di
 9563  83 C5 01		     2	       add bp,1
 9566			     2	??04AA: 
 9566  B7 00		     2		   mov bh,0
 9568  8B 0E 0028 R	     2	       mov cx,pos_lastx
 956C  8B 16 002A R	     2	       mov dx,pos_lasty
 9570  03 CE		     2	       add cx,si
 9572  03 D7		     2	       add dx,di
 9574  CD 10		     2	       int 10h
 9576  8B 0E 0028 R	     2	       mov cx,pos_lastx
 957A  8B 16 002A R	     2	       mov dx,pos_lasty
 957E  2B CE		     2	       sub cx,si
 9580  03 D7		     2	       add dx,di
 9582  CD 10		     2	       int 10h
 9584  8B 0E 0028 R	     2	       mov cx,pos_lastx
 9588  8B 16 002A R	     2	       mov dx,pos_lasty
 958C  03 CE		     2	       add cx,si
 958E  2B D7		     2	       sub dx,di
 9590  CD 10		     2	       int 10h
 9592  8B 0E 0028 R	     2	       mov cx,pos_lastx
 9596  8B 16 002A R	     2	       mov dx,pos_lasty
 959A  2B CE		     2	       sub cx,si
 959C  2B D7		     2	       sub dx,di
 959E  CD 10		     2	       int 10h
 95A0  8B 0E 0028 R	     2	       mov cx,pos_lastx
 95A4  8B 16 002A R	     2	       mov dx,pos_lasty
 95A8  03 CF		     2	       add cx,di
 95AA  03 D6		     2	       add dx,si
 95AC  CD 10		     2	       int 10h
 95AE  8B 0E 0028 R	     2	       mov cx,pos_lastx
 95B2  8B 16 002A R	     2	       mov dx,pos_lasty
 95B6  2B CF		     2	       sub cx,di
 95B8  03 D6		     2	       add dx,si
 95BA  CD 10		     2	       int 10h
 95BC  8B 0E 0028 R	     2	       mov cx,pos_lastx
 95C0  8B 16 002A R	     2	       mov dx,pos_lasty
 95C4  03 CF		     2	       add cx,di
 95C6  2B D6		     2	       sub dx,si
 95C8  CD 10		     2	       int 10h
 95CA  8B 0E 0028 R	     2	       mov cx,pos_lastx
 95CE  8B 16 002A R	     2	       mov dx,pos_lasty
 95D2  2B CF		     2	       sub cx,di
 95D4  2B D6		     2	       sub dx,si
 95D6  CD 10		     2	       int 10h
 95D8			     2	??04AB: 
 95D8  8D 1E 9541 R	     2		   lea bx,??04A6
 95DC  FF E3		     2	       jmp bx
 95DE			     2	??04AC:
 95DE  B4 0C		     2	       mov ah,0ch
 95E0  A0 0131 R	     2	       mov al,colo
 95E3  B7 00		     2	       mov bh,0
 95E5  8B 0E 001D R	     2	       mov cx,pos_lastx-11
 95E9  8B 16 002A R	     2	       mov dx,pos_lasty
 95ED  CD 10		     2	       int 10h
 95EF  8B 0E 0033 R	     2	       mov cx,pos_lastx+11
 95F3  8B 16 002A R	     2	       mov dx,pos_lasty
 95F7  CD 10		     2	       int 10h
 95F9  8B 0E 0028 R	     2	       mov cx,pos_lastx
 95FD  8B 16 001F R	     2	       mov dx,pos_lasty-11
 9601  CD 10		     2	       int 10h
 9603  8B 0E 0028 R	     2	       mov cx,pos_lastx
 9607  8B 16 0035 R	     2	       mov dx,pos_lasty+11
 960B  CD 10		     2	       int 10h
 960D  5D		     2	       pop bp
 960E  5F		     2	       pop di
 960F  5E		     2	       pop si
 9610  5A		     2	       pop dx
 9611  59		     2	       pop cx
 9612  5B		     2	       pop bx
 9613  58		     2	       pop ax
 9614  50		     2	       push ax
 9615  53		     2	       push bx
 9616  51		     2	       push cx
 9617  52		     2	       push dx
 9618  56		     2	       push si
 9619  57		     2	       push di
 961A  55		     2	       push bp
 961B  B4 0C		     2	       mov ah,0ch
 961D  A0 0131 R	     2	       mov al,colo
 9620  B7 00		     2	       mov bh,0
 9622  8B 0E 0028 R	     2	       mov cx,pos_lastx
 9626  8B 16 002A R	     2	       mov dx,pos_lasty
 962A  BE 0000		     2	       mov si,0         ;X
 962D  BF 000A		     2	       mov di,10    ;Y
 9630  BD FFF7		     2	       mov bp,1-10
 9633			     2	??04AD: 
 9633  3B F7		     2		   cmp si,di
 9635  7C 06		     2	       jl ??04AE
 9637  8D 1E 96D0 R	     2	       lea bx,??04B3
 963B  FF E3		     2	       jmp bx
 963D			     2	??04AE:
 963D  46		     2		   inc si
 963E			     2	??04AF: 
 963E  83 FD 00		     2	       cmp bp,0
 9641  7D 09		     2	       jge ??04B0
 9643  03 EE		     2	       add bp,si
 9645  03 EE		     2	       add bp,si
 9647  83 C5 01		     2	       add bp,1
 964A  EB 0C		     2	       jmp ??04B1
 964C			     2	??04B0: 
 964C  4F		     2		   dec di
 964D  03 EE		     2	       add bp,si
 964F  03 EE		     2	       add bp,si
 9651  2B EF		     2	       sub bp,di
 9653  2B EF		     2	       sub bp,di
 9655  83 C5 01		     2	       add bp,1
 9658			     2	??04B1: 
 9658  B7 00		     2		   mov bh,0
 965A  8B 0E 0028 R	     2	       mov cx,pos_lastx
 965E  8B 16 002A R	     2	       mov dx,pos_lasty
 9662  03 CE		     2	       add cx,si
 9664  03 D7		     2	       add dx,di
 9666  CD 10		     2	       int 10h
 9668  8B 0E 0028 R	     2	       mov cx,pos_lastx
 966C  8B 16 002A R	     2	       mov dx,pos_lasty
 9670  2B CE		     2	       sub cx,si
 9672  03 D7		     2	       add dx,di
 9674  CD 10		     2	       int 10h
 9676  8B 0E 0028 R	     2	       mov cx,pos_lastx
 967A  8B 16 002A R	     2	       mov dx,pos_lasty
 967E  03 CE		     2	       add cx,si
 9680  2B D7		     2	       sub dx,di
 9682  CD 10		     2	       int 10h
 9684  8B 0E 0028 R	     2	       mov cx,pos_lastx
 9688  8B 16 002A R	     2	       mov dx,pos_lasty
 968C  2B CE		     2	       sub cx,si
 968E  2B D7		     2	       sub dx,di
 9690  CD 10		     2	       int 10h
 9692  8B 0E 0028 R	     2	       mov cx,pos_lastx
 9696  8B 16 002A R	     2	       mov dx,pos_lasty
 969A  03 CF		     2	       add cx,di
 969C  03 D6		     2	       add dx,si
 969E  CD 10		     2	       int 10h
 96A0  8B 0E 0028 R	     2	       mov cx,pos_lastx
 96A4  8B 16 002A R	     2	       mov dx,pos_lasty
 96A8  2B CF		     2	       sub cx,di
 96AA  03 D6		     2	       add dx,si
 96AC  CD 10		     2	       int 10h
 96AE  8B 0E 0028 R	     2	       mov cx,pos_lastx
 96B2  8B 16 002A R	     2	       mov dx,pos_lasty
 96B6  03 CF		     2	       add cx,di
 96B8  2B D6		     2	       sub dx,si
 96BA  CD 10		     2	       int 10h
 96BC  8B 0E 0028 R	     2	       mov cx,pos_lastx
 96C0  8B 16 002A R	     2	       mov dx,pos_lasty
 96C4  2B CF		     2	       sub cx,di
 96C6  2B D6		     2	       sub dx,si
 96C8  CD 10		     2	       int 10h
 96CA			     2	??04B2: 
 96CA  8D 1E 9633 R	     2		   lea bx,??04AD
 96CE  FF E3		     2	       jmp bx
 96D0			     2	??04B3:
 96D0  B4 0C		     2	       mov ah,0ch
 96D2  A0 0131 R	     2	       mov al,colo
 96D5  B7 00		     2	       mov bh,0
 96D7  8B 0E 001E R	     2	       mov cx,pos_lastx-10
 96DB  8B 16 002A R	     2	       mov dx,pos_lasty
 96DF  CD 10		     2	       int 10h
 96E1  8B 0E 0032 R	     2	       mov cx,pos_lastx+10
 96E5  8B 16 002A R	     2	       mov dx,pos_lasty
 96E9  CD 10		     2	       int 10h
 96EB  8B 0E 0028 R	     2	       mov cx,pos_lastx
 96EF  8B 16 0020 R	     2	       mov dx,pos_lasty-10
 96F3  CD 10		     2	       int 10h
 96F5  8B 0E 0028 R	     2	       mov cx,pos_lastx
 96F9  8B 16 0034 R	     2	       mov dx,pos_lasty+10
 96FD  CD 10		     2	       int 10h
 96FF  5D		     2	       pop bp
 9700  5F		     2	       pop di
 9701  5E		     2	       pop si
 9702  5A		     2	       pop dx
 9703  59		     2	       pop cx
 9704  5B		     2	       pop bx
 9705  58		     2	       pop ax
 9706  50		     2	       push ax
 9707  53		     2	       push bx
 9708  51		     2	       push cx
 9709  52		     2	       push dx
 970A  56		     2	       push si
 970B  57		     2	       push di
 970C  55		     2	       push bp
 970D  B4 0C		     2	       mov ah,0ch
 970F  A0 0131 R	     2	       mov al,colo
 9712  B7 00		     2	       mov bh,0
 9714  8B 0E 0028 R	     2	       mov cx,pos_lastx
 9718  8B 16 002A R	     2	       mov dx,pos_lasty
 971C  BE 0000		     2	       mov si,0         ;X
 971F  BF 0009		     2	       mov di,09    ;Y
 9722  BD FFF8		     2	       mov bp,1-09
 9725			     2	??04B4: 
 9725  3B F7		     2		   cmp si,di
 9727  7C 06		     2	       jl ??04B5
 9729  8D 1E 97C2 R	     2	       lea bx,??04BA
 972D  FF E3		     2	       jmp bx
 972F			     2	??04B5:
 972F  46		     2		   inc si
 9730			     2	??04B6: 
 9730  83 FD 00		     2	       cmp bp,0
 9733  7D 09		     2	       jge ??04B7
 9735  03 EE		     2	       add bp,si
 9737  03 EE		     2	       add bp,si
 9739  83 C5 01		     2	       add bp,1
 973C  EB 0C		     2	       jmp ??04B8
 973E			     2	??04B7: 
 973E  4F		     2		   dec di
 973F  03 EE		     2	       add bp,si
 9741  03 EE		     2	       add bp,si
 9743  2B EF		     2	       sub bp,di
 9745  2B EF		     2	       sub bp,di
 9747  83 C5 01		     2	       add bp,1
 974A			     2	??04B8: 
 974A  B7 00		     2		   mov bh,0
 974C  8B 0E 0028 R	     2	       mov cx,pos_lastx
 9750  8B 16 002A R	     2	       mov dx,pos_lasty
 9754  03 CE		     2	       add cx,si
 9756  03 D7		     2	       add dx,di
 9758  CD 10		     2	       int 10h
 975A  8B 0E 0028 R	     2	       mov cx,pos_lastx
 975E  8B 16 002A R	     2	       mov dx,pos_lasty
 9762  2B CE		     2	       sub cx,si
 9764  03 D7		     2	       add dx,di
 9766  CD 10		     2	       int 10h
 9768  8B 0E 0028 R	     2	       mov cx,pos_lastx
 976C  8B 16 002A R	     2	       mov dx,pos_lasty
 9770  03 CE		     2	       add cx,si
 9772  2B D7		     2	       sub dx,di
 9774  CD 10		     2	       int 10h
 9776  8B 0E 0028 R	     2	       mov cx,pos_lastx
 977A  8B 16 002A R	     2	       mov dx,pos_lasty
 977E  2B CE		     2	       sub cx,si
 9780  2B D7		     2	       sub dx,di
 9782  CD 10		     2	       int 10h
 9784  8B 0E 0028 R	     2	       mov cx,pos_lastx
 9788  8B 16 002A R	     2	       mov dx,pos_lasty
 978C  03 CF		     2	       add cx,di
 978E  03 D6		     2	       add dx,si
 9790  CD 10		     2	       int 10h
 9792  8B 0E 0028 R	     2	       mov cx,pos_lastx
 9796  8B 16 002A R	     2	       mov dx,pos_lasty
 979A  2B CF		     2	       sub cx,di
 979C  03 D6		     2	       add dx,si
 979E  CD 10		     2	       int 10h
 97A0  8B 0E 0028 R	     2	       mov cx,pos_lastx
 97A4  8B 16 002A R	     2	       mov dx,pos_lasty
 97A8  03 CF		     2	       add cx,di
 97AA  2B D6		     2	       sub dx,si
 97AC  CD 10		     2	       int 10h
 97AE  8B 0E 0028 R	     2	       mov cx,pos_lastx
 97B2  8B 16 002A R	     2	       mov dx,pos_lasty
 97B6  2B CF		     2	       sub cx,di
 97B8  2B D6		     2	       sub dx,si
 97BA  CD 10		     2	       int 10h
 97BC			     2	??04B9: 
 97BC  8D 1E 9725 R	     2		   lea bx,??04B4
 97C0  FF E3		     2	       jmp bx
 97C2			     2	??04BA:
 97C2  B4 0C		     2	       mov ah,0ch
 97C4  A0 0131 R	     2	       mov al,colo
 97C7  B7 00		     2	       mov bh,0
 97C9  8B 0E 001F R	     2	       mov cx,pos_lastx-09
 97CD  8B 16 002A R	     2	       mov dx,pos_lasty
 97D1  CD 10		     2	       int 10h
 97D3  8B 0E 0031 R	     2	       mov cx,pos_lastx+09
 97D7  8B 16 002A R	     2	       mov dx,pos_lasty
 97DB  CD 10		     2	       int 10h
 97DD  8B 0E 0028 R	     2	       mov cx,pos_lastx
 97E1  8B 16 0021 R	     2	       mov dx,pos_lasty-09
 97E5  CD 10		     2	       int 10h
 97E7  8B 0E 0028 R	     2	       mov cx,pos_lastx
 97EB  8B 16 0033 R	     2	       mov dx,pos_lasty+09
 97EF  CD 10		     2	       int 10h
 97F1  5D		     2	       pop bp
 97F2  5F		     2	       pop di
 97F3  5E		     2	       pop si
 97F4  5A		     2	       pop dx
 97F5  59		     2	       pop cx
 97F6  5B		     2	       pop bx
 97F7  58		     2	       pop ax
 97F8  50		     2	       push ax
 97F9  53		     2	       push bx
 97FA  51		     2	       push cx
 97FB  52		     2	       push dx
 97FC  56		     2	       push si
 97FD  57		     2	       push di
 97FE  55		     2	       push bp
 97FF  B4 0C		     2	       mov ah,0ch
 9801  A0 0131 R	     2	       mov al,colo
 9804  B7 00		     2	       mov bh,0
 9806  8B 0E 0028 R	     2	       mov cx,pos_lastx
 980A  8B 16 002A R	     2	       mov dx,pos_lasty
 980E  BE 0000		     2	       mov si,0         ;X
 9811  BF 0008		     2	       mov di,08    ;Y
 9814  BD FFF9		     2	       mov bp,1-08
 9817			     2	??04BB: 
 9817  3B F7		     2		   cmp si,di
 9819  7C 06		     2	       jl ??04BC
 981B  8D 1E 98B4 R	     2	       lea bx,??04C1
 981F  FF E3		     2	       jmp bx
 9821			     2	??04BC:
 9821  46		     2		   inc si
 9822			     2	??04BD: 
 9822  83 FD 00		     2	       cmp bp,0
 9825  7D 09		     2	       jge ??04BE
 9827  03 EE		     2	       add bp,si
 9829  03 EE		     2	       add bp,si
 982B  83 C5 01		     2	       add bp,1
 982E  EB 0C		     2	       jmp ??04BF
 9830			     2	??04BE: 
 9830  4F		     2		   dec di
 9831  03 EE		     2	       add bp,si
 9833  03 EE		     2	       add bp,si
 9835  2B EF		     2	       sub bp,di
 9837  2B EF		     2	       sub bp,di
 9839  83 C5 01		     2	       add bp,1
 983C			     2	??04BF: 
 983C  B7 00		     2		   mov bh,0
 983E  8B 0E 0028 R	     2	       mov cx,pos_lastx
 9842  8B 16 002A R	     2	       mov dx,pos_lasty
 9846  03 CE		     2	       add cx,si
 9848  03 D7		     2	       add dx,di
 984A  CD 10		     2	       int 10h
 984C  8B 0E 0028 R	     2	       mov cx,pos_lastx
 9850  8B 16 002A R	     2	       mov dx,pos_lasty
 9854  2B CE		     2	       sub cx,si
 9856  03 D7		     2	       add dx,di
 9858  CD 10		     2	       int 10h
 985A  8B 0E 0028 R	     2	       mov cx,pos_lastx
 985E  8B 16 002A R	     2	       mov dx,pos_lasty
 9862  03 CE		     2	       add cx,si
 9864  2B D7		     2	       sub dx,di
 9866  CD 10		     2	       int 10h
 9868  8B 0E 0028 R	     2	       mov cx,pos_lastx
 986C  8B 16 002A R	     2	       mov dx,pos_lasty
 9870  2B CE		     2	       sub cx,si
 9872  2B D7		     2	       sub dx,di
 9874  CD 10		     2	       int 10h
 9876  8B 0E 0028 R	     2	       mov cx,pos_lastx
 987A  8B 16 002A R	     2	       mov dx,pos_lasty
 987E  03 CF		     2	       add cx,di
 9880  03 D6		     2	       add dx,si
 9882  CD 10		     2	       int 10h
 9884  8B 0E 0028 R	     2	       mov cx,pos_lastx
 9888  8B 16 002A R	     2	       mov dx,pos_lasty
 988C  2B CF		     2	       sub cx,di
 988E  03 D6		     2	       add dx,si
 9890  CD 10		     2	       int 10h
 9892  8B 0E 0028 R	     2	       mov cx,pos_lastx
 9896  8B 16 002A R	     2	       mov dx,pos_lasty
 989A  03 CF		     2	       add cx,di
 989C  2B D6		     2	       sub dx,si
 989E  CD 10		     2	       int 10h
 98A0  8B 0E 0028 R	     2	       mov cx,pos_lastx
 98A4  8B 16 002A R	     2	       mov dx,pos_lasty
 98A8  2B CF		     2	       sub cx,di
 98AA  2B D6		     2	       sub dx,si
 98AC  CD 10		     2	       int 10h
 98AE			     2	??04C0: 
 98AE  8D 1E 9817 R	     2		   lea bx,??04BB
 98B2  FF E3		     2	       jmp bx
 98B4			     2	??04C1:
 98B4  B4 0C		     2	       mov ah,0ch
 98B6  A0 0131 R	     2	       mov al,colo
 98B9  B7 00		     2	       mov bh,0
 98BB  8B 0E 0020 R	     2	       mov cx,pos_lastx-08
 98BF  8B 16 002A R	     2	       mov dx,pos_lasty
 98C3  CD 10		     2	       int 10h
 98C5  8B 0E 0030 R	     2	       mov cx,pos_lastx+08
 98C9  8B 16 002A R	     2	       mov dx,pos_lasty
 98CD  CD 10		     2	       int 10h
 98CF  8B 0E 0028 R	     2	       mov cx,pos_lastx
 98D3  8B 16 0022 R	     2	       mov dx,pos_lasty-08
 98D7  CD 10		     2	       int 10h
 98D9  8B 0E 0028 R	     2	       mov cx,pos_lastx
 98DD  8B 16 0032 R	     2	       mov dx,pos_lasty+08
 98E1  CD 10		     2	       int 10h
 98E3  5D		     2	       pop bp
 98E4  5F		     2	       pop di
 98E5  5E		     2	       pop si
 98E6  5A		     2	       pop dx
 98E7  59		     2	       pop cx
 98E8  5B		     2	       pop bx
 98E9  58		     2	       pop ax
 98EA  50		     2	       push ax
 98EB  53		     2	       push bx
 98EC  51		     2	       push cx
 98ED  52		     2	       push dx
 98EE  56		     2	       push si
 98EF  57		     2	       push di
 98F0  55		     2	       push bp
 98F1  B4 0C		     2	       mov ah,0ch
 98F3  A0 0131 R	     2	       mov al,colo
 98F6  B7 00		     2	       mov bh,0
 98F8  8B 0E 0028 R	     2	       mov cx,pos_lastx
 98FC  8B 16 002A R	     2	       mov dx,pos_lasty
 9900  BE 0000		     2	       mov si,0         ;X
 9903  BF 0007		     2	       mov di,07    ;Y
 9906  BD FFFA		     2	       mov bp,1-07
 9909			     2	??04C2: 
 9909  3B F7		     2		   cmp si,di
 990B  7C 06		     2	       jl ??04C3
 990D  8D 1E 99A6 R	     2	       lea bx,??04C8
 9911  FF E3		     2	       jmp bx
 9913			     2	??04C3:
 9913  46		     2		   inc si
 9914			     2	??04C4: 
 9914  83 FD 00		     2	       cmp bp,0
 9917  7D 09		     2	       jge ??04C5
 9919  03 EE		     2	       add bp,si
 991B  03 EE		     2	       add bp,si
 991D  83 C5 01		     2	       add bp,1
 9920  EB 0C		     2	       jmp ??04C6
 9922			     2	??04C5: 
 9922  4F		     2		   dec di
 9923  03 EE		     2	       add bp,si
 9925  03 EE		     2	       add bp,si
 9927  2B EF		     2	       sub bp,di
 9929  2B EF		     2	       sub bp,di
 992B  83 C5 01		     2	       add bp,1
 992E			     2	??04C6: 
 992E  B7 00		     2		   mov bh,0
 9930  8B 0E 0028 R	     2	       mov cx,pos_lastx
 9934  8B 16 002A R	     2	       mov dx,pos_lasty
 9938  03 CE		     2	       add cx,si
 993A  03 D7		     2	       add dx,di
 993C  CD 10		     2	       int 10h
 993E  8B 0E 0028 R	     2	       mov cx,pos_lastx
 9942  8B 16 002A R	     2	       mov dx,pos_lasty
 9946  2B CE		     2	       sub cx,si
 9948  03 D7		     2	       add dx,di
 994A  CD 10		     2	       int 10h
 994C  8B 0E 0028 R	     2	       mov cx,pos_lastx
 9950  8B 16 002A R	     2	       mov dx,pos_lasty
 9954  03 CE		     2	       add cx,si
 9956  2B D7		     2	       sub dx,di
 9958  CD 10		     2	       int 10h
 995A  8B 0E 0028 R	     2	       mov cx,pos_lastx
 995E  8B 16 002A R	     2	       mov dx,pos_lasty
 9962  2B CE		     2	       sub cx,si
 9964  2B D7		     2	       sub dx,di
 9966  CD 10		     2	       int 10h
 9968  8B 0E 0028 R	     2	       mov cx,pos_lastx
 996C  8B 16 002A R	     2	       mov dx,pos_lasty
 9970  03 CF		     2	       add cx,di
 9972  03 D6		     2	       add dx,si
 9974  CD 10		     2	       int 10h
 9976  8B 0E 0028 R	     2	       mov cx,pos_lastx
 997A  8B 16 002A R	     2	       mov dx,pos_lasty
 997E  2B CF		     2	       sub cx,di
 9980  03 D6		     2	       add dx,si
 9982  CD 10		     2	       int 10h
 9984  8B 0E 0028 R	     2	       mov cx,pos_lastx
 9988  8B 16 002A R	     2	       mov dx,pos_lasty
 998C  03 CF		     2	       add cx,di
 998E  2B D6		     2	       sub dx,si
 9990  CD 10		     2	       int 10h
 9992  8B 0E 0028 R	     2	       mov cx,pos_lastx
 9996  8B 16 002A R	     2	       mov dx,pos_lasty
 999A  2B CF		     2	       sub cx,di
 999C  2B D6		     2	       sub dx,si
 999E  CD 10		     2	       int 10h
 99A0			     2	??04C7: 
 99A0  8D 1E 9909 R	     2		   lea bx,??04C2
 99A4  FF E3		     2	       jmp bx
 99A6			     2	??04C8:
 99A6  B4 0C		     2	       mov ah,0ch
 99A8  A0 0131 R	     2	       mov al,colo
 99AB  B7 00		     2	       mov bh,0
 99AD  8B 0E 0021 R	     2	       mov cx,pos_lastx-07
 99B1  8B 16 002A R	     2	       mov dx,pos_lasty
 99B5  CD 10		     2	       int 10h
 99B7  8B 0E 002F R	     2	       mov cx,pos_lastx+07
 99BB  8B 16 002A R	     2	       mov dx,pos_lasty
 99BF  CD 10		     2	       int 10h
 99C1  8B 0E 0028 R	     2	       mov cx,pos_lastx
 99C5  8B 16 0023 R	     2	       mov dx,pos_lasty-07
 99C9  CD 10		     2	       int 10h
 99CB  8B 0E 0028 R	     2	       mov cx,pos_lastx
 99CF  8B 16 0031 R	     2	       mov dx,pos_lasty+07
 99D3  CD 10		     2	       int 10h
 99D5  5D		     2	       pop bp
 99D6  5F		     2	       pop di
 99D7  5E		     2	       pop si
 99D8  5A		     2	       pop dx
 99D9  59		     2	       pop cx
 99DA  5B		     2	       pop bx
 99DB  58		     2	       pop ax
 99DC  50		     2	       push ax
 99DD  53		     2	       push bx
 99DE  51		     2	       push cx
 99DF  52		     2	       push dx
 99E0  56		     2	       push si
 99E1  57		     2	       push di
 99E2  55		     2	       push bp
 99E3  B4 0C		     2	       mov ah,0ch
 99E5  A0 0131 R	     2	       mov al,colo
 99E8  B7 00		     2	       mov bh,0
 99EA  8B 0E 0028 R	     2	       mov cx,pos_lastx
 99EE  8B 16 002A R	     2	       mov dx,pos_lasty
 99F2  BE 0000		     2	       mov si,0         ;X
 99F5  BF 0006		     2	       mov di,06    ;Y
 99F8  BD FFFB		     2	       mov bp,1-06
 99FB			     2	??04C9: 
 99FB  3B F7		     2		   cmp si,di
 99FD  7C 06		     2	       jl ??04CA
 99FF  8D 1E 9A98 R	     2	       lea bx,??04CF
 9A03  FF E3		     2	       jmp bx
 9A05			     2	??04CA:
 9A05  46		     2		   inc si
 9A06			     2	??04CB: 
 9A06  83 FD 00		     2	       cmp bp,0
 9A09  7D 09		     2	       jge ??04CC
 9A0B  03 EE		     2	       add bp,si
 9A0D  03 EE		     2	       add bp,si
 9A0F  83 C5 01		     2	       add bp,1
 9A12  EB 0C		     2	       jmp ??04CD
 9A14			     2	??04CC: 
 9A14  4F		     2		   dec di
 9A15  03 EE		     2	       add bp,si
 9A17  03 EE		     2	       add bp,si
 9A19  2B EF		     2	       sub bp,di
 9A1B  2B EF		     2	       sub bp,di
 9A1D  83 C5 01		     2	       add bp,1
 9A20			     2	??04CD: 
 9A20  B7 00		     2		   mov bh,0
 9A22  8B 0E 0028 R	     2	       mov cx,pos_lastx
 9A26  8B 16 002A R	     2	       mov dx,pos_lasty
 9A2A  03 CE		     2	       add cx,si
 9A2C  03 D7		     2	       add dx,di
 9A2E  CD 10		     2	       int 10h
 9A30  8B 0E 0028 R	     2	       mov cx,pos_lastx
 9A34  8B 16 002A R	     2	       mov dx,pos_lasty
 9A38  2B CE		     2	       sub cx,si
 9A3A  03 D7		     2	       add dx,di
 9A3C  CD 10		     2	       int 10h
 9A3E  8B 0E 0028 R	     2	       mov cx,pos_lastx
 9A42  8B 16 002A R	     2	       mov dx,pos_lasty
 9A46  03 CE		     2	       add cx,si
 9A48  2B D7		     2	       sub dx,di
 9A4A  CD 10		     2	       int 10h
 9A4C  8B 0E 0028 R	     2	       mov cx,pos_lastx
 9A50  8B 16 002A R	     2	       mov dx,pos_lasty
 9A54  2B CE		     2	       sub cx,si
 9A56  2B D7		     2	       sub dx,di
 9A58  CD 10		     2	       int 10h
 9A5A  8B 0E 0028 R	     2	       mov cx,pos_lastx
 9A5E  8B 16 002A R	     2	       mov dx,pos_lasty
 9A62  03 CF		     2	       add cx,di
 9A64  03 D6		     2	       add dx,si
 9A66  CD 10		     2	       int 10h
 9A68  8B 0E 0028 R	     2	       mov cx,pos_lastx
 9A6C  8B 16 002A R	     2	       mov dx,pos_lasty
 9A70  2B CF		     2	       sub cx,di
 9A72  03 D6		     2	       add dx,si
 9A74  CD 10		     2	       int 10h
 9A76  8B 0E 0028 R	     2	       mov cx,pos_lastx
 9A7A  8B 16 002A R	     2	       mov dx,pos_lasty
 9A7E  03 CF		     2	       add cx,di
 9A80  2B D6		     2	       sub dx,si
 9A82  CD 10		     2	       int 10h
 9A84  8B 0E 0028 R	     2	       mov cx,pos_lastx
 9A88  8B 16 002A R	     2	       mov dx,pos_lasty
 9A8C  2B CF		     2	       sub cx,di
 9A8E  2B D6		     2	       sub dx,si
 9A90  CD 10		     2	       int 10h
 9A92			     2	??04CE: 
 9A92  8D 1E 99FB R	     2		   lea bx,??04C9
 9A96  FF E3		     2	       jmp bx
 9A98			     2	??04CF:
 9A98  B4 0C		     2	       mov ah,0ch
 9A9A  A0 0131 R	     2	       mov al,colo
 9A9D  B7 00		     2	       mov bh,0
 9A9F  8B 0E 0022 R	     2	       mov cx,pos_lastx-06
 9AA3  8B 16 002A R	     2	       mov dx,pos_lasty
 9AA7  CD 10		     2	       int 10h
 9AA9  8B 0E 002E R	     2	       mov cx,pos_lastx+06
 9AAD  8B 16 002A R	     2	       mov dx,pos_lasty
 9AB1  CD 10		     2	       int 10h
 9AB3  8B 0E 0028 R	     2	       mov cx,pos_lastx
 9AB7  8B 16 0024 R	     2	       mov dx,pos_lasty-06
 9ABB  CD 10		     2	       int 10h
 9ABD  8B 0E 0028 R	     2	       mov cx,pos_lastx
 9AC1  8B 16 0030 R	     2	       mov dx,pos_lasty+06
 9AC5  CD 10		     2	       int 10h
 9AC7  5D		     2	       pop bp
 9AC8  5F		     2	       pop di
 9AC9  5E		     2	       pop si
 9ACA  5A		     2	       pop dx
 9ACB  59		     2	       pop cx
 9ACC  5B		     2	       pop bx
 9ACD  58		     2	       pop ax
 9ACE  50		     2	       push ax
 9ACF  53		     2	       push bx
 9AD0  51		     2	       push cx
 9AD1  52		     2	       push dx
 9AD2  56		     2	       push si
 9AD3  57		     2	       push di
 9AD4  55		     2	       push bp
 9AD5  B4 0C		     2	       mov ah,0ch
 9AD7  A0 0131 R	     2	       mov al,colo
 9ADA  B7 00		     2	       mov bh,0
 9ADC  8B 0E 0028 R	     2	       mov cx,pos_lastx
 9AE0  8B 16 002A R	     2	       mov dx,pos_lasty
 9AE4  BE 0000		     2	       mov si,0         ;X
 9AE7  BF 0005		     2	       mov di,05    ;Y
 9AEA  BD FFFC		     2	       mov bp,1-05
 9AED			     2	??04D0: 
 9AED  3B F7		     2		   cmp si,di
 9AEF  7C 06		     2	       jl ??04D1
 9AF1  8D 1E 9B8A R	     2	       lea bx,??04D6
 9AF5  FF E3		     2	       jmp bx
 9AF7			     2	??04D1:
 9AF7  46		     2		   inc si
 9AF8			     2	??04D2: 
 9AF8  83 FD 00		     2	       cmp bp,0
 9AFB  7D 09		     2	       jge ??04D3
 9AFD  03 EE		     2	       add bp,si
 9AFF  03 EE		     2	       add bp,si
 9B01  83 C5 01		     2	       add bp,1
 9B04  EB 0C		     2	       jmp ??04D4
 9B06			     2	??04D3: 
 9B06  4F		     2		   dec di
 9B07  03 EE		     2	       add bp,si
 9B09  03 EE		     2	       add bp,si
 9B0B  2B EF		     2	       sub bp,di
 9B0D  2B EF		     2	       sub bp,di
 9B0F  83 C5 01		     2	       add bp,1
 9B12			     2	??04D4: 
 9B12  B7 00		     2		   mov bh,0
 9B14  8B 0E 0028 R	     2	       mov cx,pos_lastx
 9B18  8B 16 002A R	     2	       mov dx,pos_lasty
 9B1C  03 CE		     2	       add cx,si
 9B1E  03 D7		     2	       add dx,di
 9B20  CD 10		     2	       int 10h
 9B22  8B 0E 0028 R	     2	       mov cx,pos_lastx
 9B26  8B 16 002A R	     2	       mov dx,pos_lasty
 9B2A  2B CE		     2	       sub cx,si
 9B2C  03 D7		     2	       add dx,di
 9B2E  CD 10		     2	       int 10h
 9B30  8B 0E 0028 R	     2	       mov cx,pos_lastx
 9B34  8B 16 002A R	     2	       mov dx,pos_lasty
 9B38  03 CE		     2	       add cx,si
 9B3A  2B D7		     2	       sub dx,di
 9B3C  CD 10		     2	       int 10h
 9B3E  8B 0E 0028 R	     2	       mov cx,pos_lastx
 9B42  8B 16 002A R	     2	       mov dx,pos_lasty
 9B46  2B CE		     2	       sub cx,si
 9B48  2B D7		     2	       sub dx,di
 9B4A  CD 10		     2	       int 10h
 9B4C  8B 0E 0028 R	     2	       mov cx,pos_lastx
 9B50  8B 16 002A R	     2	       mov dx,pos_lasty
 9B54  03 CF		     2	       add cx,di
 9B56  03 D6		     2	       add dx,si
 9B58  CD 10		     2	       int 10h
 9B5A  8B 0E 0028 R	     2	       mov cx,pos_lastx
 9B5E  8B 16 002A R	     2	       mov dx,pos_lasty
 9B62  2B CF		     2	       sub cx,di
 9B64  03 D6		     2	       add dx,si
 9B66  CD 10		     2	       int 10h
 9B68  8B 0E 0028 R	     2	       mov cx,pos_lastx
 9B6C  8B 16 002A R	     2	       mov dx,pos_lasty
 9B70  03 CF		     2	       add cx,di
 9B72  2B D6		     2	       sub dx,si
 9B74  CD 10		     2	       int 10h
 9B76  8B 0E 0028 R	     2	       mov cx,pos_lastx
 9B7A  8B 16 002A R	     2	       mov dx,pos_lasty
 9B7E  2B CF		     2	       sub cx,di
 9B80  2B D6		     2	       sub dx,si
 9B82  CD 10		     2	       int 10h
 9B84			     2	??04D5: 
 9B84  8D 1E 9AED R	     2		   lea bx,??04D0
 9B88  FF E3		     2	       jmp bx
 9B8A			     2	??04D6:
 9B8A  B4 0C		     2	       mov ah,0ch
 9B8C  A0 0131 R	     2	       mov al,colo
 9B8F  B7 00		     2	       mov bh,0
 9B91  8B 0E 0023 R	     2	       mov cx,pos_lastx-05
 9B95  8B 16 002A R	     2	       mov dx,pos_lasty
 9B99  CD 10		     2	       int 10h
 9B9B  8B 0E 002D R	     2	       mov cx,pos_lastx+05
 9B9F  8B 16 002A R	     2	       mov dx,pos_lasty
 9BA3  CD 10		     2	       int 10h
 9BA5  8B 0E 0028 R	     2	       mov cx,pos_lastx
 9BA9  8B 16 0025 R	     2	       mov dx,pos_lasty-05
 9BAD  CD 10		     2	       int 10h
 9BAF  8B 0E 0028 R	     2	       mov cx,pos_lastx
 9BB3  8B 16 002F R	     2	       mov dx,pos_lasty+05
 9BB7  CD 10		     2	       int 10h
 9BB9  5D		     2	       pop bp
 9BBA  5F		     2	       pop di
 9BBB  5E		     2	       pop si
 9BBC  5A		     2	       pop dx
 9BBD  59		     2	       pop cx
 9BBE  5B		     2	       pop bx
 9BBF  58		     2	       pop ax
 9BC0  50		     2	       push ax
 9BC1  53		     2	       push bx
 9BC2  51		     2	       push cx
 9BC3  52		     2	       push dx
 9BC4  56		     2	       push si
 9BC5  57		     2	       push di
 9BC6  55		     2	       push bp
 9BC7  B4 0C		     2	       mov ah,0ch
 9BC9  A0 0131 R	     2	       mov al,colo
 9BCC  B7 00		     2	       mov bh,0
 9BCE  8B 0E 0028 R	     2	       mov cx,pos_lastx
 9BD2  8B 16 002A R	     2	       mov dx,pos_lasty
 9BD6  BE 0000		     2	       mov si,0         ;X
 9BD9  BF 0004		     2	       mov di,04    ;Y
 9BDC  BD FFFD		     2	       mov bp,1-04
 9BDF			     2	??04D7: 
 9BDF  3B F7		     2		   cmp si,di
 9BE1  7C 06		     2	       jl ??04D8
 9BE3  8D 1E 9C7C R	     2	       lea bx,??04DD
 9BE7  FF E3		     2	       jmp bx
 9BE9			     2	??04D8:
 9BE9  46		     2		   inc si
 9BEA			     2	??04D9: 
 9BEA  83 FD 00		     2	       cmp bp,0
 9BED  7D 09		     2	       jge ??04DA
 9BEF  03 EE		     2	       add bp,si
 9BF1  03 EE		     2	       add bp,si
 9BF3  83 C5 01		     2	       add bp,1
 9BF6  EB 0C		     2	       jmp ??04DB
 9BF8			     2	??04DA: 
 9BF8  4F		     2		   dec di
 9BF9  03 EE		     2	       add bp,si
 9BFB  03 EE		     2	       add bp,si
 9BFD  2B EF		     2	       sub bp,di
 9BFF  2B EF		     2	       sub bp,di
 9C01  83 C5 01		     2	       add bp,1
 9C04			     2	??04DB: 
 9C04  B7 00		     2		   mov bh,0
 9C06  8B 0E 0028 R	     2	       mov cx,pos_lastx
 9C0A  8B 16 002A R	     2	       mov dx,pos_lasty
 9C0E  03 CE		     2	       add cx,si
 9C10  03 D7		     2	       add dx,di
 9C12  CD 10		     2	       int 10h
 9C14  8B 0E 0028 R	     2	       mov cx,pos_lastx
 9C18  8B 16 002A R	     2	       mov dx,pos_lasty
 9C1C  2B CE		     2	       sub cx,si
 9C1E  03 D7		     2	       add dx,di
 9C20  CD 10		     2	       int 10h
 9C22  8B 0E 0028 R	     2	       mov cx,pos_lastx
 9C26  8B 16 002A R	     2	       mov dx,pos_lasty
 9C2A  03 CE		     2	       add cx,si
 9C2C  2B D7		     2	       sub dx,di
 9C2E  CD 10		     2	       int 10h
 9C30  8B 0E 0028 R	     2	       mov cx,pos_lastx
 9C34  8B 16 002A R	     2	       mov dx,pos_lasty
 9C38  2B CE		     2	       sub cx,si
 9C3A  2B D7		     2	       sub dx,di
 9C3C  CD 10		     2	       int 10h
 9C3E  8B 0E 0028 R	     2	       mov cx,pos_lastx
 9C42  8B 16 002A R	     2	       mov dx,pos_lasty
 9C46  03 CF		     2	       add cx,di
 9C48  03 D6		     2	       add dx,si
 9C4A  CD 10		     2	       int 10h
 9C4C  8B 0E 0028 R	     2	       mov cx,pos_lastx
 9C50  8B 16 002A R	     2	       mov dx,pos_lasty
 9C54  2B CF		     2	       sub cx,di
 9C56  03 D6		     2	       add dx,si
 9C58  CD 10		     2	       int 10h
 9C5A  8B 0E 0028 R	     2	       mov cx,pos_lastx
 9C5E  8B 16 002A R	     2	       mov dx,pos_lasty
 9C62  03 CF		     2	       add cx,di
 9C64  2B D6		     2	       sub dx,si
 9C66  CD 10		     2	       int 10h
 9C68  8B 0E 0028 R	     2	       mov cx,pos_lastx
 9C6C  8B 16 002A R	     2	       mov dx,pos_lasty
 9C70  2B CF		     2	       sub cx,di
 9C72  2B D6		     2	       sub dx,si
 9C74  CD 10		     2	       int 10h
 9C76			     2	??04DC: 
 9C76  8D 1E 9BDF R	     2		   lea bx,??04D7
 9C7A  FF E3		     2	       jmp bx
 9C7C			     2	??04DD:
 9C7C  B4 0C		     2	       mov ah,0ch
 9C7E  A0 0131 R	     2	       mov al,colo
 9C81  B7 00		     2	       mov bh,0
 9C83  8B 0E 0024 R	     2	       mov cx,pos_lastx-04
 9C87  8B 16 002A R	     2	       mov dx,pos_lasty
 9C8B  CD 10		     2	       int 10h
 9C8D  8B 0E 002C R	     2	       mov cx,pos_lastx+04
 9C91  8B 16 002A R	     2	       mov dx,pos_lasty
 9C95  CD 10		     2	       int 10h
 9C97  8B 0E 0028 R	     2	       mov cx,pos_lastx
 9C9B  8B 16 0026 R	     2	       mov dx,pos_lasty-04
 9C9F  CD 10		     2	       int 10h
 9CA1  8B 0E 0028 R	     2	       mov cx,pos_lastx
 9CA5  8B 16 002E R	     2	       mov dx,pos_lasty+04
 9CA9  CD 10		     2	       int 10h
 9CAB  5D		     2	       pop bp
 9CAC  5F		     2	       pop di
 9CAD  5E		     2	       pop si
 9CAE  5A		     2	       pop dx
 9CAF  59		     2	       pop cx
 9CB0  5B		     2	       pop bx
 9CB1  58		     2	       pop ax
 9CB2  50		     2	       push ax
 9CB3  53		     2	       push bx
 9CB4  51		     2	       push cx
 9CB5  52		     2	       push dx
 9CB6  56		     2	       push si
 9CB7  57		     2	       push di
 9CB8  55		     2	       push bp
 9CB9  B4 0C		     2	       mov ah,0ch
 9CBB  A0 0131 R	     2	       mov al,colo
 9CBE  B7 00		     2	       mov bh,0
 9CC0  8B 0E 0028 R	     2	       mov cx,pos_lastx
 9CC4  8B 16 002A R	     2	       mov dx,pos_lasty
 9CC8  BE 0000		     2	       mov si,0         ;X
 9CCB  BF 0003		     2	       mov di,03    ;Y
 9CCE  BD FFFE		     2	       mov bp,1-03
 9CD1			     2	??04DE: 
 9CD1  3B F7		     2		   cmp si,di
 9CD3  7C 06		     2	       jl ??04DF
 9CD5  8D 1E 9D6E R	     2	       lea bx,??04E4
 9CD9  FF E3		     2	       jmp bx
 9CDB			     2	??04DF:
 9CDB  46		     2		   inc si
 9CDC			     2	??04E0: 
 9CDC  83 FD 00		     2	       cmp bp,0
 9CDF  7D 09		     2	       jge ??04E1
 9CE1  03 EE		     2	       add bp,si
 9CE3  03 EE		     2	       add bp,si
 9CE5  83 C5 01		     2	       add bp,1
 9CE8  EB 0C		     2	       jmp ??04E2
 9CEA			     2	??04E1: 
 9CEA  4F		     2		   dec di
 9CEB  03 EE		     2	       add bp,si
 9CED  03 EE		     2	       add bp,si
 9CEF  2B EF		     2	       sub bp,di
 9CF1  2B EF		     2	       sub bp,di
 9CF3  83 C5 01		     2	       add bp,1
 9CF6			     2	??04E2: 
 9CF6  B7 00		     2		   mov bh,0
 9CF8  8B 0E 0028 R	     2	       mov cx,pos_lastx
 9CFC  8B 16 002A R	     2	       mov dx,pos_lasty
 9D00  03 CE		     2	       add cx,si
 9D02  03 D7		     2	       add dx,di
 9D04  CD 10		     2	       int 10h
 9D06  8B 0E 0028 R	     2	       mov cx,pos_lastx
 9D0A  8B 16 002A R	     2	       mov dx,pos_lasty
 9D0E  2B CE		     2	       sub cx,si
 9D10  03 D7		     2	       add dx,di
 9D12  CD 10		     2	       int 10h
 9D14  8B 0E 0028 R	     2	       mov cx,pos_lastx
 9D18  8B 16 002A R	     2	       mov dx,pos_lasty
 9D1C  03 CE		     2	       add cx,si
 9D1E  2B D7		     2	       sub dx,di
 9D20  CD 10		     2	       int 10h
 9D22  8B 0E 0028 R	     2	       mov cx,pos_lastx
 9D26  8B 16 002A R	     2	       mov dx,pos_lasty
 9D2A  2B CE		     2	       sub cx,si
 9D2C  2B D7		     2	       sub dx,di
 9D2E  CD 10		     2	       int 10h
 9D30  8B 0E 0028 R	     2	       mov cx,pos_lastx
 9D34  8B 16 002A R	     2	       mov dx,pos_lasty
 9D38  03 CF		     2	       add cx,di
 9D3A  03 D6		     2	       add dx,si
 9D3C  CD 10		     2	       int 10h
 9D3E  8B 0E 0028 R	     2	       mov cx,pos_lastx
 9D42  8B 16 002A R	     2	       mov dx,pos_lasty
 9D46  2B CF		     2	       sub cx,di
 9D48  03 D6		     2	       add dx,si
 9D4A  CD 10		     2	       int 10h
 9D4C  8B 0E 0028 R	     2	       mov cx,pos_lastx
 9D50  8B 16 002A R	     2	       mov dx,pos_lasty
 9D54  03 CF		     2	       add cx,di
 9D56  2B D6		     2	       sub dx,si
 9D58  CD 10		     2	       int 10h
 9D5A  8B 0E 0028 R	     2	       mov cx,pos_lastx
 9D5E  8B 16 002A R	     2	       mov dx,pos_lasty
 9D62  2B CF		     2	       sub cx,di
 9D64  2B D6		     2	       sub dx,si
 9D66  CD 10		     2	       int 10h
 9D68			     2	??04E3: 
 9D68  8D 1E 9CD1 R	     2		   lea bx,??04DE
 9D6C  FF E3		     2	       jmp bx
 9D6E			     2	??04E4:
 9D6E  B4 0C		     2	       mov ah,0ch
 9D70  A0 0131 R	     2	       mov al,colo
 9D73  B7 00		     2	       mov bh,0
 9D75  8B 0E 0025 R	     2	       mov cx,pos_lastx-03
 9D79  8B 16 002A R	     2	       mov dx,pos_lasty
 9D7D  CD 10		     2	       int 10h
 9D7F  8B 0E 002B R	     2	       mov cx,pos_lastx+03
 9D83  8B 16 002A R	     2	       mov dx,pos_lasty
 9D87  CD 10		     2	       int 10h
 9D89  8B 0E 0028 R	     2	       mov cx,pos_lastx
 9D8D  8B 16 0027 R	     2	       mov dx,pos_lasty-03
 9D91  CD 10		     2	       int 10h
 9D93  8B 0E 0028 R	     2	       mov cx,pos_lastx
 9D97  8B 16 002D R	     2	       mov dx,pos_lasty+03
 9D9B  CD 10		     2	       int 10h
 9D9D  5D		     2	       pop bp
 9D9E  5F		     2	       pop di
 9D9F  5E		     2	       pop si
 9DA0  5A		     2	       pop dx
 9DA1  59		     2	       pop cx
 9DA2  5B		     2	       pop bx
 9DA3  58		     2	       pop ax
 9DA4  50		     2	       push ax
 9DA5  53		     2	       push bx
 9DA6  51		     2	       push cx
 9DA7  52		     2	       push dx
 9DA8  56		     2	       push si
 9DA9  57		     2	       push di
 9DAA  55		     2	       push bp
 9DAB  B4 0C		     2	       mov ah,0ch
 9DAD  A0 0131 R	     2	       mov al,colo
 9DB0  B7 00		     2	       mov bh,0
 9DB2  8B 0E 0028 R	     2	       mov cx,pos_lastx
 9DB6  8B 16 002A R	     2	       mov dx,pos_lasty
 9DBA  BE 0000		     2	       mov si,0         ;X
 9DBD  BF 0002		     2	       mov di,02    ;Y
 9DC0  BD FFFF		     2	       mov bp,1-02
 9DC3			     2	??04E5: 
 9DC3  3B F7		     2		   cmp si,di
 9DC5  7C 06		     2	       jl ??04E6
 9DC7  8D 1E 9E60 R	     2	       lea bx,??04EB
 9DCB  FF E3		     2	       jmp bx
 9DCD			     2	??04E6:
 9DCD  46		     2		   inc si
 9DCE			     2	??04E7: 
 9DCE  83 FD 00		     2	       cmp bp,0
 9DD1  7D 09		     2	       jge ??04E8
 9DD3  03 EE		     2	       add bp,si
 9DD5  03 EE		     2	       add bp,si
 9DD7  83 C5 01		     2	       add bp,1
 9DDA  EB 0C		     2	       jmp ??04E9
 9DDC			     2	??04E8: 
 9DDC  4F		     2		   dec di
 9DDD  03 EE		     2	       add bp,si
 9DDF  03 EE		     2	       add bp,si
 9DE1  2B EF		     2	       sub bp,di
 9DE3  2B EF		     2	       sub bp,di
 9DE5  83 C5 01		     2	       add bp,1
 9DE8			     2	??04E9: 
 9DE8  B7 00		     2		   mov bh,0
 9DEA  8B 0E 0028 R	     2	       mov cx,pos_lastx
 9DEE  8B 16 002A R	     2	       mov dx,pos_lasty
 9DF2  03 CE		     2	       add cx,si
 9DF4  03 D7		     2	       add dx,di
 9DF6  CD 10		     2	       int 10h
 9DF8  8B 0E 0028 R	     2	       mov cx,pos_lastx
 9DFC  8B 16 002A R	     2	       mov dx,pos_lasty
 9E00  2B CE		     2	       sub cx,si
 9E02  03 D7		     2	       add dx,di
 9E04  CD 10		     2	       int 10h
 9E06  8B 0E 0028 R	     2	       mov cx,pos_lastx
 9E0A  8B 16 002A R	     2	       mov dx,pos_lasty
 9E0E  03 CE		     2	       add cx,si
 9E10  2B D7		     2	       sub dx,di
 9E12  CD 10		     2	       int 10h
 9E14  8B 0E 0028 R	     2	       mov cx,pos_lastx
 9E18  8B 16 002A R	     2	       mov dx,pos_lasty
 9E1C  2B CE		     2	       sub cx,si
 9E1E  2B D7		     2	       sub dx,di
 9E20  CD 10		     2	       int 10h
 9E22  8B 0E 0028 R	     2	       mov cx,pos_lastx
 9E26  8B 16 002A R	     2	       mov dx,pos_lasty
 9E2A  03 CF		     2	       add cx,di
 9E2C  03 D6		     2	       add dx,si
 9E2E  CD 10		     2	       int 10h
 9E30  8B 0E 0028 R	     2	       mov cx,pos_lastx
 9E34  8B 16 002A R	     2	       mov dx,pos_lasty
 9E38  2B CF		     2	       sub cx,di
 9E3A  03 D6		     2	       add dx,si
 9E3C  CD 10		     2	       int 10h
 9E3E  8B 0E 0028 R	     2	       mov cx,pos_lastx
 9E42  8B 16 002A R	     2	       mov dx,pos_lasty
 9E46  03 CF		     2	       add cx,di
 9E48  2B D6		     2	       sub dx,si
 9E4A  CD 10		     2	       int 10h
 9E4C  8B 0E 0028 R	     2	       mov cx,pos_lastx
 9E50  8B 16 002A R	     2	       mov dx,pos_lasty
 9E54  2B CF		     2	       sub cx,di
 9E56  2B D6		     2	       sub dx,si
 9E58  CD 10		     2	       int 10h
 9E5A			     2	??04EA: 
 9E5A  8D 1E 9DC3 R	     2		   lea bx,??04E5
 9E5E  FF E3		     2	       jmp bx
 9E60			     2	??04EB:
 9E60  B4 0C		     2	       mov ah,0ch
 9E62  A0 0131 R	     2	       mov al,colo
 9E65  B7 00		     2	       mov bh,0
 9E67  8B 0E 0026 R	     2	       mov cx,pos_lastx-02
 9E6B  8B 16 002A R	     2	       mov dx,pos_lasty
 9E6F  CD 10		     2	       int 10h
 9E71  8B 0E 002A R	     2	       mov cx,pos_lastx+02
 9E75  8B 16 002A R	     2	       mov dx,pos_lasty
 9E79  CD 10		     2	       int 10h
 9E7B  8B 0E 0028 R	     2	       mov cx,pos_lastx
 9E7F  8B 16 0028 R	     2	       mov dx,pos_lasty-02
 9E83  CD 10		     2	       int 10h
 9E85  8B 0E 0028 R	     2	       mov cx,pos_lastx
 9E89  8B 16 002C R	     2	       mov dx,pos_lasty+02
 9E8D  CD 10		     2	       int 10h
 9E8F  5D		     2	       pop bp
 9E90  5F		     2	       pop di
 9E91  5E		     2	       pop si
 9E92  5A		     2	       pop dx
 9E93  59		     2	       pop cx
 9E94  5B		     2	       pop bx
 9E95  58		     2	       pop ax
 9E96  50		     2	       push ax
 9E97  53		     2	       push bx
 9E98  51		     2	       push cx
 9E99  52		     2	       push dx
 9E9A  56		     2	       push si
 9E9B  57		     2	       push di
 9E9C  55		     2	       push bp
 9E9D  B4 0C		     2	       mov ah,0ch
 9E9F  A0 0131 R	     2	       mov al,colo
 9EA2  B7 00		     2	       mov bh,0
 9EA4  8B 0E 0028 R	     2	       mov cx,pos_lastx
 9EA8  8B 16 002A R	     2	       mov dx,pos_lasty
 9EAC  BE 0000		     2	       mov si,0         ;X
 9EAF  BF 0001		     2	       mov di,01    ;Y
 9EB2  BD 0000		     2	       mov bp,1-01
 9EB5			     2	??04EC: 
 9EB5  3B F7		     2		   cmp si,di
 9EB7  7C 06		     2	       jl ??04ED
 9EB9  8D 1E 9F52 R	     2	       lea bx,??04F2
 9EBD  FF E3		     2	       jmp bx
 9EBF			     2	??04ED:
 9EBF  46		     2		   inc si
 9EC0			     2	??04EE: 
 9EC0  83 FD 00		     2	       cmp bp,0
 9EC3  7D 09		     2	       jge ??04EF
 9EC5  03 EE		     2	       add bp,si
 9EC7  03 EE		     2	       add bp,si
 9EC9  83 C5 01		     2	       add bp,1
 9ECC  EB 0C		     2	       jmp ??04F0
 9ECE			     2	??04EF: 
 9ECE  4F		     2		   dec di
 9ECF  03 EE		     2	       add bp,si
 9ED1  03 EE		     2	       add bp,si
 9ED3  2B EF		     2	       sub bp,di
 9ED5  2B EF		     2	       sub bp,di
 9ED7  83 C5 01		     2	       add bp,1
 9EDA			     2	??04F0: 
 9EDA  B7 00		     2		   mov bh,0
 9EDC  8B 0E 0028 R	     2	       mov cx,pos_lastx
 9EE0  8B 16 002A R	     2	       mov dx,pos_lasty
 9EE4  03 CE		     2	       add cx,si
 9EE6  03 D7		     2	       add dx,di
 9EE8  CD 10		     2	       int 10h
 9EEA  8B 0E 0028 R	     2	       mov cx,pos_lastx
 9EEE  8B 16 002A R	     2	       mov dx,pos_lasty
 9EF2  2B CE		     2	       sub cx,si
 9EF4  03 D7		     2	       add dx,di
 9EF6  CD 10		     2	       int 10h
 9EF8  8B 0E 0028 R	     2	       mov cx,pos_lastx
 9EFC  8B 16 002A R	     2	       mov dx,pos_lasty
 9F00  03 CE		     2	       add cx,si
 9F02  2B D7		     2	       sub dx,di
 9F04  CD 10		     2	       int 10h
 9F06  8B 0E 0028 R	     2	       mov cx,pos_lastx
 9F0A  8B 16 002A R	     2	       mov dx,pos_lasty
 9F0E  2B CE		     2	       sub cx,si
 9F10  2B D7		     2	       sub dx,di
 9F12  CD 10		     2	       int 10h
 9F14  8B 0E 0028 R	     2	       mov cx,pos_lastx
 9F18  8B 16 002A R	     2	       mov dx,pos_lasty
 9F1C  03 CF		     2	       add cx,di
 9F1E  03 D6		     2	       add dx,si
 9F20  CD 10		     2	       int 10h
 9F22  8B 0E 0028 R	     2	       mov cx,pos_lastx
 9F26  8B 16 002A R	     2	       mov dx,pos_lasty
 9F2A  2B CF		     2	       sub cx,di
 9F2C  03 D6		     2	       add dx,si
 9F2E  CD 10		     2	       int 10h
 9F30  8B 0E 0028 R	     2	       mov cx,pos_lastx
 9F34  8B 16 002A R	     2	       mov dx,pos_lasty
 9F38  03 CF		     2	       add cx,di
 9F3A  2B D6		     2	       sub dx,si
 9F3C  CD 10		     2	       int 10h
 9F3E  8B 0E 0028 R	     2	       mov cx,pos_lastx
 9F42  8B 16 002A R	     2	       mov dx,pos_lasty
 9F46  2B CF		     2	       sub cx,di
 9F48  2B D6		     2	       sub dx,si
 9F4A  CD 10		     2	       int 10h
 9F4C			     2	??04F1: 
 9F4C  8D 1E 9EB5 R	     2		   lea bx,??04EC
 9F50  FF E3		     2	       jmp bx
 9F52			     2	??04F2:
 9F52  B4 0C		     2	       mov ah,0ch
 9F54  A0 0131 R	     2	       mov al,colo
 9F57  B7 00		     2	       mov bh,0
 9F59  8B 0E 0027 R	     2	       mov cx,pos_lastx-01
 9F5D  8B 16 002A R	     2	       mov dx,pos_lasty
 9F61  CD 10		     2	       int 10h
 9F63  8B 0E 0029 R	     2	       mov cx,pos_lastx+01
 9F67  8B 16 002A R	     2	       mov dx,pos_lasty
 9F6B  CD 10		     2	       int 10h
 9F6D  8B 0E 0028 R	     2	       mov cx,pos_lastx
 9F71  8B 16 0029 R	     2	       mov dx,pos_lasty-01
 9F75  CD 10		     2	       int 10h
 9F77  8B 0E 0028 R	     2	       mov cx,pos_lastx
 9F7B  8B 16 002B R	     2	       mov dx,pos_lasty+01
 9F7F  CD 10		     2	       int 10h
 9F81  5D		     2	       pop bp
 9F82  5F		     2	       pop di
 9F83  5E		     2	       pop si
 9F84  5A		     2	       pop dx
 9F85  59		     2	       pop cx
 9F86  5B		     2	       pop bx
 9F87  58		     2	       pop ax
					;DRAW_CURSOR pos_cenx,pos_ceny,colo
					DRAW_CURSOR pos_lastx,pos_lasty,colo
 9F88  50		     1		push ax
 9F89  53		     1		push bx
 9F8A  51		     1		push cx
 9F8B  52		     1		push dx
 9F8C  A1 0028 R	     1		mov ax,pos_lastx
 9F8F  8B 1E 002A R	     1		mov bx,pos_lasty
 9F93  50		     1		push ax
 9F94  53		     1		push bx
 9F95  83 E8 14		     1		sub ax,20
 9F98  83 EB 05		     1		sub bx,5
 9F9B  50		     2		push ax
 9F9C  53		     2		push bx
 9F9D  51		     2		push cx
 9F9E  52		     2		push dx
 9F9F  8B C8		     2		mov cx,ax
 9FA1  8B D3		     2		mov dx,bx
 9FA3  8B C1		     2		mov ax,cx
 9FA5  83 C0 0F		     2		add ax,15
 9FA8			     2		??04F3:
 9FA8  50		     2			push ax
 9FA9  B7 00		     2			mov bh,0
 9FAB  B4 0C		     2			mov ah,0ch
 9FAD  A0 0131 R	     2			mov al,colo
 9FB0  CD 10		     2			int 10h
 9FB2  58		     2			pop ax
 9FB3  41		     2			inc cx
 9FB4  3B C8		     2			cmp cx,ax
 9FB6  75 F0		     2			jnz ??04F3
 9FB8  5A		     2		pop dx
 9FB9  59		     2		pop cx
 9FBA  5B		     2		pop bx
 9FBB  58		     2		pop ax
 9FBC  5B		     1		pop bx
 9FBD  58		     1		pop ax
 9FBE  50		     1		push ax
 9FBF  53		     1		push bx
 9FC0  83 E8 05		     1		sub ax,5
 9FC3  83 EB 14		     1		sub bx,20
 9FC6  50		     2		push ax
 9FC7  53		     2		push bx
 9FC8  51		     2		push cx
 9FC9  52		     2		push dx
 9FCA  8B C8		     2		mov cx,ax
 9FCC  8B D3		     2		mov dx,bx
 9FCE  8B C2		     2		mov ax,dx
 9FD0  83 C0 0F		     2		add ax,15
 9FD3			     2		??04F4:
 9FD3  50		     2			push ax
 9FD4  B7 00		     2			mov bh,0
 9FD6  B4 0C		     2			mov ah,0ch
 9FD8  A0 0131 R	     2			mov al,colo
 9FDB  CD 10		     2			int 10h
 9FDD  58		     2			pop ax
 9FDE  42		     2			inc dx
 9FDF  3B D0		     2			cmp dx,ax
 9FE1  75 F0		     2			jnz ??04F4
 9FE3  5A		     2		pop dx
 9FE4  59		     2		pop cx
 9FE5  5B		     2		pop bx
 9FE6  58		     2		pop ax
 9FE7  5B		     1		pop bx
 9FE8  58		     1		pop ax
 9FE9  50		     1		push ax
 9FEA  53		     1		push bx
 9FEB  83 E8 14		     1		sub ax,20
 9FEE  83 C3 05		     1		add bx,5
 9FF1  50		     2		push ax
 9FF2  53		     2		push bx
 9FF3  51		     2		push cx
 9FF4  52		     2		push dx
 9FF5  8B C8		     2		mov cx,ax
 9FF7  8B D3		     2		mov dx,bx
 9FF9  8B C1		     2		mov ax,cx
 9FFB  83 C0 0F		     2		add ax,15
 9FFE			     2		??04F5:
 9FFE  50		     2			push ax
 9FFF  B7 00		     2			mov bh,0
 A001  B4 0C		     2			mov ah,0ch
 A003  A0 0131 R	     2			mov al,colo
 A006  CD 10		     2			int 10h
 A008  58		     2			pop ax
 A009  41		     2			inc cx
 A00A  3B C8		     2			cmp cx,ax
 A00C  75 F0		     2			jnz ??04F5
 A00E  5A		     2		pop dx
 A00F  59		     2		pop cx
 A010  5B		     2		pop bx
 A011  58		     2		pop ax
 A012  5B		     1		pop bx
 A013  58		     1		pop ax
 A014  50		     1		push ax
 A015  53		     1		push bx
 A016  83 E8 05		     1		sub ax,5
 A019  83 C3 05		     1		add bx,5
 A01C  50		     2		push ax
 A01D  53		     2		push bx
 A01E  51		     2		push cx
 A01F  52		     2		push dx
 A020  8B C8		     2		mov cx,ax
 A022  8B D3		     2		mov dx,bx
 A024  8B C2		     2		mov ax,dx
 A026  83 C0 0F		     2		add ax,15
 A029			     2		??04F6:
 A029  50		     2			push ax
 A02A  B7 00		     2			mov bh,0
 A02C  B4 0C		     2			mov ah,0ch
 A02E  A0 0131 R	     2			mov al,colo
 A031  CD 10		     2			int 10h
 A033  58		     2			pop ax
 A034  42		     2			inc dx
 A035  3B D0		     2			cmp dx,ax
 A037  75 F0		     2			jnz ??04F6
 A039  5A		     2		pop dx
 A03A  59		     2		pop cx
 A03B  5B		     2		pop bx
 A03C  58		     2		pop ax
 A03D  5B		     1		pop bx
 A03E  58		     1		pop ax
 A03F  50		     1		push ax
 A040  53		     1		push bx
 A041  83 C0 05		     1		add ax,5
 A044  83 EB 14		     1		sub bx,20
 A047  50		     2		push ax
 A048  53		     2		push bx
 A049  51		     2		push cx
 A04A  52		     2		push dx
 A04B  8B C8		     2		mov cx,ax
 A04D  8B D3		     2		mov dx,bx
 A04F  8B C2		     2		mov ax,dx
 A051  83 C0 0F		     2		add ax,15
 A054			     2		??04F7:
 A054  50		     2			push ax
 A055  B7 00		     2			mov bh,0
 A057  B4 0C		     2			mov ah,0ch
 A059  A0 0131 R	     2			mov al,colo
 A05C  CD 10		     2			int 10h
 A05E  58		     2			pop ax
 A05F  42		     2			inc dx
 A060  3B D0		     2			cmp dx,ax
 A062  75 F0		     2			jnz ??04F7
 A064  5A		     2		pop dx
 A065  59		     2		pop cx
 A066  5B		     2		pop bx
 A067  58		     2		pop ax
 A068  5B		     1		pop bx
 A069  58		     1		pop ax
 A06A  50		     1		push ax
 A06B  53		     1		push bx
 A06C  83 C0 05		     1		add ax,5
 A06F  83 EB 05		     1		sub bx,5
 A072  50		     2		push ax
 A073  53		     2		push bx
 A074  51		     2		push cx
 A075  52		     2		push dx
 A076  8B C8		     2		mov cx,ax
 A078  8B D3		     2		mov dx,bx
 A07A  8B C1		     2		mov ax,cx
 A07C  83 C0 0F		     2		add ax,15
 A07F			     2		??04F8:
 A07F  50		     2			push ax
 A080  B7 00		     2			mov bh,0
 A082  B4 0C		     2			mov ah,0ch
 A084  A0 0131 R	     2			mov al,colo
 A087  CD 10		     2			int 10h
 A089  58		     2			pop ax
 A08A  41		     2			inc cx
 A08B  3B C8		     2			cmp cx,ax
 A08D  75 F0		     2			jnz ??04F8
 A08F  5A		     2		pop dx
 A090  59		     2		pop cx
 A091  5B		     2		pop bx
 A092  58		     2		pop ax
 A093  5B		     1		pop bx
 A094  58		     1		pop ax
 A095  50		     1		push ax
 A096  53		     1		push bx
 A097  83 C0 05		     1		add ax,5
 A09A  83 C3 05		     1		add bx,5
 A09D  50		     2		push ax
 A09E  53		     2		push bx
 A09F  51		     2		push cx
 A0A0  52		     2		push dx
 A0A1  8B C8		     2		mov cx,ax
 A0A3  8B D3		     2		mov dx,bx
 A0A5  8B C2		     2		mov ax,dx
 A0A7  83 C0 0F		     2		add ax,15
 A0AA			     2		??04F9:
 A0AA  50		     2			push ax
 A0AB  B7 00		     2			mov bh,0
 A0AD  B4 0C		     2			mov ah,0ch
 A0AF  A0 0131 R	     2			mov al,colo
 A0B2  CD 10		     2			int 10h
 A0B4  58		     2			pop ax
 A0B5  42		     2			inc dx
 A0B6  3B D0		     2			cmp dx,ax
 A0B8  75 F0		     2			jnz ??04F9
 A0BA  5A		     2		pop dx
 A0BB  59		     2		pop cx
 A0BC  5B		     2		pop bx
 A0BD  58		     2		pop ax
 A0BE  5B		     1		pop bx
 A0BF  58		     1		pop ax
 A0C0  50		     1		push ax
 A0C1  53		     1		push bx
 A0C2  83 C0 05		     1		add ax,5
 A0C5  83 C3 05		     1		add bx,5
 A0C8  50		     2		push ax
 A0C9  53		     2		push bx
 A0CA  51		     2		push cx
 A0CB  52		     2		push dx
 A0CC  8B C8		     2		mov cx,ax
 A0CE  8B D3		     2		mov dx,bx
 A0D0  8B C1		     2		mov ax,cx
 A0D2  83 C0 0F		     2		add ax,15
 A0D5			     2		??04FA:
 A0D5  50		     2			push ax
 A0D6  B7 00		     2			mov bh,0
 A0D8  B4 0C		     2			mov ah,0ch
 A0DA  A0 0131 R	     2			mov al,colo
 A0DD  CD 10		     2			int 10h
 A0DF  58		     2			pop ax
 A0E0  41		     2			inc cx
 A0E1  3B C8		     2			cmp cx,ax
 A0E3  75 F0		     2			jnz ??04FA
 A0E5  5A		     2		pop dx
 A0E6  59		     2		pop cx
 A0E7  5B		     2		pop bx
 A0E8  58		     2		pop ax
 A0E9  5B		     1		pop bx
 A0EA  58		     1		pop ax
 A0EB  5A		     1		pop dx
 A0EC  59		     1		pop cx
 A0ED  5B		     1		pop bx
 A0EE  58		     1		pop ax
 A0EF  A1 0024 R			mov ax,pos_cenx
 A0F2  A3 0028 R			mov pos_lastx,ax
 A0F5  A1 0026 R			mov ax,pos_ceny
 A0F8  A3 002A R			mov pos_lasty,ax

 A0FB				change:
					;交换棋手
 A0FB  A0 0130 R			mov al,state
 A0FE  3C 01				cmp al,1
 A100  74 04				jz black
 A102  3C 02				cmp al,2
 A104  74 0D				jz white
 A106				black:
 A106  C6 06 0131 R 08			mov colo,08
 A10B  C6 06 0130 R 02			mov state,2

 A110  E9 A2E7				jmp again
 A113				white:
 A113  C6 06 0131 R 0F			mov colo,15
 A118  C6 06 0130 R 01			mov state,1
 A11D  E9 A2DA				jmp again
 A120				exitgame:
 A120  9A ---- 0000 E			CALL BEEP

 A125  C3				ret
					;将上一次鼠标位置画为背景色（即隐藏），然后重新获得鼠标位置	
 A126				loop3:
					JUDGE1 pos_lastx,pos_lasty
 A126  50		     1		push ax
 A127  53		     1		push bx
 A128  51		     1		push cx
 A129  52		     1		push dx
 A12A  A1 0028 R	     1		mov ax,pos_lastx
 A12D  83 E8 2D		     1		sub ax,45
 A130  2B D2		     1		sub dx,dx
 A132  BB 0032		     1		mov bx,50
 A135  F7 F3		     1		div bx
 A137  83 C0 04		     1		add ax,4
 A13A  A3 0153 R	     1		mov colx,ax;第几列
 A13D  A1 002A R	     1		mov ax,pos_lasty
 A140  83 E8 2D		     1		sub ax,45
 A143  2B D2		     1		sub dx,dx
 A145  BB 0032		     1		mov bx,50
 A148  F7 F3		     1		div bx
 A14A  83 C0 04		     1		add ax,4
 A14D  A3 0151 R	     1		mov rowy,ax;第几行
 A150  A1 0151 R	     1		mov ax,rowy
 A153  BB 0011		     1		mov bx,17
 A156  F7 E3		     1		mul bx
 A158  03 06 0153 R	     1		add ax,colx
 A15C  A3 0121 R	     1		mov pianyi,ax
 A15F  2B C9		     1		sub cx,cx
 A161  BB 0030 R	     1		mov bx,offset map0
 A164  03 1E 0121 R	     1		add bx,pianyi
 A168  8A 0F		     1		mov cl,[bx]
 A16A  80 F9 00		     1		cmp cl,0
 A16D  74 07		     1		jz ??04FB
 A16F  C6 06 0120 R 00	     1		mov jud1,0
 A174  EB 05		     1		jmp ??04FC
 A176			     1	??04FB:
 A176  C6 06 0120 R 01	     1		mov jud1,1
 A17B			     1	??04FC:
 A17B  5A		     1		pop dx
 A17C  59		     1		pop cx
 A17D  5B		     1		pop bx
 A17E  58		     1		pop ax
 A17F  80 3E 0120 R 00			cmp jud1,0
 A184  75 03 E9 015F			jz nodraw2
					DRAW_CURSOR pos_lastx,pos_lasty,14
 A189  50		     1		push ax
 A18A  53		     1		push bx
 A18B  51		     1		push cx
 A18C  52		     1		push dx
 A18D  A1 0028 R	     1		mov ax,pos_lastx
 A190  8B 1E 002A R	     1		mov bx,pos_lasty
 A194  50		     1		push ax
 A195  53		     1		push bx
 A196  83 E8 14		     1		sub ax,20
 A199  83 EB 05		     1		sub bx,5
 A19C  50		     2		push ax
 A19D  53		     2		push bx
 A19E  51		     2		push cx
 A19F  52		     2		push dx
 A1A0  8B C8		     2		mov cx,ax
 A1A2  8B D3		     2		mov dx,bx
 A1A4  8B C1		     2		mov ax,cx
 A1A6  83 C0 0F		     2		add ax,15
 A1A9			     2		??04FD:
 A1A9  50		     2			push ax
 A1AA  B7 00		     2			mov bh,0
 A1AC  B4 0C		     2			mov ah,0ch
 A1AE  B0 0E		     2			mov al,14
 A1B0  CD 10		     2			int 10h
 A1B2  58		     2			pop ax
 A1B3  41		     2			inc cx
 A1B4  3B C8		     2			cmp cx,ax
 A1B6  75 F1		     2			jnz ??04FD
 A1B8  5A		     2		pop dx
 A1B9  59		     2		pop cx
 A1BA  5B		     2		pop bx
 A1BB  58		     2		pop ax
 A1BC  5B		     1		pop bx
 A1BD  58		     1		pop ax
 A1BE  50		     1		push ax
 A1BF  53		     1		push bx
 A1C0  83 E8 05		     1		sub ax,5
 A1C3  83 EB 14		     1		sub bx,20
 A1C6  50		     2		push ax
 A1C7  53		     2		push bx
 A1C8  51		     2		push cx
 A1C9  52		     2		push dx
 A1CA  8B C8		     2		mov cx,ax
 A1CC  8B D3		     2		mov dx,bx
 A1CE  8B C2		     2		mov ax,dx
 A1D0  83 C0 0F		     2		add ax,15
 A1D3			     2		??04FE:
 A1D3  50		     2			push ax
 A1D4  B7 00		     2			mov bh,0
 A1D6  B4 0C		     2			mov ah,0ch
 A1D8  B0 0E		     2			mov al,14
 A1DA  CD 10		     2			int 10h
 A1DC  58		     2			pop ax
 A1DD  42		     2			inc dx
 A1DE  3B D0		     2			cmp dx,ax
 A1E0  75 F1		     2			jnz ??04FE
 A1E2  5A		     2		pop dx
 A1E3  59		     2		pop cx
 A1E4  5B		     2		pop bx
 A1E5  58		     2		pop ax
 A1E6  5B		     1		pop bx
 A1E7  58		     1		pop ax
 A1E8  50		     1		push ax
 A1E9  53		     1		push bx
 A1EA  83 E8 14		     1		sub ax,20
 A1ED  83 C3 05		     1		add bx,5
 A1F0  50		     2		push ax
 A1F1  53		     2		push bx
 A1F2  51		     2		push cx
 A1F3  52		     2		push dx
 A1F4  8B C8		     2		mov cx,ax
 A1F6  8B D3		     2		mov dx,bx
 A1F8  8B C1		     2		mov ax,cx
 A1FA  83 C0 0F		     2		add ax,15
 A1FD			     2		??04FF:
 A1FD  50		     2			push ax
 A1FE  B7 00		     2			mov bh,0
 A200  B4 0C		     2			mov ah,0ch
 A202  B0 0E		     2			mov al,14
 A204  CD 10		     2			int 10h
 A206  58		     2			pop ax
 A207  41		     2			inc cx
 A208  3B C8		     2			cmp cx,ax
 A20A  75 F1		     2			jnz ??04FF
 A20C  5A		     2		pop dx
 A20D  59		     2		pop cx
 A20E  5B		     2		pop bx
 A20F  58		     2		pop ax
 A210  5B		     1		pop bx
 A211  58		     1		pop ax
 A212  50		     1		push ax
 A213  53		     1		push bx
 A214  83 E8 05		     1		sub ax,5
 A217  83 C3 05		     1		add bx,5
 A21A  50		     2		push ax
 A21B  53		     2		push bx
 A21C  51		     2		push cx
 A21D  52		     2		push dx
 A21E  8B C8		     2		mov cx,ax
 A220  8B D3		     2		mov dx,bx
 A222  8B C2		     2		mov ax,dx
 A224  83 C0 0F		     2		add ax,15
 A227			     2		??0500:
 A227  50		     2			push ax
 A228  B7 00		     2			mov bh,0
 A22A  B4 0C		     2			mov ah,0ch
 A22C  B0 0E		     2			mov al,14
 A22E  CD 10		     2			int 10h
 A230  58		     2			pop ax
 A231  42		     2			inc dx
 A232  3B D0		     2			cmp dx,ax
 A234  75 F1		     2			jnz ??0500
 A236  5A		     2		pop dx
 A237  59		     2		pop cx
 A238  5B		     2		pop bx
 A239  58		     2		pop ax
 A23A  5B		     1		pop bx
 A23B  58		     1		pop ax
 A23C  50		     1		push ax
 A23D  53		     1		push bx
 A23E  83 C0 05		     1		add ax,5
 A241  83 EB 14		     1		sub bx,20
 A244  50		     2		push ax
 A245  53		     2		push bx
 A246  51		     2		push cx
 A247  52		     2		push dx
 A248  8B C8		     2		mov cx,ax
 A24A  8B D3		     2		mov dx,bx
 A24C  8B C2		     2		mov ax,dx
 A24E  83 C0 0F		     2		add ax,15
 A251			     2		??0501:
 A251  50		     2			push ax
 A252  B7 00		     2			mov bh,0
 A254  B4 0C		     2			mov ah,0ch
 A256  B0 0E		     2			mov al,14
 A258  CD 10		     2			int 10h
 A25A  58		     2			pop ax
 A25B  42		     2			inc dx
 A25C  3B D0		     2			cmp dx,ax
 A25E  75 F1		     2			jnz ??0501
 A260  5A		     2		pop dx
 A261  59		     2		pop cx
 A262  5B		     2		pop bx
 A263  58		     2		pop ax
 A264  5B		     1		pop bx
 A265  58		     1		pop ax
 A266  50		     1		push ax
 A267  53		     1		push bx
 A268  83 C0 05		     1		add ax,5
 A26B  83 EB 05		     1		sub bx,5
 A26E  50		     2		push ax
 A26F  53		     2		push bx
 A270  51		     2		push cx
 A271  52		     2		push dx
 A272  8B C8		     2		mov cx,ax
 A274  8B D3		     2		mov dx,bx
 A276  8B C1		     2		mov ax,cx
 A278  83 C0 0F		     2		add ax,15
 A27B			     2		??0502:
 A27B  50		     2			push ax
 A27C  B7 00		     2			mov bh,0
 A27E  B4 0C		     2			mov ah,0ch
 A280  B0 0E		     2			mov al,14
 A282  CD 10		     2			int 10h
 A284  58		     2			pop ax
 A285  41		     2			inc cx
 A286  3B C8		     2			cmp cx,ax
 A288  75 F1		     2			jnz ??0502
 A28A  5A		     2		pop dx
 A28B  59		     2		pop cx
 A28C  5B		     2		pop bx
 A28D  58		     2		pop ax
 A28E  5B		     1		pop bx
 A28F  58		     1		pop ax
 A290  50		     1		push ax
 A291  53		     1		push bx
 A292  83 C0 05		     1		add ax,5
 A295  83 C3 05		     1		add bx,5
 A298  50		     2		push ax
 A299  53		     2		push bx
 A29A  51		     2		push cx
 A29B  52		     2		push dx
 A29C  8B C8		     2		mov cx,ax
 A29E  8B D3		     2		mov dx,bx
 A2A0  8B C2		     2		mov ax,dx
 A2A2  83 C0 0F		     2		add ax,15
 A2A5			     2		??0503:
 A2A5  50		     2			push ax
 A2A6  B7 00		     2			mov bh,0
 A2A8  B4 0C		     2			mov ah,0ch
 A2AA  B0 0E		     2			mov al,14
 A2AC  CD 10		     2			int 10h
 A2AE  58		     2			pop ax
 A2AF  42		     2			inc dx
 A2B0  3B D0		     2			cmp dx,ax
 A2B2  75 F1		     2			jnz ??0503
 A2B4  5A		     2		pop dx
 A2B5  59		     2		pop cx
 A2B6  5B		     2		pop bx
 A2B7  58		     2		pop ax
 A2B8  5B		     1		pop bx
 A2B9  58		     1		pop ax
 A2BA  50		     1		push ax
 A2BB  53		     1		push bx
 A2BC  83 C0 05		     1		add ax,5
 A2BF  83 C3 05		     1		add bx,5
 A2C2  50		     2		push ax
 A2C3  53		     2		push bx
 A2C4  51		     2		push cx
 A2C5  52		     2		push dx
 A2C6  8B C8		     2		mov cx,ax
 A2C8  8B D3		     2		mov dx,bx
 A2CA  8B C1		     2		mov ax,cx
 A2CC  83 C0 0F		     2		add ax,15
 A2CF			     2		??0504:
 A2CF  50		     2			push ax
 A2D0  B7 00		     2			mov bh,0
 A2D2  B4 0C		     2			mov ah,0ch
 A2D4  B0 0E		     2			mov al,14
 A2D6  CD 10		     2			int 10h
 A2D8  58		     2			pop ax
 A2D9  41		     2			inc cx
 A2DA  3B C8		     2			cmp cx,ax
 A2DC  75 F1		     2			jnz ??0504
 A2DE  5A		     2		pop dx
 A2DF  59		     2		pop cx
 A2E0  5B		     2		pop bx
 A2E1  58		     2		pop ax
 A2E2  5B		     1		pop bx
 A2E3  58		     1		pop ax
 A2E4  5A		     1		pop dx
 A2E5  59		     1		pop cx
 A2E6  5B		     1		pop bx
 A2E7  58		     1		pop ax
 A2E8				nodraw2:
 A2E8  E9 A10F				jmp again	
 A2EB  C3				ret
 A2EC				computer endp
 A2EC				MAIN ENDP
					END MAIN













Microsoft (R) Macro Assembler Version 6.11		    01/05/17 14:14:14
tempfile.asm						     Symbols 2 - 1




Macros:

                N a m e                 Type

CIRCLE . . . . . . . . . . . . .	Proc
DRAWCIR  . . . . . . . . . . . .	Proc
DRAW_CURSOR  . . . . . . . . . .	Proc
DRAW_HLINE . . . . . . . . . . .	Proc
DRAW_VLINE . . . . . . . . . . .	Proc
DROP . . . . . . . . . . . . . .	Proc
GETNEXTPOINT . . . . . . . . . .	Proc
GETSCOREBLACK  . . . . . . . . .	Proc
GETSCOREWHITE  . . . . . . . . .	Proc
GET_POSNEARX . . . . . . . . . .	Proc
GET_POSNEARY . . . . . . . . . .	Proc
JUDGE1 . . . . . . . . . . . . .	Proc
JUDGECOL . . . . . . . . . . . .	Proc
JUDGELUTORD  . . . . . . . . . .	Proc
JUDGEROW . . . . . . . . . . . .	Proc
JUDGERUTOLD  . . . . . . . . . .	Proc


Segments and Groups:

                N a m e                 Size     Length   Align   Combine Class

DGROUP . . . . . . . . . . . . .	GROUP
_DATA  . . . . . . . . . . . . .	16 Bit	 0159	  Word	  Public  'DATA'	
STACK  . . . . . . . . . . . . .	16 Bit	 0040	  Para	  Stack	  'STACK'	 
_TEXT  . . . . . . . . . . . . .	16 Bit	 A2EC	  Word	  Public  'CODE'	


Procedures,  parameters and locals:

                N a m e                 Type     Value    Attr

MAIN . . . . . . . . . . . . . .	P Far	 0000	  _TEXT	Length= A2EC Public
  restart  . . . . . . . . . . .	L Near	 0005	  _TEXT	
  ptp  . . . . . . . . . . . . .	L Near	 001C	  _TEXT	
  AGAIN11  . . . . . . . . . . .	L Near	 0025	  _TEXT	
  ptc  . . . . . . . . . . . . .	L Near	 003F	  _TEXT	
  AGAIN12  . . . . . . . . . . .	L Near	 0048	  _TEXT	
  EXIT1  . . . . . . . . . . . .	L Near	 0062	  _TEXT	
computer . . . . . . . . . . . .	P Near	 43F0	  _TEXT	Length= 5EFC Public
  again  . . . . . . . . . . . .	L Near	 43FA	  _TEXT	
  ??01F0 . . . . . . . . . . . .	L Near	 4417	  _TEXT	
  ??01F1 . . . . . . . . . . . .	L Near	 4421	  _TEXT	
  ??01F2 . . . . . . . . . . . .	L Near	 4422	  _TEXT	
  ??01F3 . . . . . . . . . . . .	L Near	 4430	  _TEXT	
  ??01F4 . . . . . . . . . . . .	L Near	 443C	  _TEXT	
  ??01F5 . . . . . . . . . . . .	L Near	 449E	  _TEXT	
  ??01F6 . . . . . . . . . . . .	L Near	 44A4	  _TEXT	
  ??01F7 . . . . . . . . . . . .	L Near	 44EF	  _TEXT	
  ??01F8 . . . . . . . . . . . .	L Near	 44F9	  _TEXT	
  ??01F9 . . . . . . . . . . . .	L Near	 44FA	  _TEXT	
  ??01FA . . . . . . . . . . . .	L Near	 4508	  _TEXT	
  ??01FB . . . . . . . . . . . .	L Near	 4514	  _TEXT	
  ??01FC . . . . . . . . . . . .	L Near	 4576	  _TEXT	
  ??01FD . . . . . . . . . . . .	L Near	 457C	  _TEXT	
  ??01FE . . . . . . . . . . . .	L Near	 45C7	  _TEXT	
  ??01FF . . . . . . . . . . . .	L Near	 45D1	  _TEXT	
  ??0200 . . . . . . . . . . . .	L Near	 45D2	  _TEXT	
  ??0201 . . . . . . . . . . . .	L Near	 45E0	  _TEXT	
  ??0202 . . . . . . . . . . . .	L Near	 45EC	  _TEXT	
  ??0203 . . . . . . . . . . . .	L Near	 464E	  _TEXT	
  ??0204 . . . . . . . . . . . .	L Near	 4654	  _TEXT	
  ??0205 . . . . . . . . . . . .	L Near	 469F	  _TEXT	
  ??0206 . . . . . . . . . . . .	L Near	 46A9	  _TEXT	
  ??0207 . . . . . . . . . . . .	L Near	 46AA	  _TEXT	
  ??0208 . . . . . . . . . . . .	L Near	 46B8	  _TEXT	
  ??0209 . . . . . . . . . . . .	L Near	 46C4	  _TEXT	
  ??020A . . . . . . . . . . . .	L Near	 4726	  _TEXT	
  ??020B . . . . . . . . . . . .	L Near	 472C	  _TEXT	
  ??020C . . . . . . . . . . . .	L Near	 4777	  _TEXT	
  ??020D . . . . . . . . . . . .	L Near	 4781	  _TEXT	
  ??020E . . . . . . . . . . . .	L Near	 4782	  _TEXT	
  ??020F . . . . . . . . . . . .	L Near	 4790	  _TEXT	
  ??0210 . . . . . . . . . . . .	L Near	 479C	  _TEXT	
  ??0211 . . . . . . . . . . . .	L Near	 47FE	  _TEXT	
  ??0212 . . . . . . . . . . . .	L Near	 4804	  _TEXT	
  ??0213 . . . . . . . . . . . .	L Near	 484F	  _TEXT	
  ??0214 . . . . . . . . . . . .	L Near	 4859	  _TEXT	
  ??0215 . . . . . . . . . . . .	L Near	 485A	  _TEXT	
  ??0216 . . . . . . . . . . . .	L Near	 4868	  _TEXT	
  ??0217 . . . . . . . . . . . .	L Near	 4874	  _TEXT	
  ??0218 . . . . . . . . . . . .	L Near	 48D6	  _TEXT	
  ??0219 . . . . . . . . . . . .	L Near	 48DC	  _TEXT	
  ??021A . . . . . . . . . . . .	L Near	 4927	  _TEXT	
  ??021B . . . . . . . . . . . .	L Near	 4931	  _TEXT	
  ??021C . . . . . . . . . . . .	L Near	 4932	  _TEXT	
  ??021D . . . . . . . . . . . .	L Near	 4940	  _TEXT	
  ??021E . . . . . . . . . . . .	L Near	 494C	  _TEXT	
  ??021F . . . . . . . . . . . .	L Near	 49AE	  _TEXT	
  ??0220 . . . . . . . . . . . .	L Near	 49B4	  _TEXT	
  ??0221 . . . . . . . . . . . .	L Near	 49FF	  _TEXT	
  ??0222 . . . . . . . . . . . .	L Near	 4A09	  _TEXT	
  ??0223 . . . . . . . . . . . .	L Near	 4A0A	  _TEXT	
  ??0224 . . . . . . . . . . . .	L Near	 4A18	  _TEXT	
  ??0225 . . . . . . . . . . . .	L Near	 4A24	  _TEXT	
  ??0226 . . . . . . . . . . . .	L Near	 4A86	  _TEXT	
  ??0227 . . . . . . . . . . . .	L Near	 4A8C	  _TEXT	
  ??0228 . . . . . . . . . . . .	L Near	 4AD7	  _TEXT	
  ??0229 . . . . . . . . . . . .	L Near	 4AE1	  _TEXT	
  ??022A . . . . . . . . . . . .	L Near	 4AE2	  _TEXT	
  ??022B . . . . . . . . . . . .	L Near	 4AF0	  _TEXT	
  ??022C . . . . . . . . . . . .	L Near	 4AFC	  _TEXT	
  ??022D . . . . . . . . . . . .	L Near	 4B5E	  _TEXT	
  ??022E . . . . . . . . . . . .	L Near	 4B64	  _TEXT	
  ??022F . . . . . . . . . . . .	L Near	 4BAF	  _TEXT	
  ??0230 . . . . . . . . . . . .	L Near	 4BB9	  _TEXT	
  ??0231 . . . . . . . . . . . .	L Near	 4BBA	  _TEXT	
  ??0232 . . . . . . . . . . . .	L Near	 4BC8	  _TEXT	
  ??0233 . . . . . . . . . . . .	L Near	 4BD4	  _TEXT	
  ??0234 . . . . . . . . . . . .	L Near	 4C36	  _TEXT	
  ??0235 . . . . . . . . . . . .	L Near	 4C3C	  _TEXT	
  ??0236 . . . . . . . . . . . .	L Near	 4C87	  _TEXT	
  ??0237 . . . . . . . . . . . .	L Near	 4C91	  _TEXT	
  ??0238 . . . . . . . . . . . .	L Near	 4C92	  _TEXT	
  ??0239 . . . . . . . . . . . .	L Near	 4CA0	  _TEXT	
  ??023A . . . . . . . . . . . .	L Near	 4CAC	  _TEXT	
  ??023B . . . . . . . . . . . .	L Near	 4D0E	  _TEXT	
  ??023C . . . . . . . . . . . .	L Near	 4D14	  _TEXT	
  ??023D . . . . . . . . . . . .	L Near	 4D5F	  _TEXT	
  ??023E . . . . . . . . . . . .	L Near	 4D69	  _TEXT	
  ??023F . . . . . . . . . . . .	L Near	 4D6A	  _TEXT	
  ??0240 . . . . . . . . . . . .	L Near	 4D78	  _TEXT	
  ??0241 . . . . . . . . . . . .	L Near	 4D84	  _TEXT	
  ??0242 . . . . . . . . . . . .	L Near	 4DE6	  _TEXT	
  ??0243 . . . . . . . . . . . .	L Near	 4DEC	  _TEXT	
  ??0244 . . . . . . . . . . . .	L Near	 4E37	  _TEXT	
  ??0245 . . . . . . . . . . . .	L Near	 4E41	  _TEXT	
  ??0246 . . . . . . . . . . . .	L Near	 4E42	  _TEXT	
  ??0247 . . . . . . . . . . . .	L Near	 4E50	  _TEXT	
  ??0248 . . . . . . . . . . . .	L Near	 4E5C	  _TEXT	
  ??0249 . . . . . . . . . . . .	L Near	 4EBE	  _TEXT	
  ??024A . . . . . . . . . . . .	L Near	 4EC4	  _TEXT	
  ??024B . . . . . . . . . . . .	L Near	 4F0F	  _TEXT	
  ??024C . . . . . . . . . . . .	L Near	 4F19	  _TEXT	
  ??024D . . . . . . . . . . . .	L Near	 4F1A	  _TEXT	
  ??024E . . . . . . . . . . . .	L Near	 4F28	  _TEXT	
  ??024F . . . . . . . . . . . .	L Near	 4F34	  _TEXT	
  ??0250 . . . . . . . . . . . .	L Near	 4F96	  _TEXT	
  ??0251 . . . . . . . . . . . .	L Near	 4F9C	  _TEXT	
  ??0252 . . . . . . . . . . . .	L Near	 4FE7	  _TEXT	
  ??0253 . . . . . . . . . . . .	L Near	 4FF1	  _TEXT	
  ??0254 . . . . . . . . . . . .	L Near	 4FF2	  _TEXT	
  ??0255 . . . . . . . . . . . .	L Near	 5000	  _TEXT	
  ??0256 . . . . . . . . . . . .	L Near	 500C	  _TEXT	
  ??0257 . . . . . . . . . . . .	L Near	 506E	  _TEXT	
  ??0258 . . . . . . . . . . . .	L Near	 5074	  _TEXT	
  ??0259 . . . . . . . . . . . .	L Near	 50BF	  _TEXT	
  ??025A . . . . . . . . . . . .	L Near	 50C9	  _TEXT	
  ??025B . . . . . . . . . . . .	L Near	 50CA	  _TEXT	
  ??025C . . . . . . . . . . . .	L Near	 50D8	  _TEXT	
  ??025D . . . . . . . . . . . .	L Near	 50E4	  _TEXT	
  ??025E . . . . . . . . . . . .	L Near	 5146	  _TEXT	
  ??025F . . . . . . . . . . . .	L Near	 514C	  _TEXT	
  ??0260 . . . . . . . . . . . .	L Near	 5197	  _TEXT	
  ??0261 . . . . . . . . . . . .	L Near	 51A1	  _TEXT	
  ??0262 . . . . . . . . . . . .	L Near	 51A2	  _TEXT	
  ??0263 . . . . . . . . . . . .	L Near	 51B0	  _TEXT	
  ??0264 . . . . . . . . . . . .	L Near	 51BC	  _TEXT	
  ??0265 . . . . . . . . . . . .	L Near	 521E	  _TEXT	
  ??0266 . . . . . . . . . . . .	L Near	 5224	  _TEXT	
  ??0267 . . . . . . . . . . . .	L Near	 526F	  _TEXT	
  ??0268 . . . . . . . . . . . .	L Near	 5279	  _TEXT	
  ??0269 . . . . . . . . . . . .	L Near	 527A	  _TEXT	
  ??026A . . . . . . . . . . . .	L Near	 5288	  _TEXT	
  ??026B . . . . . . . . . . . .	L Near	 5294	  _TEXT	
  ??026C . . . . . . . . . . . .	L Near	 52F6	  _TEXT	
  ??026D . . . . . . . . . . . .	L Near	 52FC	  _TEXT	
  ??026E . . . . . . . . . . . .	L Near	 5347	  _TEXT	
  ??026F . . . . . . . . . . . .	L Near	 5351	  _TEXT	
  ??0270 . . . . . . . . . . . .	L Near	 5352	  _TEXT	
  ??0271 . . . . . . . . . . . .	L Near	 5360	  _TEXT	
  ??0272 . . . . . . . . . . . .	L Near	 536C	  _TEXT	
  ??0273 . . . . . . . . . . . .	L Near	 53CE	  _TEXT	
  ??0274 . . . . . . . . . . . .	L Near	 53D4	  _TEXT	
  ??0275 . . . . . . . . . . . .	L Near	 541F	  _TEXT	
  ??0276 . . . . . . . . . . . .	L Near	 5429	  _TEXT	
  ??0277 . . . . . . . . . . . .	L Near	 542A	  _TEXT	
  ??0278 . . . . . . . . . . . .	L Near	 5438	  _TEXT	
  ??0279 . . . . . . . . . . . .	L Near	 5444	  _TEXT	
  ??027A . . . . . . . . . . . .	L Near	 54A6	  _TEXT	
  ??027B . . . . . . . . . . . .	L Near	 54AC	  _TEXT	
  comai  . . . . . . . . . . . .	L Near	 54E4	  _TEXT	
  ??027C . . . . . . . . . . . .	L Near	 54FA	  _TEXT	
  ??027D . . . . . . . . . . . .	L Near	 5500	  _TEXT	
  ??0281 . . . . . . . . . . . .	L Near	 5550	  _TEXT	
  ??0282 . . . . . . . . . . . .	L Near	 5555	  _TEXT	
  ??029E . . . . . . . . . . . .	L Near	 55B8	  _TEXT	
  ??02A0 . . . . . . . . . . . .	L Near	 55CC	  _TEXT	
  ??029F . . . . . . . . . . . .	L Near	 55CF	  _TEXT	
  ??02A1 . . . . . . . . . . . .	L Near	 55E3	  _TEXT	
  ??02A2 . . . . . . . . . . . .	L Near	 55EE	  _TEXT	
  ??02A3 . . . . . . . . . . . .	L Near	 55F5	  _TEXT	
  ??02A4 . . . . . . . . . . . .	L Near	 55FA	  _TEXT	
  ??02A5 . . . . . . . . . . . .	L Near	 5651	  _TEXT	
  ??02A7 . . . . . . . . . . . .	L Near	 5665	  _TEXT	
  ??02A6 . . . . . . . . . . . .	L Near	 5668	  _TEXT	
  ??02A8 . . . . . . . . . . . .	L Near	 567C	  _TEXT	
  ??02A9 . . . . . . . . . . . .	L Near	 5687	  _TEXT	
  ??02AA . . . . . . . . . . . .	L Near	 568E	  _TEXT	
  ??02AB . . . . . . . . . . . .	L Near	 5693	  _TEXT	
  ??0283 . . . . . . . . . . . .	L Near	 569F	  _TEXT	
  ??0284 . . . . . . . . . . . .	L Near	 56A3	  _TEXT	
  ??02AC . . . . . . . . . . . .	L Near	 56F2	  _TEXT	
  ??02AE . . . . . . . . . . . .	L Near	 5706	  _TEXT	
  ??02AD . . . . . . . . . . . .	L Near	 5709	  _TEXT	
  ??02AF . . . . . . . . . . . .	L Near	 571D	  _TEXT	
  ??02B0 . . . . . . . . . . . .	L Near	 5728	  _TEXT	
  ??02B1 . . . . . . . . . . . .	L Near	 572F	  _TEXT	
  ??02B2 . . . . . . . . . . . .	L Near	 5734	  _TEXT	
  ??0285 . . . . . . . . . . . .	L Near	 5740	  _TEXT	
  ??0286 . . . . . . . . . . . .	L Near	 5744	  _TEXT	
  ??02B3 . . . . . . . . . . . .	L Near	 5793	  _TEXT	
  ??02B5 . . . . . . . . . . . .	L Near	 57A7	  _TEXT	
  ??02B4 . . . . . . . . . . . .	L Near	 57AA	  _TEXT	
  ??02B6 . . . . . . . . . . . .	L Near	 57BE	  _TEXT	
  ??02B7 . . . . . . . . . . . .	L Near	 57C9	  _TEXT	
  ??02B8 . . . . . . . . . . . .	L Near	 57D0	  _TEXT	
  ??02B9 . . . . . . . . . . . .	L Near	 57D5	  _TEXT	
  ??029B . . . . . . . . . . . .	L Near	 57E1	  _TEXT	
  ??029C . . . . . . . . . . . .	L Near	 57E5	  _TEXT	
  ??0297 . . . . . . . . . . . .	L Near	 5808	  _TEXT	
  ??0287 . . . . . . . . . . . .	L Near	 580D	  _TEXT	
  ??028B . . . . . . . . . . . .	L Near	 5812	  _TEXT	
  ??028F . . . . . . . . . . . .	L Near	 5817	  _TEXT	
  ??0293 . . . . . . . . . . . .	L Near	 581C	  _TEXT	
  ??029D . . . . . . . . . . . .	L Near	 581F	  _TEXT	
  ??02D9 . . . . . . . . . . . .	L Near	 587E	  _TEXT	
  ??02DB . . . . . . . . . . . .	L Near	 5892	  _TEXT	
  ??02DA . . . . . . . . . . . .	L Near	 5895	  _TEXT	
  ??02DC . . . . . . . . . . . .	L Near	 58A9	  _TEXT	
  ??02DD . . . . . . . . . . . .	L Near	 58B4	  _TEXT	
  ??02DE . . . . . . . . . . . .	L Near	 58BB	  _TEXT	
  ??02DF . . . . . . . . . . . .	L Near	 58C0	  _TEXT	
  ??02E0 . . . . . . . . . . . .	L Near	 5917	  _TEXT	
  ??02E2 . . . . . . . . . . . .	L Near	 592B	  _TEXT	
  ??02E1 . . . . . . . . . . . .	L Near	 592E	  _TEXT	
  ??02E3 . . . . . . . . . . . .	L Near	 5942	  _TEXT	
  ??02E4 . . . . . . . . . . . .	L Near	 594D	  _TEXT	
  ??02E5 . . . . . . . . . . . .	L Near	 5954	  _TEXT	
  ??02E6 . . . . . . . . . . . .	L Near	 5959	  _TEXT	
  ??02BA . . . . . . . . . . . .	L Near	 5965	  _TEXT	
  ??02BB . . . . . . . . . . . .	L Near	 5969	  _TEXT	
  ??02E7 . . . . . . . . . . . .	L Near	 59B8	  _TEXT	
  ??02E9 . . . . . . . . . . . .	L Near	 59CC	  _TEXT	
  ??02E8 . . . . . . . . . . . .	L Near	 59CF	  _TEXT	
  ??02EA . . . . . . . . . . . .	L Near	 59E3	  _TEXT	
  ??02EB . . . . . . . . . . . .	L Near	 59EE	  _TEXT	
  ??02EC . . . . . . . . . . . .	L Near	 59F5	  _TEXT	
  ??02ED . . . . . . . . . . . .	L Near	 59FA	  _TEXT	
  ??02BC . . . . . . . . . . . .	L Near	 5A06	  _TEXT	
  ??02BD . . . . . . . . . . . .	L Near	 5A0A	  _TEXT	
  ??02EE . . . . . . . . . . . .	L Near	 5A59	  _TEXT	
  ??02F0 . . . . . . . . . . . .	L Near	 5A6D	  _TEXT	
  ??02EF . . . . . . . . . . . .	L Near	 5A70	  _TEXT	
  ??02F1 . . . . . . . . . . . .	L Near	 5A84	  _TEXT	
  ??02F2 . . . . . . . . . . . .	L Near	 5A8F	  _TEXT	
  ??02F3 . . . . . . . . . . . .	L Near	 5A96	  _TEXT	
  ??02F4 . . . . . . . . . . . .	L Near	 5A9B	  _TEXT	
  ??02CE . . . . . . . . . . . .	L Near	 5AA7	  _TEXT	
  ??02CF . . . . . . . . . . . .	L Near	 5AAB	  _TEXT	
  ??02D0 . . . . . . . . . . . .	L Near	 5ACE	  _TEXT	
  ??02BE . . . . . . . . . . . .	L Near	 5AD3	  _TEXT	
  ??02C2 . . . . . . . . . . . .	L Near	 5AD8	  _TEXT	
  ??02C6 . . . . . . . . . . . .	L Near	 5ADD	  _TEXT	
  ??02CA . . . . . . . . . . . .	L Near	 5AE2	  _TEXT	
  ??02D6 . . . . . . . . . . . .	L Near	 5AE5	  _TEXT	
  ??02D7 . . . . . . . . . . . .	L Near	 5AEF	  _TEXT	
  ??02D8 . . . . . . . . . . . .	L Near	 5AF2	  _TEXT	
  ??027E . . . . . . . . . . . .	L Near	 5B01	  _TEXT	
  ??027F . . . . . . . . . . . .	L Near	 5B10	  _TEXT	
  ??0280 . . . . . . . . . . . .	L Near	 5B20	  _TEXT	
  ??02F5 . . . . . . . . . . . .	L Near	 5B67	  _TEXT	
  ??02F6 . . . . . . . . . . . .	L Near	 5B71	  _TEXT	
  ??02F7 . . . . . . . . . . . .	L Near	 5B72	  _TEXT	
  ??02F8 . . . . . . . . . . . .	L Near	 5B80	  _TEXT	
  ??02F9 . . . . . . . . . . . .	L Near	 5B8C	  _TEXT	
  ??02FA . . . . . . . . . . . .	L Near	 5BFE	  _TEXT	
  ??02FB . . . . . . . . . . . .	L Near	 5C04	  _TEXT	
  ??02FC . . . . . . . . . . . .	L Near	 5C59	  _TEXT	
  ??02FD . . . . . . . . . . . .	L Near	 5C63	  _TEXT	
  ??02FE . . . . . . . . . . . .	L Near	 5C64	  _TEXT	
  ??02FF . . . . . . . . . . . .	L Near	 5C72	  _TEXT	
  ??0300 . . . . . . . . . . . .	L Near	 5C7E	  _TEXT	
  ??0301 . . . . . . . . . . . .	L Near	 5CF0	  _TEXT	
  ??0302 . . . . . . . . . . . .	L Near	 5CF6	  _TEXT	
  ??0303 . . . . . . . . . . . .	L Near	 5D4B	  _TEXT	
  ??0304 . . . . . . . . . . . .	L Near	 5D55	  _TEXT	
  ??0305 . . . . . . . . . . . .	L Near	 5D56	  _TEXT	
  ??0306 . . . . . . . . . . . .	L Near	 5D64	  _TEXT	
  ??0307 . . . . . . . . . . . .	L Near	 5D70	  _TEXT	
  ??0308 . . . . . . . . . . . .	L Near	 5DE2	  _TEXT	
  ??0309 . . . . . . . . . . . .	L Near	 5DE8	  _TEXT	
  ??030A . . . . . . . . . . . .	L Near	 5E3D	  _TEXT	
  ??030B . . . . . . . . . . . .	L Near	 5E47	  _TEXT	
  ??030C . . . . . . . . . . . .	L Near	 5E48	  _TEXT	
  ??030D . . . . . . . . . . . .	L Near	 5E56	  _TEXT	
  ??030E . . . . . . . . . . . .	L Near	 5E62	  _TEXT	
  ??030F . . . . . . . . . . . .	L Near	 5ED4	  _TEXT	
  ??0310 . . . . . . . . . . . .	L Near	 5EDA	  _TEXT	
  ??0311 . . . . . . . . . . . .	L Near	 5F2F	  _TEXT	
  ??0312 . . . . . . . . . . . .	L Near	 5F39	  _TEXT	
  ??0313 . . . . . . . . . . . .	L Near	 5F3A	  _TEXT	
  ??0314 . . . . . . . . . . . .	L Near	 5F48	  _TEXT	
  ??0315 . . . . . . . . . . . .	L Near	 5F54	  _TEXT	
  ??0316 . . . . . . . . . . . .	L Near	 5FC6	  _TEXT	
  ??0317 . . . . . . . . . . . .	L Near	 5FCC	  _TEXT	
  ??0318 . . . . . . . . . . . .	L Near	 6021	  _TEXT	
  ??0319 . . . . . . . . . . . .	L Near	 602B	  _TEXT	
  ??031A . . . . . . . . . . . .	L Near	 602C	  _TEXT	
  ??031B . . . . . . . . . . . .	L Near	 603A	  _TEXT	
  ??031C . . . . . . . . . . . .	L Near	 6046	  _TEXT	
  ??031D . . . . . . . . . . . .	L Near	 60B8	  _TEXT	
  ??031E . . . . . . . . . . . .	L Near	 60BE	  _TEXT	
  ??031F . . . . . . . . . . . .	L Near	 6113	  _TEXT	
  ??0320 . . . . . . . . . . . .	L Near	 611D	  _TEXT	
  ??0321 . . . . . . . . . . . .	L Near	 611E	  _TEXT	
  ??0322 . . . . . . . . . . . .	L Near	 612C	  _TEXT	
  ??0323 . . . . . . . . . . . .	L Near	 6138	  _TEXT	
  ??0324 . . . . . . . . . . . .	L Near	 61AA	  _TEXT	
  ??0325 . . . . . . . . . . . .	L Near	 61B0	  _TEXT	
  ??0326 . . . . . . . . . . . .	L Near	 6205	  _TEXT	
  ??0327 . . . . . . . . . . . .	L Near	 620F	  _TEXT	
  ??0328 . . . . . . . . . . . .	L Near	 6210	  _TEXT	
  ??0329 . . . . . . . . . . . .	L Near	 621E	  _TEXT	
  ??032A . . . . . . . . . . . .	L Near	 622A	  _TEXT	
  ??032B . . . . . . . . . . . .	L Near	 629C	  _TEXT	
  ??032C . . . . . . . . . . . .	L Near	 62A2	  _TEXT	
  ??032D . . . . . . . . . . . .	L Near	 62F7	  _TEXT	
  ??032E . . . . . . . . . . . .	L Near	 6301	  _TEXT	
  ??032F . . . . . . . . . . . .	L Near	 6302	  _TEXT	
  ??0330 . . . . . . . . . . . .	L Near	 6310	  _TEXT	
  ??0331 . . . . . . . . . . . .	L Near	 631C	  _TEXT	
  ??0332 . . . . . . . . . . . .	L Near	 638E	  _TEXT	
  ??0333 . . . . . . . . . . . .	L Near	 6394	  _TEXT	
  ??0334 . . . . . . . . . . . .	L Near	 63E9	  _TEXT	
  ??0335 . . . . . . . . . . . .	L Near	 63F3	  _TEXT	
  ??0336 . . . . . . . . . . . .	L Near	 63F4	  _TEXT	
  ??0337 . . . . . . . . . . . .	L Near	 6402	  _TEXT	
  ??0338 . . . . . . . . . . . .	L Near	 640E	  _TEXT	
  ??0339 . . . . . . . . . . . .	L Near	 6480	  _TEXT	
  ??033A . . . . . . . . . . . .	L Near	 6486	  _TEXT	
  ??033B . . . . . . . . . . . .	L Near	 64DB	  _TEXT	
  ??033C . . . . . . . . . . . .	L Near	 64E5	  _TEXT	
  ??033D . . . . . . . . . . . .	L Near	 64E6	  _TEXT	
  ??033E . . . . . . . . . . . .	L Near	 64F4	  _TEXT	
  ??033F . . . . . . . . . . . .	L Near	 6500	  _TEXT	
  ??0340 . . . . . . . . . . . .	L Near	 6572	  _TEXT	
  ??0341 . . . . . . . . . . . .	L Near	 6578	  _TEXT	
  ??0342 . . . . . . . . . . . .	L Near	 65CD	  _TEXT	
  ??0343 . . . . . . . . . . . .	L Near	 65D7	  _TEXT	
  ??0344 . . . . . . . . . . . .	L Near	 65D8	  _TEXT	
  ??0345 . . . . . . . . . . . .	L Near	 65E6	  _TEXT	
  ??0346 . . . . . . . . . . . .	L Near	 65F2	  _TEXT	
  ??0347 . . . . . . . . . . . .	L Near	 6664	  _TEXT	
  ??0348 . . . . . . . . . . . .	L Near	 666A	  _TEXT	
  ??0349 . . . . . . . . . . . .	L Near	 66BF	  _TEXT	
  ??034A . . . . . . . . . . . .	L Near	 66C9	  _TEXT	
  ??034B . . . . . . . . . . . .	L Near	 66CA	  _TEXT	
  ??034C . . . . . . . . . . . .	L Near	 66D8	  _TEXT	
  ??034D . . . . . . . . . . . .	L Near	 66E4	  _TEXT	
  ??034E . . . . . . . . . . . .	L Near	 6756	  _TEXT	
  ??034F . . . . . . . . . . . .	L Near	 675C	  _TEXT	
  ??0350 . . . . . . . . . . . .	L Near	 67B1	  _TEXT	
  ??0351 . . . . . . . . . . . .	L Near	 67BB	  _TEXT	
  ??0352 . . . . . . . . . . . .	L Near	 67BC	  _TEXT	
  ??0353 . . . . . . . . . . . .	L Near	 67CA	  _TEXT	
  ??0354 . . . . . . . . . . . .	L Near	 67D6	  _TEXT	
  ??0355 . . . . . . . . . . . .	L Near	 6848	  _TEXT	
  ??0356 . . . . . . . . . . . .	L Near	 684E	  _TEXT	
  ??0357 . . . . . . . . . . . .	L Near	 68A3	  _TEXT	
  ??0358 . . . . . . . . . . . .	L Near	 68AD	  _TEXT	
  ??0359 . . . . . . . . . . . .	L Near	 68AE	  _TEXT	
  ??035A . . . . . . . . . . . .	L Near	 68BC	  _TEXT	
  ??035B . . . . . . . . . . . .	L Near	 68C8	  _TEXT	
  ??035C . . . . . . . . . . . .	L Near	 693A	  _TEXT	
  ??035D . . . . . . . . . . . .	L Near	 6940	  _TEXT	
  ??035E . . . . . . . . . . . .	L Near	 6995	  _TEXT	
  ??035F . . . . . . . . . . . .	L Near	 699F	  _TEXT	
  ??0360 . . . . . . . . . . . .	L Near	 69A0	  _TEXT	
  ??0361 . . . . . . . . . . . .	L Near	 69AE	  _TEXT	
  ??0362 . . . . . . . . . . . .	L Near	 69BA	  _TEXT	
  ??0363 . . . . . . . . . . . .	L Near	 6A2C	  _TEXT	
  ??0364 . . . . . . . . . . . .	L Near	 6A32	  _TEXT	
  ??0365 . . . . . . . . . . . .	L Near	 6A87	  _TEXT	
  ??0366 . . . . . . . . . . . .	L Near	 6A91	  _TEXT	
  ??0367 . . . . . . . . . . . .	L Near	 6A92	  _TEXT	
  ??0368 . . . . . . . . . . . .	L Near	 6AA0	  _TEXT	
  ??0369 . . . . . . . . . . . .	L Near	 6AAC	  _TEXT	
  ??036A . . . . . . . . . . . .	L Near	 6B1E	  _TEXT	
  ??036B . . . . . . . . . . . .	L Near	 6B24	  _TEXT	
  ??036C . . . . . . . . . . . .	L Near	 6B79	  _TEXT	
  ??036D . . . . . . . . . . . .	L Near	 6B83	  _TEXT	
  ??036E . . . . . . . . . . . .	L Near	 6B84	  _TEXT	
  ??036F . . . . . . . . . . . .	L Near	 6B92	  _TEXT	
  ??0370 . . . . . . . . . . . .	L Near	 6B9E	  _TEXT	
  ??0371 . . . . . . . . . . . .	L Near	 6C10	  _TEXT	
  ??0372 . . . . . . . . . . . .	L Near	 6C16	  _TEXT	
  ??0373 . . . . . . . . . . . .	L Near	 6C6B	  _TEXT	
  ??0374 . . . . . . . . . . . .	L Near	 6C75	  _TEXT	
  ??0375 . . . . . . . . . . . .	L Near	 6C76	  _TEXT	
  ??0376 . . . . . . . . . . . .	L Near	 6C84	  _TEXT	
  ??0377 . . . . . . . . . . . .	L Near	 6C90	  _TEXT	
  ??0378 . . . . . . . . . . . .	L Near	 6D02	  _TEXT	
  ??0379 . . . . . . . . . . . .	L Near	 6D08	  _TEXT	
  ??037A . . . . . . . . . . . .	L Near	 6D5D	  _TEXT	
  ??037B . . . . . . . . . . . .	L Near	 6D67	  _TEXT	
  ??037C . . . . . . . . . . . .	L Near	 6D68	  _TEXT	
  ??037D . . . . . . . . . . . .	L Near	 6D76	  _TEXT	
  ??037E . . . . . . . . . . . .	L Near	 6D82	  _TEXT	
  ??037F . . . . . . . . . . . .	L Near	 6DF4	  _TEXT	
  ??0380 . . . . . . . . . . . .	L Near	 6DFA	  _TEXT	
  ??0381 . . . . . . . . . . . .	L Near	 6ECA	  _TEXT	
  ??0383 . . . . . . . . . . . .	L Near	 6EDE	  _TEXT	
  ??0382 . . . . . . . . . . . .	L Near	 6EE1	  _TEXT	
  ??0384 . . . . . . . . . . . .	L Near	 6EF5	  _TEXT	
  ??0385 . . . . . . . . . . . .	L Near	 6F00	  _TEXT	
  ??0386 . . . . . . . . . . . .	L Near	 6F07	  _TEXT	
  ??0387 . . . . . . . . . . . .	L Near	 6F0C	  _TEXT	
  ??0388 . . . . . . . . . . . .	L Near	 6F6B	  _TEXT	
  ??038A . . . . . . . . . . . .	L Near	 6F7F	  _TEXT	
  ??0389 . . . . . . . . . . . .	L Near	 6F82	  _TEXT	
  ??038B . . . . . . . . . . . .	L Near	 6F96	  _TEXT	
  ??038C . . . . . . . . . . . .	L Near	 6FA1	  _TEXT	
  ??038D . . . . . . . . . . . .	L Near	 6FA8	  _TEXT	
  ??038E . . . . . . . . . . . .	L Near	 6FAD	  _TEXT	
  ??038F . . . . . . . . . . . .	L Near	 700C	  _TEXT	
  ??0391 . . . . . . . . . . . .	L Near	 7020	  _TEXT	
  ??0390 . . . . . . . . . . . .	L Near	 7023	  _TEXT	
  ??0392 . . . . . . . . . . . .	L Near	 7037	  _TEXT	
  ??0393 . . . . . . . . . . . .	L Near	 7042	  _TEXT	
  ??0394 . . . . . . . . . . . .	L Near	 7049	  _TEXT	
  ??0395 . . . . . . . . . . . .	L Near	 704E	  _TEXT	
  ??0396 . . . . . . . . . . . .	L Near	 70AD	  _TEXT	
  ??0398 . . . . . . . . . . . .	L Near	 70C1	  _TEXT	
  ??0397 . . . . . . . . . . . .	L Near	 70C4	  _TEXT	
  ??0399 . . . . . . . . . . . .	L Near	 70D8	  _TEXT	
  ??039A . . . . . . . . . . . .	L Near	 70E3	  _TEXT	
  ??039B . . . . . . . . . . . .	L Near	 70EA	  _TEXT	
  ??039C . . . . . . . . . . . .	L Near	 70EF	  _TEXT	
  people . . . . . . . . . . . .	L Near	 7100	  _TEXT	
  ??039D . . . . . . . . . . . .	L Near	 713E	  _TEXT	
  ??039E . . . . . . . . . . . .	L Near	 7144	  _TEXT	
  ??039F . . . . . . . . . . . .	L Near	 7177	  _TEXT	
  ??03A0 . . . . . . . . . . . .	L Near	 717D	  _TEXT	
  loop2  . . . . . . . . . . . .	L Near	 71AE	  _TEXT	
  ??03A1 . . . . . . . . . . . .	L Near	 71FE	  _TEXT	
  ??03A2 . . . . . . . . . . . .	L Near	 7203	  _TEXT	
  ??03A3 . . . . . . . . . . . .	L Near	 7231	  _TEXT	
  ??03A4 . . . . . . . . . . . .	L Near	 725B	  _TEXT	
  ??03A5 . . . . . . . . . . . .	L Near	 7285	  _TEXT	
  ??03A6 . . . . . . . . . . . .	L Near	 72AF	  _TEXT	
  ??03A7 . . . . . . . . . . . .	L Near	 72D9	  _TEXT	
  ??03A8 . . . . . . . . . . . .	L Near	 7303	  _TEXT	
  ??03A9 . . . . . . . . . . . .	L Near	 732D	  _TEXT	
  ??03AA . . . . . . . . . . . .	L Near	 7357	  _TEXT	
  nodraw1  . . . . . . . . . . .	L Near	 7370	  _TEXT	
  ??03AB . . . . . . . . . . . .	L Near	 73C0	  _TEXT	
  ??03AC . . . . . . . . . . . .	L Near	 73C5	  _TEXT	
  ??03AD . . . . . . . . . . . .	L Near	 73F3	  _TEXT	
  ??03AE . . . . . . . . . . . .	L Near	 741D	  _TEXT	
  ??03AF . . . . . . . . . . . .	L Near	 7447	  _TEXT	
  ??03B0 . . . . . . . . . . . .	L Near	 7471	  _TEXT	
  ??03B1 . . . . . . . . . . . .	L Near	 749B	  _TEXT	
  ??03B2 . . . . . . . . . . . .	L Near	 74C5	  _TEXT	
  ??03B3 . . . . . . . . . . . .	L Near	 74EF	  _TEXT	
  ??03B4 . . . . . . . . . . . .	L Near	 7519	  _TEXT	
  cantdrop . . . . . . . . . . .	L Near	 7532	  _TEXT	
  loop1  . . . . . . . . . . . .	L Near	 7546	  _TEXT	
  ??03B5 . . . . . . . . . . . .	L Near	 7581	  _TEXT	
  ??03B6 . . . . . . . . . . . .	L Near	 7587	  _TEXT	
  ??03B7 . . . . . . . . . . . .	L Near	 75B9	  _TEXT	
  ??03B8 . . . . . . . . . . . .	L Near	 75BF	  _TEXT	
  ??03B9 . . . . . . . . . . . .	L Near	 762A	  _TEXT	
  ??03BA . . . . . . . . . . . .	L Near	 762F	  _TEXT	
  ??03BB . . . . . . . . . . . .	L Near	 765C	  _TEXT	
  ??03BC . . . . . . . . . . . .	L Near	 7666	  _TEXT	
  ??03BD . . . . . . . . . . . .	L Near	 7667	  _TEXT	
  ??03BE . . . . . . . . . . . .	L Near	 7675	  _TEXT	
  ??03BF . . . . . . . . . . . .	L Near	 7681	  _TEXT	
  ??03C0 . . . . . . . . . . . .	L Near	 76F3	  _TEXT	
  ??03C1 . . . . . . . . . . . .	L Near	 76F9	  _TEXT	
  ??03C2 . . . . . . . . . . . .	L Near	 774E	  _TEXT	
  ??03C3 . . . . . . . . . . . .	L Near	 7758	  _TEXT	
  ??03C4 . . . . . . . . . . . .	L Near	 7759	  _TEXT	
  ??03C5 . . . . . . . . . . . .	L Near	 7767	  _TEXT	
  ??03C6 . . . . . . . . . . . .	L Near	 7773	  _TEXT	
  ??03C7 . . . . . . . . . . . .	L Near	 77E5	  _TEXT	
  ??03C8 . . . . . . . . . . . .	L Near	 77EB	  _TEXT	
  ??03C9 . . . . . . . . . . . .	L Near	 7840	  _TEXT	
  ??03CA . . . . . . . . . . . .	L Near	 784A	  _TEXT	
  ??03CB . . . . . . . . . . . .	L Near	 784B	  _TEXT	
  ??03CC . . . . . . . . . . . .	L Near	 7859	  _TEXT	
  ??03CD . . . . . . . . . . . .	L Near	 7865	  _TEXT	
  ??03CE . . . . . . . . . . . .	L Near	 78D7	  _TEXT	
  ??03CF . . . . . . . . . . . .	L Near	 78DD	  _TEXT	
  ??03D0 . . . . . . . . . . . .	L Near	 7932	  _TEXT	
  ??03D1 . . . . . . . . . . . .	L Near	 793C	  _TEXT	
  ??03D2 . . . . . . . . . . . .	L Near	 793D	  _TEXT	
  ??03D3 . . . . . . . . . . . .	L Near	 794B	  _TEXT	
  ??03D4 . . . . . . . . . . . .	L Near	 7957	  _TEXT	
  ??03D5 . . . . . . . . . . . .	L Near	 79C9	  _TEXT	
  ??03D6 . . . . . . . . . . . .	L Near	 79CF	  _TEXT	
  ??03D7 . . . . . . . . . . . .	L Near	 7A24	  _TEXT	
  ??03D8 . . . . . . . . . . . .	L Near	 7A2E	  _TEXT	
  ??03D9 . . . . . . . . . . . .	L Near	 7A2F	  _TEXT	
  ??03DA . . . . . . . . . . . .	L Near	 7A3D	  _TEXT	
  ??03DB . . . . . . . . . . . .	L Near	 7A49	  _TEXT	
  ??03DC . . . . . . . . . . . .	L Near	 7ABB	  _TEXT	
  ??03DD . . . . . . . . . . . .	L Near	 7AC1	  _TEXT	
  ??03DE . . . . . . . . . . . .	L Near	 7B16	  _TEXT	
  ??03DF . . . . . . . . . . . .	L Near	 7B20	  _TEXT	
  ??03E0 . . . . . . . . . . . .	L Near	 7B21	  _TEXT	
  ??03E1 . . . . . . . . . . . .	L Near	 7B2F	  _TEXT	
  ??03E2 . . . . . . . . . . . .	L Near	 7B3B	  _TEXT	
  ??03E3 . . . . . . . . . . . .	L Near	 7BAD	  _TEXT	
  ??03E4 . . . . . . . . . . . .	L Near	 7BB3	  _TEXT	
  ??03E5 . . . . . . . . . . . .	L Near	 7C08	  _TEXT	
  ??03E6 . . . . . . . . . . . .	L Near	 7C12	  _TEXT	
  ??03E7 . . . . . . . . . . . .	L Near	 7C13	  _TEXT	
  ??03E8 . . . . . . . . . . . .	L Near	 7C21	  _TEXT	
  ??03E9 . . . . . . . . . . . .	L Near	 7C2D	  _TEXT	
  ??03EA . . . . . . . . . . . .	L Near	 7C9F	  _TEXT	
  ??03EB . . . . . . . . . . . .	L Near	 7CA5	  _TEXT	
  ??03EC . . . . . . . . . . . .	L Near	 7CFA	  _TEXT	
  ??03ED . . . . . . . . . . . .	L Near	 7D04	  _TEXT	
  ??03EE . . . . . . . . . . . .	L Near	 7D05	  _TEXT	
  ??03EF . . . . . . . . . . . .	L Near	 7D13	  _TEXT	
  ??03F0 . . . . . . . . . . . .	L Near	 7D1F	  _TEXT	
  ??03F1 . . . . . . . . . . . .	L Near	 7D91	  _TEXT	
  ??03F2 . . . . . . . . . . . .	L Near	 7D97	  _TEXT	
  ??03F3 . . . . . . . . . . . .	L Near	 7DEC	  _TEXT	
  ??03F4 . . . . . . . . . . . .	L Near	 7DF6	  _TEXT	
  ??03F5 . . . . . . . . . . . .	L Near	 7DF7	  _TEXT	
  ??03F6 . . . . . . . . . . . .	L Near	 7E05	  _TEXT	
  ??03F7 . . . . . . . . . . . .	L Near	 7E11	  _TEXT	
  ??03F8 . . . . . . . . . . . .	L Near	 7E83	  _TEXT	
  ??03F9 . . . . . . . . . . . .	L Near	 7E89	  _TEXT	
  ??03FA . . . . . . . . . . . .	L Near	 7EDE	  _TEXT	
  ??03FB . . . . . . . . . . . .	L Near	 7EE8	  _TEXT	
  ??03FC . . . . . . . . . . . .	L Near	 7EE9	  _TEXT	
  ??03FD . . . . . . . . . . . .	L Near	 7EF7	  _TEXT	
  ??03FE . . . . . . . . . . . .	L Near	 7F03	  _TEXT	
  ??03FF . . . . . . . . . . . .	L Near	 7F75	  _TEXT	
  ??0400 . . . . . . . . . . . .	L Near	 7F7B	  _TEXT	
  ??0401 . . . . . . . . . . . .	L Near	 7FD0	  _TEXT	
  ??0402 . . . . . . . . . . . .	L Near	 7FDA	  _TEXT	
  ??0403 . . . . . . . . . . . .	L Near	 7FDB	  _TEXT	
  ??0404 . . . . . . . . . . . .	L Near	 7FE9	  _TEXT	
  ??0405 . . . . . . . . . . . .	L Near	 7FF5	  _TEXT	
  ??0406 . . . . . . . . . . . .	L Near	 8067	  _TEXT	
  ??0407 . . . . . . . . . . . .	L Near	 806D	  _TEXT	
  ??0408 . . . . . . . . . . . .	L Near	 80C2	  _TEXT	
  ??0409 . . . . . . . . . . . .	L Near	 80CC	  _TEXT	
  ??040A . . . . . . . . . . . .	L Near	 80CD	  _TEXT	
  ??040B . . . . . . . . . . . .	L Near	 80DB	  _TEXT	
  ??040C . . . . . . . . . . . .	L Near	 80E7	  _TEXT	
  ??040D . . . . . . . . . . . .	L Near	 8159	  _TEXT	
  ??040E . . . . . . . . . . . .	L Near	 815F	  _TEXT	
  ??040F . . . . . . . . . . . .	L Near	 81B4	  _TEXT	
  ??0410 . . . . . . . . . . . .	L Near	 81BE	  _TEXT	
  ??0411 . . . . . . . . . . . .	L Near	 81BF	  _TEXT	
  ??0412 . . . . . . . . . . . .	L Near	 81CD	  _TEXT	
  ??0413 . . . . . . . . . . . .	L Near	 81D9	  _TEXT	
  ??0414 . . . . . . . . . . . .	L Near	 824B	  _TEXT	
  ??0415 . . . . . . . . . . . .	L Near	 8251	  _TEXT	
  ??0416 . . . . . . . . . . . .	L Near	 82A6	  _TEXT	
  ??0417 . . . . . . . . . . . .	L Near	 82B0	  _TEXT	
  ??0418 . . . . . . . . . . . .	L Near	 82B1	  _TEXT	
  ??0419 . . . . . . . . . . . .	L Near	 82BF	  _TEXT	
  ??041A . . . . . . . . . . . .	L Near	 82CB	  _TEXT	
  ??041B . . . . . . . . . . . .	L Near	 833D	  _TEXT	
  ??041C . . . . . . . . . . . .	L Near	 8343	  _TEXT	
  ??041D . . . . . . . . . . . .	L Near	 8398	  _TEXT	
  ??041E . . . . . . . . . . . .	L Near	 83A2	  _TEXT	
  ??041F . . . . . . . . . . . .	L Near	 83A3	  _TEXT	
  ??0420 . . . . . . . . . . . .	L Near	 83B1	  _TEXT	
  ??0421 . . . . . . . . . . . .	L Near	 83BD	  _TEXT	
  ??0422 . . . . . . . . . . . .	L Near	 842F	  _TEXT	
  ??0423 . . . . . . . . . . . .	L Near	 8435	  _TEXT	
  ??0424 . . . . . . . . . . . .	L Near	 848A	  _TEXT	
  ??0425 . . . . . . . . . . . .	L Near	 8494	  _TEXT	
  ??0426 . . . . . . . . . . . .	L Near	 8495	  _TEXT	
  ??0427 . . . . . . . . . . . .	L Near	 84A3	  _TEXT	
  ??0428 . . . . . . . . . . . .	L Near	 84AF	  _TEXT	
  ??0429 . . . . . . . . . . . .	L Near	 8521	  _TEXT	
  ??042A . . . . . . . . . . . .	L Near	 8527	  _TEXT	
  ??042B . . . . . . . . . . . .	L Near	 857C	  _TEXT	
  ??042C . . . . . . . . . . . .	L Near	 8586	  _TEXT	
  ??042D . . . . . . . . . . . .	L Near	 8587	  _TEXT	
  ??042E . . . . . . . . . . . .	L Near	 8595	  _TEXT	
  ??042F . . . . . . . . . . . .	L Near	 85A1	  _TEXT	
  ??0430 . . . . . . . . . . . .	L Near	 8613	  _TEXT	
  ??0431 . . . . . . . . . . . .	L Near	 8619	  _TEXT	
  ??0432 . . . . . . . . . . . .	L Near	 866E	  _TEXT	
  ??0433 . . . . . . . . . . . .	L Near	 8678	  _TEXT	
  ??0434 . . . . . . . . . . . .	L Near	 8679	  _TEXT	
  ??0435 . . . . . . . . . . . .	L Near	 8687	  _TEXT	
  ??0436 . . . . . . . . . . . .	L Near	 8693	  _TEXT	
  ??0437 . . . . . . . . . . . .	L Near	 8705	  _TEXT	
  ??0438 . . . . . . . . . . . .	L Near	 870B	  _TEXT	
  ??0439 . . . . . . . . . . . .	L Near	 8760	  _TEXT	
  ??043A . . . . . . . . . . . .	L Near	 876A	  _TEXT	
  ??043B . . . . . . . . . . . .	L Near	 876B	  _TEXT	
  ??043C . . . . . . . . . . . .	L Near	 8779	  _TEXT	
  ??043D . . . . . . . . . . . .	L Near	 8785	  _TEXT	
  ??043E . . . . . . . . . . . .	L Near	 87F7	  _TEXT	
  ??043F . . . . . . . . . . . .	L Near	 87FD	  _TEXT	
  ??0440 . . . . . . . . . . . .	L Near	 8852	  _TEXT	
  ??0441 . . . . . . . . . . . .	L Near	 885C	  _TEXT	
  ??0442 . . . . . . . . . . . .	L Near	 885D	  _TEXT	
  ??0443 . . . . . . . . . . . .	L Near	 886B	  _TEXT	
  ??0444 . . . . . . . . . . . .	L Near	 8877	  _TEXT	
  ??0445 . . . . . . . . . . . .	L Near	 88E9	  _TEXT	
  ??0446 . . . . . . . . . . . .	L Near	 88EF	  _TEXT	
  ??0447 . . . . . . . . . . . .	L Near	 89BF	  _TEXT	
  ??0449 . . . . . . . . . . . .	L Near	 89D3	  _TEXT	
  ??0448 . . . . . . . . . . . .	L Near	 89D6	  _TEXT	
  ??044A . . . . . . . . . . . .	L Near	 89EA	  _TEXT	
  ??044B . . . . . . . . . . . .	L Near	 89F5	  _TEXT	
  ??044C . . . . . . . . . . . .	L Near	 89FC	  _TEXT	
  ??044D . . . . . . . . . . . .	L Near	 8A01	  _TEXT	
  ??044E . . . . . . . . . . . .	L Near	 8A60	  _TEXT	
  ??0450 . . . . . . . . . . . .	L Near	 8A74	  _TEXT	
  ??044F . . . . . . . . . . . .	L Near	 8A77	  _TEXT	
  ??0451 . . . . . . . . . . . .	L Near	 8A8B	  _TEXT	
  ??0452 . . . . . . . . . . . .	L Near	 8A96	  _TEXT	
  ??0453 . . . . . . . . . . . .	L Near	 8A9D	  _TEXT	
  ??0454 . . . . . . . . . . . .	L Near	 8AA2	  _TEXT	
  ??0455 . . . . . . . . . . . .	L Near	 8B01	  _TEXT	
  ??0457 . . . . . . . . . . . .	L Near	 8B15	  _TEXT	
  ??0456 . . . . . . . . . . . .	L Near	 8B18	  _TEXT	
  ??0458 . . . . . . . . . . . .	L Near	 8B2C	  _TEXT	
  ??0459 . . . . . . . . . . . .	L Near	 8B37	  _TEXT	
  ??045A . . . . . . . . . . . .	L Near	 8B3E	  _TEXT	
  ??045B . . . . . . . . . . . .	L Near	 8B43	  _TEXT	
  ??045C . . . . . . . . . . . .	L Near	 8BA2	  _TEXT	
  ??045E . . . . . . . . . . . .	L Near	 8BB6	  _TEXT	
  ??045D . . . . . . . . . . . .	L Near	 8BB9	  _TEXT	
  ??045F . . . . . . . . . . . .	L Near	 8BCD	  _TEXT	
  ??0460 . . . . . . . . . . . .	L Near	 8BD8	  _TEXT	
  ??0461 . . . . . . . . . . . .	L Near	 8BDF	  _TEXT	
  ??0462 . . . . . . . . . . . .	L Near	 8BE4	  _TEXT	
  reget  . . . . . . . . . . . .	L Near	 8BF2	  _TEXT	
  ??0463 . . . . . . . . . . . .	L Near	 8C30	  _TEXT	
  ??0464 . . . . . . . . . . . .	L Near	 8C36	  _TEXT	
  ??0465 . . . . . . . . . . . .	L Near	 8C69	  _TEXT	
  ??0466 . . . . . . . . . . . .	L Near	 8C6F	  _TEXT	
  redrawcircle . . . . . . . . .	L Near	 8CA0	  _TEXT	
  ??0467 . . . . . . . . . . . .	L Near	 8CBF	  _TEXT	
  ??0468 . . . . . . . . . . . .	L Near	 8CC9	  _TEXT	
  ??0469 . . . . . . . . . . . .	L Near	 8CCA	  _TEXT	
  ??046A . . . . . . . . . . . .	L Near	 8CD8	  _TEXT	
  ??046B . . . . . . . . . . . .	L Near	 8CE4	  _TEXT	
  ??046C . . . . . . . . . . . .	L Near	 8D56	  _TEXT	
  ??046D . . . . . . . . . . . .	L Near	 8D5C	  _TEXT	
  ??046E . . . . . . . . . . . .	L Near	 8DB1	  _TEXT	
  ??046F . . . . . . . . . . . .	L Near	 8DBB	  _TEXT	
  ??0470 . . . . . . . . . . . .	L Near	 8DBC	  _TEXT	
  ??0471 . . . . . . . . . . . .	L Near	 8DCA	  _TEXT	
  ??0472 . . . . . . . . . . . .	L Near	 8DD6	  _TEXT	
  ??0473 . . . . . . . . . . . .	L Near	 8E48	  _TEXT	
  ??0474 . . . . . . . . . . . .	L Near	 8E4E	  _TEXT	
  ??0475 . . . . . . . . . . . .	L Near	 8EA3	  _TEXT	
  ??0476 . . . . . . . . . . . .	L Near	 8EAD	  _TEXT	
  ??0477 . . . . . . . . . . . .	L Near	 8EAE	  _TEXT	
  ??0478 . . . . . . . . . . . .	L Near	 8EBC	  _TEXT	
  ??0479 . . . . . . . . . . . .	L Near	 8EC8	  _TEXT	
  ??047A . . . . . . . . . . . .	L Near	 8F3A	  _TEXT	
  ??047B . . . . . . . . . . . .	L Near	 8F40	  _TEXT	
  ??047C . . . . . . . . . . . .	L Near	 8F95	  _TEXT	
  ??047D . . . . . . . . . . . .	L Near	 8F9F	  _TEXT	
  ??047E . . . . . . . . . . . .	L Near	 8FA0	  _TEXT	
  ??047F . . . . . . . . . . . .	L Near	 8FAE	  _TEXT	
  ??0480 . . . . . . . . . . . .	L Near	 8FBA	  _TEXT	
  ??0481 . . . . . . . . . . . .	L Near	 902C	  _TEXT	
  ??0482 . . . . . . . . . . . .	L Near	 9032	  _TEXT	
  ??0483 . . . . . . . . . . . .	L Near	 9087	  _TEXT	
  ??0484 . . . . . . . . . . . .	L Near	 9091	  _TEXT	
  ??0485 . . . . . . . . . . . .	L Near	 9092	  _TEXT	
  ??0486 . . . . . . . . . . . .	L Near	 90A0	  _TEXT	
  ??0487 . . . . . . . . . . . .	L Near	 90AC	  _TEXT	
  ??0488 . . . . . . . . . . . .	L Near	 911E	  _TEXT	
  ??0489 . . . . . . . . . . . .	L Near	 9124	  _TEXT	
  ??048A . . . . . . . . . . . .	L Near	 9179	  _TEXT	
  ??048B . . . . . . . . . . . .	L Near	 9183	  _TEXT	
  ??048C . . . . . . . . . . . .	L Near	 9184	  _TEXT	
  ??048D . . . . . . . . . . . .	L Near	 9192	  _TEXT	
  ??048E . . . . . . . . . . . .	L Near	 919E	  _TEXT	
  ??048F . . . . . . . . . . . .	L Near	 9210	  _TEXT	
  ??0490 . . . . . . . . . . . .	L Near	 9216	  _TEXT	
  ??0491 . . . . . . . . . . . .	L Near	 926B	  _TEXT	
  ??0492 . . . . . . . . . . . .	L Near	 9275	  _TEXT	
  ??0493 . . . . . . . . . . . .	L Near	 9276	  _TEXT	
  ??0494 . . . . . . . . . . . .	L Near	 9284	  _TEXT	
  ??0495 . . . . . . . . . . . .	L Near	 9290	  _TEXT	
  ??0496 . . . . . . . . . . . .	L Near	 9302	  _TEXT	
  ??0497 . . . . . . . . . . . .	L Near	 9308	  _TEXT	
  ??0498 . . . . . . . . . . . .	L Near	 935D	  _TEXT	
  ??0499 . . . . . . . . . . . .	L Near	 9367	  _TEXT	
  ??049A . . . . . . . . . . . .	L Near	 9368	  _TEXT	
  ??049B . . . . . . . . . . . .	L Near	 9376	  _TEXT	
  ??049C . . . . . . . . . . . .	L Near	 9382	  _TEXT	
  ??049D . . . . . . . . . . . .	L Near	 93F4	  _TEXT	
  ??049E . . . . . . . . . . . .	L Near	 93FA	  _TEXT	
  ??049F . . . . . . . . . . . .	L Near	 944F	  _TEXT	
  ??04A0 . . . . . . . . . . . .	L Near	 9459	  _TEXT	
  ??04A1 . . . . . . . . . . . .	L Near	 945A	  _TEXT	
  ??04A2 . . . . . . . . . . . .	L Near	 9468	  _TEXT	
  ??04A3 . . . . . . . . . . . .	L Near	 9474	  _TEXT	
  ??04A4 . . . . . . . . . . . .	L Near	 94E6	  _TEXT	
  ??04A5 . . . . . . . . . . . .	L Near	 94EC	  _TEXT	
  ??04A6 . . . . . . . . . . . .	L Near	 9541	  _TEXT	
  ??04A7 . . . . . . . . . . . .	L Near	 954B	  _TEXT	
  ??04A8 . . . . . . . . . . . .	L Near	 954C	  _TEXT	
  ??04A9 . . . . . . . . . . . .	L Near	 955A	  _TEXT	
  ??04AA . . . . . . . . . . . .	L Near	 9566	  _TEXT	
  ??04AB . . . . . . . . . . . .	L Near	 95D8	  _TEXT	
  ??04AC . . . . . . . . . . . .	L Near	 95DE	  _TEXT	
  ??04AD . . . . . . . . . . . .	L Near	 9633	  _TEXT	
  ??04AE . . . . . . . . . . . .	L Near	 963D	  _TEXT	
  ??04AF . . . . . . . . . . . .	L Near	 963E	  _TEXT	
  ??04B0 . . . . . . . . . . . .	L Near	 964C	  _TEXT	
  ??04B1 . . . . . . . . . . . .	L Near	 9658	  _TEXT	
  ??04B2 . . . . . . . . . . . .	L Near	 96CA	  _TEXT	
  ??04B3 . . . . . . . . . . . .	L Near	 96D0	  _TEXT	
  ??04B4 . . . . . . . . . . . .	L Near	 9725	  _TEXT	
  ??04B5 . . . . . . . . . . . .	L Near	 972F	  _TEXT	
  ??04B6 . . . . . . . . . . . .	L Near	 9730	  _TEXT	
  ??04B7 . . . . . . . . . . . .	L Near	 973E	  _TEXT	
  ??04B8 . . . . . . . . . . . .	L Near	 974A	  _TEXT	
  ??04B9 . . . . . . . . . . . .	L Near	 97BC	  _TEXT	
  ??04BA . . . . . . . . . . . .	L Near	 97C2	  _TEXT	
  ??04BB . . . . . . . . . . . .	L Near	 9817	  _TEXT	
  ??04BC . . . . . . . . . . . .	L Near	 9821	  _TEXT	
  ??04BD . . . . . . . . . . . .	L Near	 9822	  _TEXT	
  ??04BE . . . . . . . . . . . .	L Near	 9830	  _TEXT	
  ??04BF . . . . . . . . . . . .	L Near	 983C	  _TEXT	
  ??04C0 . . . . . . . . . . . .	L Near	 98AE	  _TEXT	
  ??04C1 . . . . . . . . . . . .	L Near	 98B4	  _TEXT	
  ??04C2 . . . . . . . . . . . .	L Near	 9909	  _TEXT	
  ??04C3 . . . . . . . . . . . .	L Near	 9913	  _TEXT	
  ??04C4 . . . . . . . . . . . .	L Near	 9914	  _TEXT	
  ??04C5 . . . . . . . . . . . .	L Near	 9922	  _TEXT	
  ??04C6 . . . . . . . . . . . .	L Near	 992E	  _TEXT	
  ??04C7 . . . . . . . . . . . .	L Near	 99A0	  _TEXT	
  ??04C8 . . . . . . . . . . . .	L Near	 99A6	  _TEXT	
  ??04C9 . . . . . . . . . . . .	L Near	 99FB	  _TEXT	
  ??04CA . . . . . . . . . . . .	L Near	 9A05	  _TEXT	
  ??04CB . . . . . . . . . . . .	L Near	 9A06	  _TEXT	
  ??04CC . . . . . . . . . . . .	L Near	 9A14	  _TEXT	
  ??04CD . . . . . . . . . . . .	L Near	 9A20	  _TEXT	
  ??04CE . . . . . . . . . . . .	L Near	 9A92	  _TEXT	
  ??04CF . . . . . . . . . . . .	L Near	 9A98	  _TEXT	
  ??04D0 . . . . . . . . . . . .	L Near	 9AED	  _TEXT	
  ??04D1 . . . . . . . . . . . .	L Near	 9AF7	  _TEXT	
  ??04D2 . . . . . . . . . . . .	L Near	 9AF8	  _TEXT	
  ??04D3 . . . . . . . . . . . .	L Near	 9B06	  _TEXT	
  ??04D4 . . . . . . . . . . . .	L Near	 9B12	  _TEXT	
  ??04D5 . . . . . . . . . . . .	L Near	 9B84	  _TEXT	
  ??04D6 . . . . . . . . . . . .	L Near	 9B8A	  _TEXT	
  ??04D7 . . . . . . . . . . . .	L Near	 9BDF	  _TEXT	
  ??04D8 . . . . . . . . . . . .	L Near	 9BE9	  _TEXT	
  ??04D9 . . . . . . . . . . . .	L Near	 9BEA	  _TEXT	
  ??04DA . . . . . . . . . . . .	L Near	 9BF8	  _TEXT	
  ??04DB . . . . . . . . . . . .	L Near	 9C04	  _TEXT	
  ??04DC . . . . . . . . . . . .	L Near	 9C76	  _TEXT	
  ??04DD . . . . . . . . . . . .	L Near	 9C7C	  _TEXT	
  ??04DE . . . . . . . . . . . .	L Near	 9CD1	  _TEXT	
  ??04DF . . . . . . . . . . . .	L Near	 9CDB	  _TEXT	
  ??04E0 . . . . . . . . . . . .	L Near	 9CDC	  _TEXT	
  ??04E1 . . . . . . . . . . . .	L Near	 9CEA	  _TEXT	
  ??04E2 . . . . . . . . . . . .	L Near	 9CF6	  _TEXT	
  ??04E3 . . . . . . . . . . . .	L Near	 9D68	  _TEXT	
  ??04E4 . . . . . . . . . . . .	L Near	 9D6E	  _TEXT	
  ??04E5 . . . . . . . . . . . .	L Near	 9DC3	  _TEXT	
  ??04E6 . . . . . . . . . . . .	L Near	 9DCD	  _TEXT	
  ??04E7 . . . . . . . . . . . .	L Near	 9DCE	  _TEXT	
  ??04E8 . . . . . . . . . . . .	L Near	 9DDC	  _TEXT	
  ??04E9 . . . . . . . . . . . .	L Near	 9DE8	  _TEXT	
  ??04EA . . . . . . . . . . . .	L Near	 9E5A	  _TEXT	
  ??04EB . . . . . . . . . . . .	L Near	 9E60	  _TEXT	
  ??04EC . . . . . . . . . . . .	L Near	 9EB5	  _TEXT	
  ??04ED . . . . . . . . . . . .	L Near	 9EBF	  _TEXT	
  ??04EE . . . . . . . . . . . .	L Near	 9EC0	  _TEXT	
  ??04EF . . . . . . . . . . . .	L Near	 9ECE	  _TEXT	
  ??04F0 . . . . . . . . . . . .	L Near	 9EDA	  _TEXT	
  ??04F1 . . . . . . . . . . . .	L Near	 9F4C	  _TEXT	
  ??04F2 . . . . . . . . . . . .	L Near	 9F52	  _TEXT	
  ??04F3 . . . . . . . . . . . .	L Near	 9FA8	  _TEXT	
  ??04F4 . . . . . . . . . . . .	L Near	 9FD3	  _TEXT	
  ??04F5 . . . . . . . . . . . .	L Near	 9FFE	  _TEXT	
  ??04F6 . . . . . . . . . . . .	L Near	 A029	  _TEXT	
  ??04F7 . . . . . . . . . . . .	L Near	 A054	  _TEXT	
  ??04F8 . . . . . . . . . . . .	L Near	 A07F	  _TEXT	
  ??04F9 . . . . . . . . . . . .	L Near	 A0AA	  _TEXT	
  ??04FA . . . . . . . . . . . .	L Near	 A0D5	  _TEXT	
  change . . . . . . . . . . . .	L Near	 A0FB	  _TEXT	
  black  . . . . . . . . . . . .	L Near	 A106	  _TEXT	
  white  . . . . . . . . . . . .	L Near	 A113	  _TEXT	
  exitgame . . . . . . . . . . .	L Near	 A120	  _TEXT	
  loop3  . . . . . . . . . . . .	L Near	 A126	  _TEXT	
  ??04FB . . . . . . . . . . . .	L Near	 A176	  _TEXT	
  ??04FC . . . . . . . . . . . .	L Near	 A17B	  _TEXT	
  ??04FD . . . . . . . . . . . .	L Near	 A1A9	  _TEXT	
  ??04FE . . . . . . . . . . . .	L Near	 A1D3	  _TEXT	
  ??04FF . . . . . . . . . . . .	L Near	 A1FD	  _TEXT	
  ??0500 . . . . . . . . . . . .	L Near	 A227	  _TEXT	
  ??0501 . . . . . . . . . . . .	L Near	 A251	  _TEXT	
  ??0502 . . . . . . . . . . . .	L Near	 A27B	  _TEXT	
  ??0503 . . . . . . . . . . . .	L Near	 A2A5	  _TEXT	
  ??0504 . . . . . . . . . . . .	L Near	 A2CF	  _TEXT	
  nodraw2  . . . . . . . . . . .	L Near	 A2E8	  _TEXT	
delay  . . . . . . . . . . . . .	P Near	 434B	  _TEXT	Length= 0012 Public
  wait1  . . . . . . . . . . . .	L Near	 434F	  _TEXT	
initdata . . . . . . . . . . . .	P Near	 435D	  _TEXT	Length= 0093 Public
  inneloop . . . . . . . . . . .	L Near	 4387	  _TEXT	
init . . . . . . . . . . . . . .	P Near	 0066	  _TEXT	Length= 00D5 Public
  outter . . . . . . . . . . . .	L Near	 007A	  _TEXT	
  inner  . . . . . . . . . . . .	L Near	 007A	  _TEXT	
  outter1  . . . . . . . . . . .	L Near	 0099	  _TEXT	
  inner1 . . . . . . . . . . . .	L Near	 009D	  _TEXT	
  inner3 . . . . . . . . . . . .	L Near	 00B5	  _TEXT	
  inner4 . . . . . . . . . . . .	L Near	 00CA	  _TEXT	
  inner5 . . . . . . . . . . . .	L Near	 00DF	  _TEXT	
  inner6 . . . . . . . . . . . .	L Near	 00F4	  _TEXT	
  inner7 . . . . . . . . . . . .	L Near	 0109	  _TEXT	
  outter2  . . . . . . . . . . .	L Near	 0121	  _TEXT	
  inner2 . . . . . . . . . . . .	L Near	 0125	  _TEXT	
mouse  . . . . . . . . . . . . .	P Near	 013B	  _TEXT	Length= 4210 Public
  again  . . . . . . . . . . . .	L Near	 0145	  _TEXT	
  ??0000 . . . . . . . . . . . .	L Near	 0162	  _TEXT	
  ??0001 . . . . . . . . . . . .	L Near	 016C	  _TEXT	
  ??0002 . . . . . . . . . . . .	L Near	 016D	  _TEXT	
  ??0003 . . . . . . . . . . . .	L Near	 017B	  _TEXT	
  ??0004 . . . . . . . . . . . .	L Near	 0187	  _TEXT	
  ??0005 . . . . . . . . . . . .	L Near	 01E9	  _TEXT	
  ??0006 . . . . . . . . . . . .	L Near	 01EF	  _TEXT	
  ??0007 . . . . . . . . . . . .	L Near	 023A	  _TEXT	
  ??0008 . . . . . . . . . . . .	L Near	 0244	  _TEXT	
  ??0009 . . . . . . . . . . . .	L Near	 0245	  _TEXT	
  ??000A . . . . . . . . . . . .	L Near	 0253	  _TEXT	
  ??000B . . . . . . . . . . . .	L Near	 025F	  _TEXT	
  ??000C . . . . . . . . . . . .	L Near	 02C1	  _TEXT	
  ??000D . . . . . . . . . . . .	L Near	 02C7	  _TEXT	
  ??000E . . . . . . . . . . . .	L Near	 0312	  _TEXT	
  ??000F . . . . . . . . . . . .	L Near	 031C	  _TEXT	
  ??0010 . . . . . . . . . . . .	L Near	 031D	  _TEXT	
  ??0011 . . . . . . . . . . . .	L Near	 032B	  _TEXT	
  ??0012 . . . . . . . . . . . .	L Near	 0337	  _TEXT	
  ??0013 . . . . . . . . . . . .	L Near	 0399	  _TEXT	
  ??0014 . . . . . . . . . . . .	L Near	 039F	  _TEXT	
  ??0015 . . . . . . . . . . . .	L Near	 03EA	  _TEXT	
  ??0016 . . . . . . . . . . . .	L Near	 03F4	  _TEXT	
  ??0017 . . . . . . . . . . . .	L Near	 03F5	  _TEXT	
  ??0018 . . . . . . . . . . . .	L Near	 0403	  _TEXT	
  ??0019 . . . . . . . . . . . .	L Near	 040F	  _TEXT	
  ??001A . . . . . . . . . . . .	L Near	 0471	  _TEXT	
  ??001B . . . . . . . . . . . .	L Near	 0477	  _TEXT	
  ??001C . . . . . . . . . . . .	L Near	 04C2	  _TEXT	
  ??001D . . . . . . . . . . . .	L Near	 04CC	  _TEXT	
  ??001E . . . . . . . . . . . .	L Near	 04CD	  _TEXT	
  ??001F . . . . . . . . . . . .	L Near	 04DB	  _TEXT	
  ??0020 . . . . . . . . . . . .	L Near	 04E7	  _TEXT	
  ??0021 . . . . . . . . . . . .	L Near	 0549	  _TEXT	
  ??0022 . . . . . . . . . . . .	L Near	 054F	  _TEXT	
  ??0023 . . . . . . . . . . . .	L Near	 059A	  _TEXT	
  ??0024 . . . . . . . . . . . .	L Near	 05A4	  _TEXT	
  ??0025 . . . . . . . . . . . .	L Near	 05A5	  _TEXT	
  ??0026 . . . . . . . . . . . .	L Near	 05B3	  _TEXT	
  ??0027 . . . . . . . . . . . .	L Near	 05BF	  _TEXT	
  ??0028 . . . . . . . . . . . .	L Near	 0621	  _TEXT	
  ??0029 . . . . . . . . . . . .	L Near	 0627	  _TEXT	
  ??002A . . . . . . . . . . . .	L Near	 0672	  _TEXT	
  ??002B . . . . . . . . . . . .	L Near	 067C	  _TEXT	
  ??002C . . . . . . . . . . . .	L Near	 067D	  _TEXT	
  ??002D . . . . . . . . . . . .	L Near	 068B	  _TEXT	
  ??002E . . . . . . . . . . . .	L Near	 0697	  _TEXT	
  ??002F . . . . . . . . . . . .	L Near	 06F9	  _TEXT	
  ??0030 . . . . . . . . . . . .	L Near	 06FF	  _TEXT	
  ??0031 . . . . . . . . . . . .	L Near	 074A	  _TEXT	
  ??0032 . . . . . . . . . . . .	L Near	 0754	  _TEXT	
  ??0033 . . . . . . . . . . . .	L Near	 0755	  _TEXT	
  ??0034 . . . . . . . . . . . .	L Near	 0763	  _TEXT	
  ??0035 . . . . . . . . . . . .	L Near	 076F	  _TEXT	
  ??0036 . . . . . . . . . . . .	L Near	 07D1	  _TEXT	
  ??0037 . . . . . . . . . . . .	L Near	 07D7	  _TEXT	
  ??0038 . . . . . . . . . . . .	L Near	 0822	  _TEXT	
  ??0039 . . . . . . . . . . . .	L Near	 082C	  _TEXT	
  ??003A . . . . . . . . . . . .	L Near	 082D	  _TEXT	
  ??003B . . . . . . . . . . . .	L Near	 083B	  _TEXT	
  ??003C . . . . . . . . . . . .	L Near	 0847	  _TEXT	
  ??003D . . . . . . . . . . . .	L Near	 08A9	  _TEXT	
  ??003E . . . . . . . . . . . .	L Near	 08AF	  _TEXT	
  ??003F . . . . . . . . . . . .	L Near	 08FA	  _TEXT	
  ??0040 . . . . . . . . . . . .	L Near	 0904	  _TEXT	
  ??0041 . . . . . . . . . . . .	L Near	 0905	  _TEXT	
  ??0042 . . . . . . . . . . . .	L Near	 0913	  _TEXT	
  ??0043 . . . . . . . . . . . .	L Near	 091F	  _TEXT	
  ??0044 . . . . . . . . . . . .	L Near	 0981	  _TEXT	
  ??0045 . . . . . . . . . . . .	L Near	 0987	  _TEXT	
  ??0046 . . . . . . . . . . . .	L Near	 09D2	  _TEXT	
  ??0047 . . . . . . . . . . . .	L Near	 09DC	  _TEXT	
  ??0048 . . . . . . . . . . . .	L Near	 09DD	  _TEXT	
  ??0049 . . . . . . . . . . . .	L Near	 09EB	  _TEXT	
  ??004A . . . . . . . . . . . .	L Near	 09F7	  _TEXT	
  ??004B . . . . . . . . . . . .	L Near	 0A59	  _TEXT	
  ??004C . . . . . . . . . . . .	L Near	 0A5F	  _TEXT	
  ??004D . . . . . . . . . . . .	L Near	 0AAA	  _TEXT	
  ??004E . . . . . . . . . . . .	L Near	 0AB4	  _TEXT	
  ??004F . . . . . . . . . . . .	L Near	 0AB5	  _TEXT	
  ??0050 . . . . . . . . . . . .	L Near	 0AC3	  _TEXT	
  ??0051 . . . . . . . . . . . .	L Near	 0ACF	  _TEXT	
  ??0052 . . . . . . . . . . . .	L Near	 0B31	  _TEXT	
  ??0053 . . . . . . . . . . . .	L Near	 0B37	  _TEXT	
  ??0054 . . . . . . . . . . . .	L Near	 0B82	  _TEXT	
  ??0055 . . . . . . . . . . . .	L Near	 0B8C	  _TEXT	
  ??0056 . . . . . . . . . . . .	L Near	 0B8D	  _TEXT	
  ??0057 . . . . . . . . . . . .	L Near	 0B9B	  _TEXT	
  ??0058 . . . . . . . . . . . .	L Near	 0BA7	  _TEXT	
  ??0059 . . . . . . . . . . . .	L Near	 0C09	  _TEXT	
  ??005A . . . . . . . . . . . .	L Near	 0C0F	  _TEXT	
  ??005B . . . . . . . . . . . .	L Near	 0C5A	  _TEXT	
  ??005C . . . . . . . . . . . .	L Near	 0C64	  _TEXT	
  ??005D . . . . . . . . . . . .	L Near	 0C65	  _TEXT	
  ??005E . . . . . . . . . . . .	L Near	 0C73	  _TEXT	
  ??005F . . . . . . . . . . . .	L Near	 0C7F	  _TEXT	
  ??0060 . . . . . . . . . . . .	L Near	 0CE1	  _TEXT	
  ??0061 . . . . . . . . . . . .	L Near	 0CE7	  _TEXT	
  ??0062 . . . . . . . . . . . .	L Near	 0D32	  _TEXT	
  ??0063 . . . . . . . . . . . .	L Near	 0D3C	  _TEXT	
  ??0064 . . . . . . . . . . . .	L Near	 0D3D	  _TEXT	
  ??0065 . . . . . . . . . . . .	L Near	 0D4B	  _TEXT	
  ??0066 . . . . . . . . . . . .	L Near	 0D57	  _TEXT	
  ??0067 . . . . . . . . . . . .	L Near	 0DB9	  _TEXT	
  ??0068 . . . . . . . . . . . .	L Near	 0DBF	  _TEXT	
  ??0069 . . . . . . . . . . . .	L Near	 0E0A	  _TEXT	
  ??006A . . . . . . . . . . . .	L Near	 0E14	  _TEXT	
  ??006B . . . . . . . . . . . .	L Near	 0E15	  _TEXT	
  ??006C . . . . . . . . . . . .	L Near	 0E23	  _TEXT	
  ??006D . . . . . . . . . . . .	L Near	 0E2F	  _TEXT	
  ??006E . . . . . . . . . . . .	L Near	 0E91	  _TEXT	
  ??006F . . . . . . . . . . . .	L Near	 0E97	  _TEXT	
  ??0070 . . . . . . . . . . . .	L Near	 0EE2	  _TEXT	
  ??0071 . . . . . . . . . . . .	L Near	 0EEC	  _TEXT	
  ??0072 . . . . . . . . . . . .	L Near	 0EED	  _TEXT	
  ??0073 . . . . . . . . . . . .	L Near	 0EFB	  _TEXT	
  ??0074 . . . . . . . . . . . .	L Near	 0F07	  _TEXT	
  ??0075 . . . . . . . . . . . .	L Near	 0F69	  _TEXT	
  ??0076 . . . . . . . . . . . .	L Near	 0F6F	  _TEXT	
  ??0077 . . . . . . . . . . . .	L Near	 0FBA	  _TEXT	
  ??0078 . . . . . . . . . . . .	L Near	 0FC4	  _TEXT	
  ??0079 . . . . . . . . . . . .	L Near	 0FC5	  _TEXT	
  ??007A . . . . . . . . . . . .	L Near	 0FD3	  _TEXT	
  ??007B . . . . . . . . . . . .	L Near	 0FDF	  _TEXT	
  ??007C . . . . . . . . . . . .	L Near	 1041	  _TEXT	
  ??007D . . . . . . . . . . . .	L Near	 1047	  _TEXT	
  ??007E . . . . . . . . . . . .	L Near	 1092	  _TEXT	
  ??007F . . . . . . . . . . . .	L Near	 109C	  _TEXT	
  ??0080 . . . . . . . . . . . .	L Near	 109D	  _TEXT	
  ??0081 . . . . . . . . . . . .	L Near	 10AB	  _TEXT	
  ??0082 . . . . . . . . . . . .	L Near	 10B7	  _TEXT	
  ??0083 . . . . . . . . . . . .	L Near	 1119	  _TEXT	
  ??0084 . . . . . . . . . . . .	L Near	 111F	  _TEXT	
  ??0085 . . . . . . . . . . . .	L Near	 116A	  _TEXT	
  ??0086 . . . . . . . . . . . .	L Near	 1174	  _TEXT	
  ??0087 . . . . . . . . . . . .	L Near	 1175	  _TEXT	
  ??0088 . . . . . . . . . . . .	L Near	 1183	  _TEXT	
  ??0089 . . . . . . . . . . . .	L Near	 118F	  _TEXT	
  ??008A . . . . . . . . . . . .	L Near	 11F1	  _TEXT	
  ??008B . . . . . . . . . . . .	L Near	 11F7	  _TEXT	
  ??008C . . . . . . . . . . . .	L Near	 1263	  _TEXT	
  ??008D . . . . . . . . . . . .	L Near	 1269	  _TEXT	
  ??008E . . . . . . . . . . . .	L Near	 129C	  _TEXT	
  ??008F . . . . . . . . . . . .	L Near	 12A2	  _TEXT	
  loop2  . . . . . . . . . . . .	L Near	 12D3	  _TEXT	
  ??0090 . . . . . . . . . . . .	L Near	 12F3	  _TEXT	
  ??0091 . . . . . . . . . . . .	L Near	 131D	  _TEXT	
  ??0092 . . . . . . . . . . . .	L Near	 1347	  _TEXT	
  ??0093 . . . . . . . . . . . .	L Near	 1371	  _TEXT	
  ??0094 . . . . . . . . . . . .	L Near	 139B	  _TEXT	
  ??0095 . . . . . . . . . . . .	L Near	 13C5	  _TEXT	
  ??0096 . . . . . . . . . . . .	L Near	 13EF	  _TEXT	
  ??0097 . . . . . . . . . . . .	L Near	 1419	  _TEXT	
  ??0098 . . . . . . . . . . . .	L Near	 1482	  _TEXT	
  ??0099 . . . . . . . . . . . .	L Near	 1487	  _TEXT	
  ??009A . . . . . . . . . . . .	L Near	 14B5	  _TEXT	
  ??009B . . . . . . . . . . . .	L Near	 14DF	  _TEXT	
  ??009C . . . . . . . . . . . .	L Near	 1509	  _TEXT	
  ??009D . . . . . . . . . . . .	L Near	 1533	  _TEXT	
  ??009E . . . . . . . . . . . .	L Near	 155D	  _TEXT	
  ??009F . . . . . . . . . . . .	L Near	 1587	  _TEXT	
  ??00A0 . . . . . . . . . . . .	L Near	 15B1	  _TEXT	
  ??00A1 . . . . . . . . . . . .	L Near	 15DB	  _TEXT	
  cantdrop . . . . . . . . . . .	L Near	 15F4	  _TEXT	
  loop1  . . . . . . . . . . . .	L Near	 1608	  _TEXT	
  ??00A2 . . . . . . . . . . . .	L Near	 1643	  _TEXT	
  ??00A3 . . . . . . . . . . . .	L Near	 1649	  _TEXT	
  ??00A4 . . . . . . . . . . . .	L Near	 167B	  _TEXT	
  ??00A5 . . . . . . . . . . . .	L Near	 1681	  _TEXT	
  ??00A6 . . . . . . . . . . . .	L Near	 16EC	  _TEXT	
  ??00A7 . . . . . . . . . . . .	L Near	 16F1	  _TEXT	
  ??00A8 . . . . . . . . . . . .	L Near	 171E	  _TEXT	
  ??00A9 . . . . . . . . . . . .	L Near	 1728	  _TEXT	
  ??00AA . . . . . . . . . . . .	L Near	 1729	  _TEXT	
  ??00AB . . . . . . . . . . . .	L Near	 1737	  _TEXT	
  ??00AC . . . . . . . . . . . .	L Near	 1743	  _TEXT	
  ??00AD . . . . . . . . . . . .	L Near	 17B5	  _TEXT	
  ??00AE . . . . . . . . . . . .	L Near	 17BB	  _TEXT	
  ??00AF . . . . . . . . . . . .	L Near	 1810	  _TEXT	
  ??00B0 . . . . . . . . . . . .	L Near	 181A	  _TEXT	
  ??00B1 . . . . . . . . . . . .	L Near	 181B	  _TEXT	
  ??00B2 . . . . . . . . . . . .	L Near	 1829	  _TEXT	
  ??00B3 . . . . . . . . . . . .	L Near	 1835	  _TEXT	
  ??00B4 . . . . . . . . . . . .	L Near	 18A7	  _TEXT	
  ??00B5 . . . . . . . . . . . .	L Near	 18AD	  _TEXT	
  ??00B6 . . . . . . . . . . . .	L Near	 1902	  _TEXT	
  ??00B7 . . . . . . . . . . . .	L Near	 190C	  _TEXT	
  ??00B8 . . . . . . . . . . . .	L Near	 190D	  _TEXT	
  ??00B9 . . . . . . . . . . . .	L Near	 191B	  _TEXT	
  ??00BA . . . . . . . . . . . .	L Near	 1927	  _TEXT	
  ??00BB . . . . . . . . . . . .	L Near	 1999	  _TEXT	
  ??00BC . . . . . . . . . . . .	L Near	 199F	  _TEXT	
  ??00BD . . . . . . . . . . . .	L Near	 19F4	  _TEXT	
  ??00BE . . . . . . . . . . . .	L Near	 19FE	  _TEXT	
  ??00BF . . . . . . . . . . . .	L Near	 19FF	  _TEXT	
  ??00C0 . . . . . . . . . . . .	L Near	 1A0D	  _TEXT	
  ??00C1 . . . . . . . . . . . .	L Near	 1A19	  _TEXT	
  ??00C2 . . . . . . . . . . . .	L Near	 1A8B	  _TEXT	
  ??00C3 . . . . . . . . . . . .	L Near	 1A91	  _TEXT	
  ??00C4 . . . . . . . . . . . .	L Near	 1AE6	  _TEXT	
  ??00C5 . . . . . . . . . . . .	L Near	 1AF0	  _TEXT	
  ??00C6 . . . . . . . . . . . .	L Near	 1AF1	  _TEXT	
  ??00C7 . . . . . . . . . . . .	L Near	 1AFF	  _TEXT	
  ??00C8 . . . . . . . . . . . .	L Near	 1B0B	  _TEXT	
  ??00C9 . . . . . . . . . . . .	L Near	 1B7D	  _TEXT	
  ??00CA . . . . . . . . . . . .	L Near	 1B83	  _TEXT	
  ??00CB . . . . . . . . . . . .	L Near	 1BD8	  _TEXT	
  ??00CC . . . . . . . . . . . .	L Near	 1BE2	  _TEXT	
  ??00CD . . . . . . . . . . . .	L Near	 1BE3	  _TEXT	
  ??00CE . . . . . . . . . . . .	L Near	 1BF1	  _TEXT	
  ??00CF . . . . . . . . . . . .	L Near	 1BFD	  _TEXT	
  ??00D0 . . . . . . . . . . . .	L Near	 1C6F	  _TEXT	
  ??00D1 . . . . . . . . . . . .	L Near	 1C75	  _TEXT	
  ??00D2 . . . . . . . . . . . .	L Near	 1CCA	  _TEXT	
  ??00D3 . . . . . . . . . . . .	L Near	 1CD4	  _TEXT	
  ??00D4 . . . . . . . . . . . .	L Near	 1CD5	  _TEXT	
  ??00D5 . . . . . . . . . . . .	L Near	 1CE3	  _TEXT	
  ??00D6 . . . . . . . . . . . .	L Near	 1CEF	  _TEXT	
  ??00D7 . . . . . . . . . . . .	L Near	 1D61	  _TEXT	
  ??00D8 . . . . . . . . . . . .	L Near	 1D67	  _TEXT	
  ??00D9 . . . . . . . . . . . .	L Near	 1DBC	  _TEXT	
  ??00DA . . . . . . . . . . . .	L Near	 1DC6	  _TEXT	
  ??00DB . . . . . . . . . . . .	L Near	 1DC7	  _TEXT	
  ??00DC . . . . . . . . . . . .	L Near	 1DD5	  _TEXT	
  ??00DD . . . . . . . . . . . .	L Near	 1DE1	  _TEXT	
  ??00DE . . . . . . . . . . . .	L Near	 1E53	  _TEXT	
  ??00DF . . . . . . . . . . . .	L Near	 1E59	  _TEXT	
  ??00E0 . . . . . . . . . . . .	L Near	 1EAE	  _TEXT	
  ??00E1 . . . . . . . . . . . .	L Near	 1EB8	  _TEXT	
  ??00E2 . . . . . . . . . . . .	L Near	 1EB9	  _TEXT	
  ??00E3 . . . . . . . . . . . .	L Near	 1EC7	  _TEXT	
  ??00E4 . . . . . . . . . . . .	L Near	 1ED3	  _TEXT	
  ??00E5 . . . . . . . . . . . .	L Near	 1F45	  _TEXT	
  ??00E6 . . . . . . . . . . . .	L Near	 1F4B	  _TEXT	
  ??00E7 . . . . . . . . . . . .	L Near	 1FA0	  _TEXT	
  ??00E8 . . . . . . . . . . . .	L Near	 1FAA	  _TEXT	
  ??00E9 . . . . . . . . . . . .	L Near	 1FAB	  _TEXT	
  ??00EA . . . . . . . . . . . .	L Near	 1FB9	  _TEXT	
  ??00EB . . . . . . . . . . . .	L Near	 1FC5	  _TEXT	
  ??00EC . . . . . . . . . . . .	L Near	 2037	  _TEXT	
  ??00ED . . . . . . . . . . . .	L Near	 203D	  _TEXT	
  ??00EE . . . . . . . . . . . .	L Near	 2092	  _TEXT	
  ??00EF . . . . . . . . . . . .	L Near	 209C	  _TEXT	
  ??00F0 . . . . . . . . . . . .	L Near	 209D	  _TEXT	
  ??00F1 . . . . . . . . . . . .	L Near	 20AB	  _TEXT	
  ??00F2 . . . . . . . . . . . .	L Near	 20B7	  _TEXT	
  ??00F3 . . . . . . . . . . . .	L Near	 2129	  _TEXT	
  ??00F4 . . . . . . . . . . . .	L Near	 212F	  _TEXT	
  ??00F5 . . . . . . . . . . . .	L Near	 2184	  _TEXT	
  ??00F6 . . . . . . . . . . . .	L Near	 218E	  _TEXT	
  ??00F7 . . . . . . . . . . . .	L Near	 218F	  _TEXT	
  ??00F8 . . . . . . . . . . . .	L Near	 219D	  _TEXT	
  ??00F9 . . . . . . . . . . . .	L Near	 21A9	  _TEXT	
  ??00FA . . . . . . . . . . . .	L Near	 221B	  _TEXT	
  ??00FB . . . . . . . . . . . .	L Near	 2221	  _TEXT	
  ??00FC . . . . . . . . . . . .	L Near	 2276	  _TEXT	
  ??00FD . . . . . . . . . . . .	L Near	 2280	  _TEXT	
  ??00FE . . . . . . . . . . . .	L Near	 2281	  _TEXT	
  ??00FF . . . . . . . . . . . .	L Near	 228F	  _TEXT	
  ??0100 . . . . . . . . . . . .	L Near	 229B	  _TEXT	
  ??0101 . . . . . . . . . . . .	L Near	 230D	  _TEXT	
  ??0102 . . . . . . . . . . . .	L Near	 2313	  _TEXT	
  ??0103 . . . . . . . . . . . .	L Near	 2368	  _TEXT	
  ??0104 . . . . . . . . . . . .	L Near	 2372	  _TEXT	
  ??0105 . . . . . . . . . . . .	L Near	 2373	  _TEXT	
  ??0106 . . . . . . . . . . . .	L Near	 2381	  _TEXT	
  ??0107 . . . . . . . . . . . .	L Near	 238D	  _TEXT	
  ??0108 . . . . . . . . . . . .	L Near	 23FF	  _TEXT	
  ??0109 . . . . . . . . . . . .	L Near	 2405	  _TEXT	
  ??010A . . . . . . . . . . . .	L Near	 245A	  _TEXT	
  ??010B . . . . . . . . . . . .	L Near	 2464	  _TEXT	
  ??010C . . . . . . . . . . . .	L Near	 2465	  _TEXT	
  ??010D . . . . . . . . . . . .	L Near	 2473	  _TEXT	
  ??010E . . . . . . . . . . . .	L Near	 247F	  _TEXT	
  ??010F . . . . . . . . . . . .	L Near	 24F1	  _TEXT	
  ??0110 . . . . . . . . . . . .	L Near	 24F7	  _TEXT	
  ??0111 . . . . . . . . . . . .	L Near	 254C	  _TEXT	
  ??0112 . . . . . . . . . . . .	L Near	 2556	  _TEXT	
  ??0113 . . . . . . . . . . . .	L Near	 2557	  _TEXT	
  ??0114 . . . . . . . . . . . .	L Near	 2565	  _TEXT	
  ??0115 . . . . . . . . . . . .	L Near	 2571	  _TEXT	
  ??0116 . . . . . . . . . . . .	L Near	 25E3	  _TEXT	
  ??0117 . . . . . . . . . . . .	L Near	 25E9	  _TEXT	
  ??0118 . . . . . . . . . . . .	L Near	 263E	  _TEXT	
  ??0119 . . . . . . . . . . . .	L Near	 2648	  _TEXT	
  ??011A . . . . . . . . . . . .	L Near	 2649	  _TEXT	
  ??011B . . . . . . . . . . . .	L Near	 2657	  _TEXT	
  ??011C . . . . . . . . . . . .	L Near	 2663	  _TEXT	
  ??011D . . . . . . . . . . . .	L Near	 26D5	  _TEXT	
  ??011E . . . . . . . . . . . .	L Near	 26DB	  _TEXT	
  ??011F . . . . . . . . . . . .	L Near	 2730	  _TEXT	
  ??0120 . . . . . . . . . . . .	L Near	 273A	  _TEXT	
  ??0121 . . . . . . . . . . . .	L Near	 273B	  _TEXT	
  ??0122 . . . . . . . . . . . .	L Near	 2749	  _TEXT	
  ??0123 . . . . . . . . . . . .	L Near	 2755	  _TEXT	
  ??0124 . . . . . . . . . . . .	L Near	 27C7	  _TEXT	
  ??0125 . . . . . . . . . . . .	L Near	 27CD	  _TEXT	
  ??0126 . . . . . . . . . . . .	L Near	 2822	  _TEXT	
  ??0127 . . . . . . . . . . . .	L Near	 282C	  _TEXT	
  ??0128 . . . . . . . . . . . .	L Near	 282D	  _TEXT	
  ??0129 . . . . . . . . . . . .	L Near	 283B	  _TEXT	
  ??012A . . . . . . . . . . . .	L Near	 2847	  _TEXT	
  ??012B . . . . . . . . . . . .	L Near	 28B9	  _TEXT	
  ??012C . . . . . . . . . . . .	L Near	 28BF	  _TEXT	
  ??012D . . . . . . . . . . . .	L Near	 2914	  _TEXT	
  ??012E . . . . . . . . . . . .	L Near	 291E	  _TEXT	
  ??012F . . . . . . . . . . . .	L Near	 291F	  _TEXT	
  ??0130 . . . . . . . . . . . .	L Near	 292D	  _TEXT	
  ??0131 . . . . . . . . . . . .	L Near	 2939	  _TEXT	
  ??0132 . . . . . . . . . . . .	L Near	 29AB	  _TEXT	
  ??0133 . . . . . . . . . . . .	L Near	 29B1	  _TEXT	
  ??0134 . . . . . . . . . . . .	L Near	 2A81	  _TEXT	
  ??0136 . . . . . . . . . . . .	L Near	 2A95	  _TEXT	
  ??0135 . . . . . . . . . . . .	L Near	 2A98	  _TEXT	
  ??0137 . . . . . . . . . . . .	L Near	 2AAC	  _TEXT	
  ??0138 . . . . . . . . . . . .	L Near	 2AB7	  _TEXT	
  ??0139 . . . . . . . . . . . .	L Near	 2ABE	  _TEXT	
  ??013A . . . . . . . . . . . .	L Near	 2AC3	  _TEXT	
  ??013B . . . . . . . . . . . .	L Near	 2B22	  _TEXT	
  ??013D . . . . . . . . . . . .	L Near	 2B36	  _TEXT	
  ??013C . . . . . . . . . . . .	L Near	 2B39	  _TEXT	
  ??013E . . . . . . . . . . . .	L Near	 2B4D	  _TEXT	
  ??013F . . . . . . . . . . . .	L Near	 2B58	  _TEXT	
  ??0140 . . . . . . . . . . . .	L Near	 2B5F	  _TEXT	
  ??0141 . . . . . . . . . . . .	L Near	 2B64	  _TEXT	
  ??0142 . . . . . . . . . . . .	L Near	 2BC3	  _TEXT	
  ??0144 . . . . . . . . . . . .	L Near	 2BD7	  _TEXT	
  ??0143 . . . . . . . . . . . .	L Near	 2BDA	  _TEXT	
  ??0145 . . . . . . . . . . . .	L Near	 2BEE	  _TEXT	
  ??0146 . . . . . . . . . . . .	L Near	 2BF9	  _TEXT	
  ??0147 . . . . . . . . . . . .	L Near	 2C00	  _TEXT	
  ??0148 . . . . . . . . . . . .	L Near	 2C05	  _TEXT	
  ??0149 . . . . . . . . . . . .	L Near	 2C64	  _TEXT	
  ??014B . . . . . . . . . . . .	L Near	 2C78	  _TEXT	
  ??014A . . . . . . . . . . . .	L Near	 2C7B	  _TEXT	
  ??014C . . . . . . . . . . . .	L Near	 2C8F	  _TEXT	
  ??014D . . . . . . . . . . . .	L Near	 2C9A	  _TEXT	
  ??014E . . . . . . . . . . . .	L Near	 2CA1	  _TEXT	
  ??014F . . . . . . . . . . . .	L Near	 2CA6	  _TEXT	
  reget  . . . . . . . . . . . .	L Near	 2CB4	  _TEXT	
  ??0150 . . . . . . . . . . . .	L Near	 2CF2	  _TEXT	
  ??0151 . . . . . . . . . . . .	L Near	 2CF8	  _TEXT	
  ??0152 . . . . . . . . . . . .	L Near	 2D2B	  _TEXT	
  ??0153 . . . . . . . . . . . .	L Near	 2D31	  _TEXT	
  redrawcircle . . . . . . . . .	L Near	 2D62	  _TEXT	
  ??0154 . . . . . . . . . . . .	L Near	 2D81	  _TEXT	
  ??0155 . . . . . . . . . . . .	L Near	 2D8B	  _TEXT	
  ??0156 . . . . . . . . . . . .	L Near	 2D8C	  _TEXT	
  ??0157 . . . . . . . . . . . .	L Near	 2D9A	  _TEXT	
  ??0158 . . . . . . . . . . . .	L Near	 2DA6	  _TEXT	
  ??0159 . . . . . . . . . . . .	L Near	 2E18	  _TEXT	
  ??015A . . . . . . . . . . . .	L Near	 2E1E	  _TEXT	
  ??015B . . . . . . . . . . . .	L Near	 2E73	  _TEXT	
  ??015C . . . . . . . . . . . .	L Near	 2E7D	  _TEXT	
  ??015D . . . . . . . . . . . .	L Near	 2E7E	  _TEXT	
  ??015E . . . . . . . . . . . .	L Near	 2E8C	  _TEXT	
  ??015F . . . . . . . . . . . .	L Near	 2E98	  _TEXT	
  ??0160 . . . . . . . . . . . .	L Near	 2F0A	  _TEXT	
  ??0161 . . . . . . . . . . . .	L Near	 2F10	  _TEXT	
  ??0162 . . . . . . . . . . . .	L Near	 2F65	  _TEXT	
  ??0163 . . . . . . . . . . . .	L Near	 2F6F	  _TEXT	
  ??0164 . . . . . . . . . . . .	L Near	 2F70	  _TEXT	
  ??0165 . . . . . . . . . . . .	L Near	 2F7E	  _TEXT	
  ??0166 . . . . . . . . . . . .	L Near	 2F8A	  _TEXT	
  ??0167 . . . . . . . . . . . .	L Near	 2FFC	  _TEXT	
  ??0168 . . . . . . . . . . . .	L Near	 3002	  _TEXT	
  ??0169 . . . . . . . . . . . .	L Near	 3057	  _TEXT	
  ??016A . . . . . . . . . . . .	L Near	 3061	  _TEXT	
  ??016B . . . . . . . . . . . .	L Near	 3062	  _TEXT	
  ??016C . . . . . . . . . . . .	L Near	 3070	  _TEXT	
  ??016D . . . . . . . . . . . .	L Near	 307C	  _TEXT	
  ??016E . . . . . . . . . . . .	L Near	 30EE	  _TEXT	
  ??016F . . . . . . . . . . . .	L Near	 30F4	  _TEXT	
  ??0170 . . . . . . . . . . . .	L Near	 3149	  _TEXT	
  ??0171 . . . . . . . . . . . .	L Near	 3153	  _TEXT	
  ??0172 . . . . . . . . . . . .	L Near	 3154	  _TEXT	
  ??0173 . . . . . . . . . . . .	L Near	 3162	  _TEXT	
  ??0174 . . . . . . . . . . . .	L Near	 316E	  _TEXT	
  ??0175 . . . . . . . . . . . .	L Near	 31E0	  _TEXT	
  ??0176 . . . . . . . . . . . .	L Near	 31E6	  _TEXT	
  ??0177 . . . . . . . . . . . .	L Near	 323B	  _TEXT	
  ??0178 . . . . . . . . . . . .	L Near	 3245	  _TEXT	
  ??0179 . . . . . . . . . . . .	L Near	 3246	  _TEXT	
  ??017A . . . . . . . . . . . .	L Near	 3254	  _TEXT	
  ??017B . . . . . . . . . . . .	L Near	 3260	  _TEXT	
  ??017C . . . . . . . . . . . .	L Near	 32D2	  _TEXT	
  ??017D . . . . . . . . . . . .	L Near	 32D8	  _TEXT	
  ??017E . . . . . . . . . . . .	L Near	 332D	  _TEXT	
  ??017F . . . . . . . . . . . .	L Near	 3337	  _TEXT	
  ??0180 . . . . . . . . . . . .	L Near	 3338	  _TEXT	
  ??0181 . . . . . . . . . . . .	L Near	 3346	  _TEXT	
  ??0182 . . . . . . . . . . . .	L Near	 3352	  _TEXT	
  ??0183 . . . . . . . . . . . .	L Near	 33C4	  _TEXT	
  ??0184 . . . . . . . . . . . .	L Near	 33CA	  _TEXT	
  ??0185 . . . . . . . . . . . .	L Near	 341F	  _TEXT	
  ??0186 . . . . . . . . . . . .	L Near	 3429	  _TEXT	
  ??0187 . . . . . . . . . . . .	L Near	 342A	  _TEXT	
  ??0188 . . . . . . . . . . . .	L Near	 3438	  _TEXT	
  ??0189 . . . . . . . . . . . .	L Near	 3444	  _TEXT	
  ??018A . . . . . . . . . . . .	L Near	 34B6	  _TEXT	
  ??018B . . . . . . . . . . . .	L Near	 34BC	  _TEXT	
  ??018C . . . . . . . . . . . .	L Near	 3511	  _TEXT	
  ??018D . . . . . . . . . . . .	L Near	 351B	  _TEXT	
  ??018E . . . . . . . . . . . .	L Near	 351C	  _TEXT	
  ??018F . . . . . . . . . . . .	L Near	 352A	  _TEXT	
  ??0190 . . . . . . . . . . . .	L Near	 3536	  _TEXT	
  ??0191 . . . . . . . . . . . .	L Near	 35A8	  _TEXT	
  ??0192 . . . . . . . . . . . .	L Near	 35AE	  _TEXT	
  ??0193 . . . . . . . . . . . .	L Near	 3603	  _TEXT	
  ??0194 . . . . . . . . . . . .	L Near	 360D	  _TEXT	
  ??0195 . . . . . . . . . . . .	L Near	 360E	  _TEXT	
  ??0196 . . . . . . . . . . . .	L Near	 361C	  _TEXT	
  ??0197 . . . . . . . . . . . .	L Near	 3628	  _TEXT	
  ??0198 . . . . . . . . . . . .	L Near	 369A	  _TEXT	
  ??0199 . . . . . . . . . . . .	L Near	 36A0	  _TEXT	
  ??019A . . . . . . . . . . . .	L Near	 36F5	  _TEXT	
  ??019B . . . . . . . . . . . .	L Near	 36FF	  _TEXT	
  ??019C . . . . . . . . . . . .	L Near	 3700	  _TEXT	
  ??019D . . . . . . . . . . . .	L Near	 370E	  _TEXT	
  ??019E . . . . . . . . . . . .	L Near	 371A	  _TEXT	
  ??019F . . . . . . . . . . . .	L Near	 378C	  _TEXT	
  ??01A0 . . . . . . . . . . . .	L Near	 3792	  _TEXT	
  ??01A1 . . . . . . . . . . . .	L Near	 37E7	  _TEXT	
  ??01A2 . . . . . . . . . . . .	L Near	 37F1	  _TEXT	
  ??01A3 . . . . . . . . . . . .	L Near	 37F2	  _TEXT	
  ??01A4 . . . . . . . . . . . .	L Near	 3800	  _TEXT	
  ??01A5 . . . . . . . . . . . .	L Near	 380C	  _TEXT	
  ??01A6 . . . . . . . . . . . .	L Near	 387E	  _TEXT	
  ??01A7 . . . . . . . . . . . .	L Near	 3884	  _TEXT	
  ??01A8 . . . . . . . . . . . .	L Near	 38D9	  _TEXT	
  ??01A9 . . . . . . . . . . . .	L Near	 38E3	  _TEXT	
  ??01AA . . . . . . . . . . . .	L Near	 38E4	  _TEXT	
  ??01AB . . . . . . . . . . . .	L Near	 38F2	  _TEXT	
  ??01AC . . . . . . . . . . . .	L Near	 38FE	  _TEXT	
  ??01AD . . . . . . . . . . . .	L Near	 3970	  _TEXT	
  ??01AE . . . . . . . . . . . .	L Near	 3976	  _TEXT	
  ??01AF . . . . . . . . . . . .	L Near	 39CB	  _TEXT	
  ??01B0 . . . . . . . . . . . .	L Near	 39D5	  _TEXT	
  ??01B1 . . . . . . . . . . . .	L Near	 39D6	  _TEXT	
  ??01B2 . . . . . . . . . . . .	L Near	 39E4	  _TEXT	
  ??01B3 . . . . . . . . . . . .	L Near	 39F0	  _TEXT	
  ??01B4 . . . . . . . . . . . .	L Near	 3A62	  _TEXT	
  ??01B5 . . . . . . . . . . . .	L Near	 3A68	  _TEXT	
  ??01B6 . . . . . . . . . . . .	L Near	 3ABD	  _TEXT	
  ??01B7 . . . . . . . . . . . .	L Near	 3AC7	  _TEXT	
  ??01B8 . . . . . . . . . . . .	L Near	 3AC8	  _TEXT	
  ??01B9 . . . . . . . . . . . .	L Near	 3AD6	  _TEXT	
  ??01BA . . . . . . . . . . . .	L Near	 3AE2	  _TEXT	
  ??01BB . . . . . . . . . . . .	L Near	 3B54	  _TEXT	
  ??01BC . . . . . . . . . . . .	L Near	 3B5A	  _TEXT	
  ??01BD . . . . . . . . . . . .	L Near	 3BAF	  _TEXT	
  ??01BE . . . . . . . . . . . .	L Near	 3BB9	  _TEXT	
  ??01BF . . . . . . . . . . . .	L Near	 3BBA	  _TEXT	
  ??01C0 . . . . . . . . . . . .	L Near	 3BC8	  _TEXT	
  ??01C1 . . . . . . . . . . . .	L Near	 3BD4	  _TEXT	
  ??01C2 . . . . . . . . . . . .	L Near	 3C46	  _TEXT	
  ??01C3 . . . . . . . . . . . .	L Near	 3C4C	  _TEXT	
  ??01C4 . . . . . . . . . . . .	L Near	 3CA1	  _TEXT	
  ??01C5 . . . . . . . . . . . .	L Near	 3CAB	  _TEXT	
  ??01C6 . . . . . . . . . . . .	L Near	 3CAC	  _TEXT	
  ??01C7 . . . . . . . . . . . .	L Near	 3CBA	  _TEXT	
  ??01C8 . . . . . . . . . . . .	L Near	 3CC6	  _TEXT	
  ??01C9 . . . . . . . . . . . .	L Near	 3D38	  _TEXT	
  ??01CA . . . . . . . . . . . .	L Near	 3D3E	  _TEXT	
  ??01CB . . . . . . . . . . . .	L Near	 3D93	  _TEXT	
  ??01CC . . . . . . . . . . . .	L Near	 3D9D	  _TEXT	
  ??01CD . . . . . . . . . . . .	L Near	 3D9E	  _TEXT	
  ??01CE . . . . . . . . . . . .	L Near	 3DAC	  _TEXT	
  ??01CF . . . . . . . . . . . .	L Near	 3DB8	  _TEXT	
  ??01D0 . . . . . . . . . . . .	L Near	 3E2A	  _TEXT	
  ??01D1 . . . . . . . . . . . .	L Near	 3E30	  _TEXT	
  ??01D2 . . . . . . . . . . . .	L Near	 3E85	  _TEXT	
  ??01D3 . . . . . . . . . . . .	L Near	 3E8F	  _TEXT	
  ??01D4 . . . . . . . . . . . .	L Near	 3E90	  _TEXT	
  ??01D5 . . . . . . . . . . . .	L Near	 3E9E	  _TEXT	
  ??01D6 . . . . . . . . . . . .	L Near	 3EAA	  _TEXT	
  ??01D7 . . . . . . . . . . . .	L Near	 3F1C	  _TEXT	
  ??01D8 . . . . . . . . . . . .	L Near	 3F22	  _TEXT	
  ??01D9 . . . . . . . . . . . .	L Near	 3F77	  _TEXT	
  ??01DA . . . . . . . . . . . .	L Near	 3F81	  _TEXT	
  ??01DB . . . . . . . . . . . .	L Near	 3F82	  _TEXT	
  ??01DC . . . . . . . . . . . .	L Near	 3F90	  _TEXT	
  ??01DD . . . . . . . . . . . .	L Near	 3F9C	  _TEXT	
  ??01DE . . . . . . . . . . . .	L Near	 400E	  _TEXT	
  ??01DF . . . . . . . . . . . .	L Near	 4014	  _TEXT	
  ??01E0 . . . . . . . . . . . .	L Near	 406A	  _TEXT	
  ??01E1 . . . . . . . . . . . .	L Near	 4095	  _TEXT	
  ??01E2 . . . . . . . . . . . .	L Near	 40C0	  _TEXT	
  ??01E3 . . . . . . . . . . . .	L Near	 40EB	  _TEXT	
  ??01E4 . . . . . . . . . . . .	L Near	 4116	  _TEXT	
  ??01E5 . . . . . . . . . . . .	L Near	 4141	  _TEXT	
  ??01E6 . . . . . . . . . . . .	L Near	 416C	  _TEXT	
  ??01E7 . . . . . . . . . . . .	L Near	 4197	  _TEXT	
  black  . . . . . . . . . . . .	L Near	 41C8	  _TEXT	
  white  . . . . . . . . . . . .	L Near	 41D5	  _TEXT	
  exitgame . . . . . . . . . . .	L Near	 41E2	  _TEXT	
  loop3  . . . . . . . . . . . .	L Near	 41E8	  _TEXT	
  ??01E8 . . . . . . . . . . . .	L Near	 4208	  _TEXT	
  ??01E9 . . . . . . . . . . . .	L Near	 4232	  _TEXT	
  ??01EA . . . . . . . . . . . .	L Near	 425C	  _TEXT	
  ??01EB . . . . . . . . . . . .	L Near	 4286	  _TEXT	
  ??01EC . . . . . . . . . . . .	L Near	 42B0	  _TEXT	
  ??01ED . . . . . . . . . . . .	L Near	 42DA	  _TEXT	
  ??01EE . . . . . . . . . . . .	L Near	 4304	  _TEXT	
  ??01EF . . . . . . . . . . . .	L Near	 432E	  _TEXT	


Symbols:

                N a m e                 Type     Value    Attr

@CodeSize  . . . . . . . . . . .	Number	 0000h	 
@DataSize  . . . . . . . . . . .	Number	 0000h	 
@Interface . . . . . . . . . . .	Number	 0000h	 
@Model . . . . . . . . . . . . .	Number	 0002h	 
@code  . . . . . . . . . . . . .	Text   	 _TEXT
@data  . . . . . . . . . . . . .	Text   	 DGROUP
@fardata?  . . . . . . . . . . .	Text   	 FAR_BSS
@fardata . . . . . . . . . . . .	Text   	 FAR_DATA
@stack . . . . . . . . . . . . .	Text   	 DGROUP
BEEP . . . . . . . . . . . . . .	L Far	 0000	  External
SUBPROG1 . . . . . . . . . . . .	L Far	 0000	  External
aicenx . . . . . . . . . . . . .	Word	 0145	  _DATA	
aiceny . . . . . . . . . . . . .	Word	 0147	  _DATA	
colo . . . . . . . . . . . . . .	Byte	 0131	  _DATA	
colx . . . . . . . . . . . . . .	Word	 0153	  _DATA	
jcolx  . . . . . . . . . . . . .	Word	 0157	  _DATA	
jrowy  . . . . . . . . . . . . .	Word	 0155	  _DATA	
jud1 . . . . . . . . . . . . . .	Byte	 0120	  _DATA	
judg . . . . . . . . . . . . . .	Byte	 0123	  _DATA	
lianzigeshu  . . . . . . . . . .	Byte	 0140	  _DATA	
line . . . . . . . . . . . . . .	Word	 0000	  _DATA	
map0 . . . . . . . . . . . . . .	Byte	 0030	  _DATA	
maxscore . . . . . . . . . . . .	Word	 0141	  _DATA	
pianyi . . . . . . . . . . . . .	Word	 0121	  _DATA	
pos_cenx . . . . . . . . . . . .	Word	 0024	  _DATA	
pos_ceny . . . . . . . . . . . .	Word	 0026	  _DATA	
pos_lastx  . . . . . . . . . . .	Word	 0028	  _DATA	
pos_lasty  . . . . . . . . . . .	Word	 002A	  _DATA	
pos_x  . . . . . . . . . . . . .	Word	 0020	  _DATA	
pos_y  . . . . . . . . . . . . .	Word	 0022	  _DATA	
qizinum  . . . . . . . . . . . .	Byte	 0132	  _DATA	
rowy . . . . . . . . . . . . . .	Word	 0151	  _DATA	
state  . . . . . . . . . . . . .	Byte	 0130	  _DATA	
tempscore  . . . . . . . . . . .	Word	 0143	  _DATA	
tmpaicenx  . . . . . . . . . . .	Word	 0149	  _DATA	
tmpaiceny  . . . . . . . . . . .	Word	 014B	  _DATA	

	   0 Warnings
	   0 Errors
